
tpms_progr.elf:     file format elf32-littlearm

Sections:
Idx Name          Size      VMA       LMA       File off  Algn
  0 .isr_vector   00000194  08000000  08000000  00010000  2**0
                  CONTENTS, ALLOC, LOAD, READONLY, DATA
  1 .text         00006360  080001a0  080001a0  000101a0  2**4
                  CONTENTS, ALLOC, LOAD, READONLY, CODE
  2 .rodata       00000344  08006500  08006500  00016500  2**2
                  CONTENTS, ALLOC, LOAD, READONLY, DATA
  3 .ARM.extab    00000000  08006844  08006844  00020070  2**0
                  CONTENTS
  4 .ARM          00000008  08006844  08006844  00016844  2**2
                  CONTENTS, ALLOC, LOAD, READONLY, DATA
  5 .preinit_array 00000000  0800684c  0800684c  00020070  2**0
                  CONTENTS, ALLOC, LOAD, DATA
  6 .init_array   00000004  0800684c  0800684c  0001684c  2**2
                  CONTENTS, ALLOC, LOAD, DATA
  7 .fini_array   00000004  08006850  08006850  00016850  2**2
                  CONTENTS, ALLOC, LOAD, DATA
  8 .data         00000070  20000000  08006854  00020000  2**2
                  CONTENTS, ALLOC, LOAD, DATA
  9 .bss          00004c5c  20000070  080068c4  00020070  2**2
                  ALLOC
 10 ._user_heap_stack 00000604  20004ccc  080068c4  00024ccc  2**0
                  ALLOC
 11 .ARM.attributes 00000030  00000000  00000000  00020070  2**0
                  CONTENTS, READONLY
 12 .comment      00000043  00000000  00000000  000200a0  2**0
                  CONTENTS, READONLY
 13 .debug_frame  00000a94  00000000  00000000  000200e4  2**2
                  CONTENTS, READONLY, DEBUGGING, OCTETS

Disassembly of section .text:

080001a0 <__do_global_dtors_aux>:
 80001a0:	b510      	push	{r4, lr}
 80001a2:	4c05      	ldr	r4, [pc, #20]	; (80001b8 <__do_global_dtors_aux+0x18>)
 80001a4:	7823      	ldrb	r3, [r4, #0]
 80001a6:	b933      	cbnz	r3, 80001b6 <__do_global_dtors_aux+0x16>
 80001a8:	4b04      	ldr	r3, [pc, #16]	; (80001bc <__do_global_dtors_aux+0x1c>)
 80001aa:	b113      	cbz	r3, 80001b2 <__do_global_dtors_aux+0x12>
 80001ac:	4804      	ldr	r0, [pc, #16]	; (80001c0 <__do_global_dtors_aux+0x20>)
 80001ae:	f3af 8000 	nop.w
 80001b2:	2301      	movs	r3, #1
 80001b4:	7023      	strb	r3, [r4, #0]
 80001b6:	bd10      	pop	{r4, pc}
 80001b8:	20000070 	.word	0x20000070
 80001bc:	00000000 	.word	0x00000000
 80001c0:	080064e8 	.word	0x080064e8

080001c4 <frame_dummy>:
 80001c4:	b508      	push	{r3, lr}
 80001c6:	4b03      	ldr	r3, [pc, #12]	; (80001d4 <frame_dummy+0x10>)
 80001c8:	b11b      	cbz	r3, 80001d2 <frame_dummy+0xe>
 80001ca:	4903      	ldr	r1, [pc, #12]	; (80001d8 <frame_dummy+0x14>)
 80001cc:	4803      	ldr	r0, [pc, #12]	; (80001dc <frame_dummy+0x18>)
 80001ce:	f3af 8000 	nop.w
 80001d2:	bd08      	pop	{r3, pc}
 80001d4:	00000000 	.word	0x00000000
 80001d8:	20000074 	.word	0x20000074
 80001dc:	080064e8 	.word	0x080064e8

080001e0 <memchr>:
 80001e0:	f001 01ff 	and.w	r1, r1, #255	; 0xff
 80001e4:	2a10      	cmp	r2, #16
 80001e6:	db2b      	blt.n	8000240 <memchr+0x60>
 80001e8:	f010 0f07 	tst.w	r0, #7
 80001ec:	d008      	beq.n	8000200 <memchr+0x20>
 80001ee:	f810 3b01 	ldrb.w	r3, [r0], #1
 80001f2:	3a01      	subs	r2, #1
 80001f4:	428b      	cmp	r3, r1
 80001f6:	d02d      	beq.n	8000254 <memchr+0x74>
 80001f8:	f010 0f07 	tst.w	r0, #7
 80001fc:	b342      	cbz	r2, 8000250 <memchr+0x70>
 80001fe:	d1f6      	bne.n	80001ee <memchr+0xe>
 8000200:	b4f0      	push	{r4, r5, r6, r7}
 8000202:	ea41 2101 	orr.w	r1, r1, r1, lsl #8
 8000206:	ea41 4101 	orr.w	r1, r1, r1, lsl #16
 800020a:	f022 0407 	bic.w	r4, r2, #7
 800020e:	f07f 0700 	mvns.w	r7, #0
 8000212:	2300      	movs	r3, #0
 8000214:	e8f0 5602 	ldrd	r5, r6, [r0], #8
 8000218:	3c08      	subs	r4, #8
 800021a:	ea85 0501 	eor.w	r5, r5, r1
 800021e:	ea86 0601 	eor.w	r6, r6, r1
 8000222:	fa85 f547 	uadd8	r5, r5, r7
 8000226:	faa3 f587 	sel	r5, r3, r7
 800022a:	fa86 f647 	uadd8	r6, r6, r7
 800022e:	faa5 f687 	sel	r6, r5, r7
 8000232:	b98e      	cbnz	r6, 8000258 <memchr+0x78>
 8000234:	d1ee      	bne.n	8000214 <memchr+0x34>
 8000236:	bcf0      	pop	{r4, r5, r6, r7}
 8000238:	f001 01ff 	and.w	r1, r1, #255	; 0xff
 800023c:	f002 0207 	and.w	r2, r2, #7
 8000240:	b132      	cbz	r2, 8000250 <memchr+0x70>
 8000242:	f810 3b01 	ldrb.w	r3, [r0], #1
 8000246:	3a01      	subs	r2, #1
 8000248:	ea83 0301 	eor.w	r3, r3, r1
 800024c:	b113      	cbz	r3, 8000254 <memchr+0x74>
 800024e:	d1f8      	bne.n	8000242 <memchr+0x62>
 8000250:	2000      	movs	r0, #0
 8000252:	4770      	bx	lr
 8000254:	3801      	subs	r0, #1
 8000256:	4770      	bx	lr
 8000258:	2d00      	cmp	r5, #0
 800025a:	bf06      	itte	eq
 800025c:	4635      	moveq	r5, r6
 800025e:	3803      	subeq	r0, #3
 8000260:	3807      	subne	r0, #7
 8000262:	f015 0f01 	tst.w	r5, #1
 8000266:	d107      	bne.n	8000278 <memchr+0x98>
 8000268:	3001      	adds	r0, #1
 800026a:	f415 7f80 	tst.w	r5, #256	; 0x100
 800026e:	bf02      	ittt	eq
 8000270:	3001      	addeq	r0, #1
 8000272:	f415 3fc0 	tsteq.w	r5, #98304	; 0x18000
 8000276:	3001      	addeq	r0, #1
 8000278:	bcf0      	pop	{r4, r5, r6, r7}
 800027a:	3801      	subs	r0, #1
 800027c:	4770      	bx	lr
 800027e:	bf00      	nop

08000280 <__aeabi_uldivmod>:
 8000280:	b953      	cbnz	r3, 8000298 <__aeabi_uldivmod+0x18>
 8000282:	b94a      	cbnz	r2, 8000298 <__aeabi_uldivmod+0x18>
 8000284:	2900      	cmp	r1, #0
 8000286:	bf08      	it	eq
 8000288:	2800      	cmpeq	r0, #0
 800028a:	bf1c      	itt	ne
 800028c:	f04f 31ff 	movne.w	r1, #4294967295
 8000290:	f04f 30ff 	movne.w	r0, #4294967295
 8000294:	f000 b970 	b.w	8000578 <__aeabi_idiv0>
 8000298:	f1ad 0c08 	sub.w	ip, sp, #8
 800029c:	e96d ce04 	strd	ip, lr, [sp, #-16]!
 80002a0:	f000 f806 	bl	80002b0 <__udivmoddi4>
 80002a4:	f8dd e004 	ldr.w	lr, [sp, #4]
 80002a8:	e9dd 2302 	ldrd	r2, r3, [sp, #8]
 80002ac:	b004      	add	sp, #16
 80002ae:	4770      	bx	lr

080002b0 <__udivmoddi4>:
 80002b0:	e92d 47f0 	stmdb	sp!, {r4, r5, r6, r7, r8, r9, sl, lr}
 80002b4:	9e08      	ldr	r6, [sp, #32]
 80002b6:	460d      	mov	r5, r1
 80002b8:	4604      	mov	r4, r0
 80002ba:	460f      	mov	r7, r1
 80002bc:	2b00      	cmp	r3, #0
 80002be:	d14a      	bne.n	8000356 <__udivmoddi4+0xa6>
 80002c0:	428a      	cmp	r2, r1
 80002c2:	4694      	mov	ip, r2
 80002c4:	d965      	bls.n	8000392 <__udivmoddi4+0xe2>
 80002c6:	fab2 f382 	clz	r3, r2
 80002ca:	b143      	cbz	r3, 80002de <__udivmoddi4+0x2e>
 80002cc:	fa02 fc03 	lsl.w	ip, r2, r3
 80002d0:	f1c3 0220 	rsb	r2, r3, #32
 80002d4:	409f      	lsls	r7, r3
 80002d6:	fa20 f202 	lsr.w	r2, r0, r2
 80002da:	4317      	orrs	r7, r2
 80002dc:	409c      	lsls	r4, r3
 80002de:	ea4f 4e1c 	mov.w	lr, ip, lsr #16
 80002e2:	fa1f f58c 	uxth.w	r5, ip
 80002e6:	fbb7 f1fe 	udiv	r1, r7, lr
 80002ea:	0c22      	lsrs	r2, r4, #16
 80002ec:	fb0e 7711 	mls	r7, lr, r1, r7
 80002f0:	ea42 4207 	orr.w	r2, r2, r7, lsl #16
 80002f4:	fb01 f005 	mul.w	r0, r1, r5
 80002f8:	4290      	cmp	r0, r2
 80002fa:	d90a      	bls.n	8000312 <__udivmoddi4+0x62>
 80002fc:	eb1c 0202 	adds.w	r2, ip, r2
 8000300:	f101 37ff 	add.w	r7, r1, #4294967295
 8000304:	f080 811c 	bcs.w	8000540 <__udivmoddi4+0x290>
 8000308:	4290      	cmp	r0, r2
 800030a:	f240 8119 	bls.w	8000540 <__udivmoddi4+0x290>
 800030e:	3902      	subs	r1, #2
 8000310:	4462      	add	r2, ip
 8000312:	1a12      	subs	r2, r2, r0
 8000314:	b2a4      	uxth	r4, r4
 8000316:	fbb2 f0fe 	udiv	r0, r2, lr
 800031a:	fb0e 2210 	mls	r2, lr, r0, r2
 800031e:	ea44 4402 	orr.w	r4, r4, r2, lsl #16
 8000322:	fb00 f505 	mul.w	r5, r0, r5
 8000326:	42a5      	cmp	r5, r4
 8000328:	d90a      	bls.n	8000340 <__udivmoddi4+0x90>
 800032a:	eb1c 0404 	adds.w	r4, ip, r4
 800032e:	f100 32ff 	add.w	r2, r0, #4294967295
 8000332:	f080 8107 	bcs.w	8000544 <__udivmoddi4+0x294>
 8000336:	42a5      	cmp	r5, r4
 8000338:	f240 8104 	bls.w	8000544 <__udivmoddi4+0x294>
 800033c:	4464      	add	r4, ip
 800033e:	3802      	subs	r0, #2
 8000340:	ea40 4001 	orr.w	r0, r0, r1, lsl #16
 8000344:	1b64      	subs	r4, r4, r5
 8000346:	2100      	movs	r1, #0
 8000348:	b11e      	cbz	r6, 8000352 <__udivmoddi4+0xa2>
 800034a:	40dc      	lsrs	r4, r3
 800034c:	2300      	movs	r3, #0
 800034e:	e9c6 4300 	strd	r4, r3, [r6]
 8000352:	e8bd 87f0 	ldmia.w	sp!, {r4, r5, r6, r7, r8, r9, sl, pc}
 8000356:	428b      	cmp	r3, r1
 8000358:	d908      	bls.n	800036c <__udivmoddi4+0xbc>
 800035a:	2e00      	cmp	r6, #0
 800035c:	f000 80ed 	beq.w	800053a <__udivmoddi4+0x28a>
 8000360:	2100      	movs	r1, #0
 8000362:	e9c6 0500 	strd	r0, r5, [r6]
 8000366:	4608      	mov	r0, r1
 8000368:	e8bd 87f0 	ldmia.w	sp!, {r4, r5, r6, r7, r8, r9, sl, pc}
 800036c:	fab3 f183 	clz	r1, r3
 8000370:	2900      	cmp	r1, #0
 8000372:	d149      	bne.n	8000408 <__udivmoddi4+0x158>
 8000374:	42ab      	cmp	r3, r5
 8000376:	d302      	bcc.n	800037e <__udivmoddi4+0xce>
 8000378:	4282      	cmp	r2, r0
 800037a:	f200 80f8 	bhi.w	800056e <__udivmoddi4+0x2be>
 800037e:	1a84      	subs	r4, r0, r2
 8000380:	eb65 0203 	sbc.w	r2, r5, r3
 8000384:	2001      	movs	r0, #1
 8000386:	4617      	mov	r7, r2
 8000388:	2e00      	cmp	r6, #0
 800038a:	d0e2      	beq.n	8000352 <__udivmoddi4+0xa2>
 800038c:	e9c6 4700 	strd	r4, r7, [r6]
 8000390:	e7df      	b.n	8000352 <__udivmoddi4+0xa2>
 8000392:	b902      	cbnz	r2, 8000396 <__udivmoddi4+0xe6>
 8000394:	deff      	udf	#255	; 0xff
 8000396:	fab2 f382 	clz	r3, r2
 800039a:	2b00      	cmp	r3, #0
 800039c:	f040 8090 	bne.w	80004c0 <__udivmoddi4+0x210>
 80003a0:	1a8a      	subs	r2, r1, r2
 80003a2:	ea4f 471c 	mov.w	r7, ip, lsr #16
 80003a6:	fa1f fe8c 	uxth.w	lr, ip
 80003aa:	2101      	movs	r1, #1
 80003ac:	fbb2 f5f7 	udiv	r5, r2, r7
 80003b0:	fb07 2015 	mls	r0, r7, r5, r2
 80003b4:	0c22      	lsrs	r2, r4, #16
 80003b6:	ea42 4200 	orr.w	r2, r2, r0, lsl #16
 80003ba:	fb0e f005 	mul.w	r0, lr, r5
 80003be:	4290      	cmp	r0, r2
 80003c0:	d908      	bls.n	80003d4 <__udivmoddi4+0x124>
 80003c2:	eb1c 0202 	adds.w	r2, ip, r2
 80003c6:	f105 38ff 	add.w	r8, r5, #4294967295
 80003ca:	d202      	bcs.n	80003d2 <__udivmoddi4+0x122>
 80003cc:	4290      	cmp	r0, r2
 80003ce:	f200 80cb 	bhi.w	8000568 <__udivmoddi4+0x2b8>
 80003d2:	4645      	mov	r5, r8
 80003d4:	1a12      	subs	r2, r2, r0
 80003d6:	b2a4      	uxth	r4, r4
 80003d8:	fbb2 f0f7 	udiv	r0, r2, r7
 80003dc:	fb07 2210 	mls	r2, r7, r0, r2
 80003e0:	ea44 4402 	orr.w	r4, r4, r2, lsl #16
 80003e4:	fb0e fe00 	mul.w	lr, lr, r0
 80003e8:	45a6      	cmp	lr, r4
 80003ea:	d908      	bls.n	80003fe <__udivmoddi4+0x14e>
 80003ec:	eb1c 0404 	adds.w	r4, ip, r4
 80003f0:	f100 32ff 	add.w	r2, r0, #4294967295
 80003f4:	d202      	bcs.n	80003fc <__udivmoddi4+0x14c>
 80003f6:	45a6      	cmp	lr, r4
 80003f8:	f200 80bb 	bhi.w	8000572 <__udivmoddi4+0x2c2>
 80003fc:	4610      	mov	r0, r2
 80003fe:	eba4 040e 	sub.w	r4, r4, lr
 8000402:	ea40 4005 	orr.w	r0, r0, r5, lsl #16
 8000406:	e79f      	b.n	8000348 <__udivmoddi4+0x98>
 8000408:	f1c1 0720 	rsb	r7, r1, #32
 800040c:	408b      	lsls	r3, r1
 800040e:	fa22 fc07 	lsr.w	ip, r2, r7
 8000412:	ea4c 0c03 	orr.w	ip, ip, r3
 8000416:	fa05 f401 	lsl.w	r4, r5, r1
 800041a:	fa20 f307 	lsr.w	r3, r0, r7
 800041e:	40fd      	lsrs	r5, r7
 8000420:	ea4f 491c 	mov.w	r9, ip, lsr #16
 8000424:	4323      	orrs	r3, r4
 8000426:	fbb5 f8f9 	udiv	r8, r5, r9
 800042a:	fa1f fe8c 	uxth.w	lr, ip
 800042e:	fb09 5518 	mls	r5, r9, r8, r5
 8000432:	0c1c      	lsrs	r4, r3, #16
 8000434:	ea44 4405 	orr.w	r4, r4, r5, lsl #16
 8000438:	fb08 f50e 	mul.w	r5, r8, lr
 800043c:	42a5      	cmp	r5, r4
 800043e:	fa02 f201 	lsl.w	r2, r2, r1
 8000442:	fa00 f001 	lsl.w	r0, r0, r1
 8000446:	d90b      	bls.n	8000460 <__udivmoddi4+0x1b0>
 8000448:	eb1c 0404 	adds.w	r4, ip, r4
 800044c:	f108 3aff 	add.w	sl, r8, #4294967295
 8000450:	f080 8088 	bcs.w	8000564 <__udivmoddi4+0x2b4>
 8000454:	42a5      	cmp	r5, r4
 8000456:	f240 8085 	bls.w	8000564 <__udivmoddi4+0x2b4>
 800045a:	f1a8 0802 	sub.w	r8, r8, #2
 800045e:	4464      	add	r4, ip
 8000460:	1b64      	subs	r4, r4, r5
 8000462:	b29d      	uxth	r5, r3
 8000464:	fbb4 f3f9 	udiv	r3, r4, r9
 8000468:	fb09 4413 	mls	r4, r9, r3, r4
 800046c:	ea45 4404 	orr.w	r4, r5, r4, lsl #16
 8000470:	fb03 fe0e 	mul.w	lr, r3, lr
 8000474:	45a6      	cmp	lr, r4
 8000476:	d908      	bls.n	800048a <__udivmoddi4+0x1da>
 8000478:	eb1c 0404 	adds.w	r4, ip, r4
 800047c:	f103 35ff 	add.w	r5, r3, #4294967295
 8000480:	d26c      	bcs.n	800055c <__udivmoddi4+0x2ac>
 8000482:	45a6      	cmp	lr, r4
 8000484:	d96a      	bls.n	800055c <__udivmoddi4+0x2ac>
 8000486:	3b02      	subs	r3, #2
 8000488:	4464      	add	r4, ip
 800048a:	ea43 4308 	orr.w	r3, r3, r8, lsl #16
 800048e:	fba3 9502 	umull	r9, r5, r3, r2
 8000492:	eba4 040e 	sub.w	r4, r4, lr
 8000496:	42ac      	cmp	r4, r5
 8000498:	46c8      	mov	r8, r9
 800049a:	46ae      	mov	lr, r5
 800049c:	d356      	bcc.n	800054c <__udivmoddi4+0x29c>
 800049e:	d053      	beq.n	8000548 <__udivmoddi4+0x298>
 80004a0:	b156      	cbz	r6, 80004b8 <__udivmoddi4+0x208>
 80004a2:	ebb0 0208 	subs.w	r2, r0, r8
 80004a6:	eb64 040e 	sbc.w	r4, r4, lr
 80004aa:	fa04 f707 	lsl.w	r7, r4, r7
 80004ae:	40ca      	lsrs	r2, r1
 80004b0:	40cc      	lsrs	r4, r1
 80004b2:	4317      	orrs	r7, r2
 80004b4:	e9c6 7400 	strd	r7, r4, [r6]
 80004b8:	4618      	mov	r0, r3
 80004ba:	2100      	movs	r1, #0
 80004bc:	e8bd 87f0 	ldmia.w	sp!, {r4, r5, r6, r7, r8, r9, sl, pc}
 80004c0:	f1c3 0120 	rsb	r1, r3, #32
 80004c4:	fa02 fc03 	lsl.w	ip, r2, r3
 80004c8:	fa20 f201 	lsr.w	r2, r0, r1
 80004cc:	fa25 f101 	lsr.w	r1, r5, r1
 80004d0:	409d      	lsls	r5, r3
 80004d2:	432a      	orrs	r2, r5
 80004d4:	ea4f 471c 	mov.w	r7, ip, lsr #16
 80004d8:	fa1f fe8c 	uxth.w	lr, ip
 80004dc:	fbb1 f0f7 	udiv	r0, r1, r7
 80004e0:	fb07 1510 	mls	r5, r7, r0, r1
 80004e4:	0c11      	lsrs	r1, r2, #16
 80004e6:	ea41 4105 	orr.w	r1, r1, r5, lsl #16
 80004ea:	fb00 f50e 	mul.w	r5, r0, lr
 80004ee:	428d      	cmp	r5, r1
 80004f0:	fa04 f403 	lsl.w	r4, r4, r3
 80004f4:	d908      	bls.n	8000508 <__udivmoddi4+0x258>
 80004f6:	eb1c 0101 	adds.w	r1, ip, r1
 80004fa:	f100 38ff 	add.w	r8, r0, #4294967295
 80004fe:	d22f      	bcs.n	8000560 <__udivmoddi4+0x2b0>
 8000500:	428d      	cmp	r5, r1
 8000502:	d92d      	bls.n	8000560 <__udivmoddi4+0x2b0>
 8000504:	3802      	subs	r0, #2
 8000506:	4461      	add	r1, ip
 8000508:	1b49      	subs	r1, r1, r5
 800050a:	b292      	uxth	r2, r2
 800050c:	fbb1 f5f7 	udiv	r5, r1, r7
 8000510:	fb07 1115 	mls	r1, r7, r5, r1
 8000514:	ea42 4201 	orr.w	r2, r2, r1, lsl #16
 8000518:	fb05 f10e 	mul.w	r1, r5, lr
 800051c:	4291      	cmp	r1, r2
 800051e:	d908      	bls.n	8000532 <__udivmoddi4+0x282>
 8000520:	eb1c 0202 	adds.w	r2, ip, r2
 8000524:	f105 38ff 	add.w	r8, r5, #4294967295
 8000528:	d216      	bcs.n	8000558 <__udivmoddi4+0x2a8>
 800052a:	4291      	cmp	r1, r2
 800052c:	d914      	bls.n	8000558 <__udivmoddi4+0x2a8>
 800052e:	3d02      	subs	r5, #2
 8000530:	4462      	add	r2, ip
 8000532:	1a52      	subs	r2, r2, r1
 8000534:	ea45 4100 	orr.w	r1, r5, r0, lsl #16
 8000538:	e738      	b.n	80003ac <__udivmoddi4+0xfc>
 800053a:	4631      	mov	r1, r6
 800053c:	4630      	mov	r0, r6
 800053e:	e708      	b.n	8000352 <__udivmoddi4+0xa2>
 8000540:	4639      	mov	r1, r7
 8000542:	e6e6      	b.n	8000312 <__udivmoddi4+0x62>
 8000544:	4610      	mov	r0, r2
 8000546:	e6fb      	b.n	8000340 <__udivmoddi4+0x90>
 8000548:	4548      	cmp	r0, r9
 800054a:	d2a9      	bcs.n	80004a0 <__udivmoddi4+0x1f0>
 800054c:	ebb9 0802 	subs.w	r8, r9, r2
 8000550:	eb65 0e0c 	sbc.w	lr, r5, ip
 8000554:	3b01      	subs	r3, #1
 8000556:	e7a3      	b.n	80004a0 <__udivmoddi4+0x1f0>
 8000558:	4645      	mov	r5, r8
 800055a:	e7ea      	b.n	8000532 <__udivmoddi4+0x282>
 800055c:	462b      	mov	r3, r5
 800055e:	e794      	b.n	800048a <__udivmoddi4+0x1da>
 8000560:	4640      	mov	r0, r8
 8000562:	e7d1      	b.n	8000508 <__udivmoddi4+0x258>
 8000564:	46d0      	mov	r8, sl
 8000566:	e77b      	b.n	8000460 <__udivmoddi4+0x1b0>
 8000568:	3d02      	subs	r5, #2
 800056a:	4462      	add	r2, ip
 800056c:	e732      	b.n	80003d4 <__udivmoddi4+0x124>
 800056e:	4608      	mov	r0, r1
 8000570:	e70a      	b.n	8000388 <__udivmoddi4+0xd8>
 8000572:	4464      	add	r4, ip
 8000574:	3802      	subs	r0, #2
 8000576:	e742      	b.n	80003fe <__udivmoddi4+0x14e>

08000578 <__aeabi_idiv0>:
 8000578:	4770      	bx	lr
 800057a:	bf00      	nop

0800057c <SystemClock_Config>:
 800057c:	b510      	push	{r4, lr}
 800057e:	b094      	sub	sp, #80	; 0x50
 8000580:	2214      	movs	r2, #20
 8000582:	2100      	movs	r1, #0
 8000584:	a809      	add	r0, sp, #36	; 0x24
 8000586:	f005 f839 	bl	80055fc <memset>
 800058a:	2214      	movs	r2, #20
 800058c:	2100      	movs	r1, #0
 800058e:	a803      	add	r0, sp, #12
 8000590:	f005 f834 	bl	80055fc <memset>
 8000594:	4b1f      	ldr	r3, [pc, #124]	; (8000614 <SystemClock_Config+0x98>)
 8000596:	2200      	movs	r2, #0
 8000598:	9201      	str	r2, [sp, #4]
 800059a:	6c19      	ldr	r1, [r3, #64]	; 0x40
 800059c:	f041 5180 	orr.w	r1, r1, #268435456	; 0x10000000
 80005a0:	6419      	str	r1, [r3, #64]	; 0x40
 80005a2:	6c1b      	ldr	r3, [r3, #64]	; 0x40
 80005a4:	491c      	ldr	r1, [pc, #112]	; (8000618 <SystemClock_Config+0x9c>)
 80005a6:	f003 5380 	and.w	r3, r3, #268435456	; 0x10000000
 80005aa:	9301      	str	r3, [sp, #4]
 80005ac:	9b01      	ldr	r3, [sp, #4]
 80005ae:	9202      	str	r2, [sp, #8]
 80005b0:	680b      	ldr	r3, [r1, #0]
 80005b2:	f423 4340 	bic.w	r3, r3, #49152	; 0xc000
 80005b6:	f443 4300 	orr.w	r3, r3, #32768	; 0x8000
 80005ba:	600b      	str	r3, [r1, #0]
 80005bc:	680b      	ldr	r3, [r1, #0]
 80005be:	f403 4340 	and.w	r3, r3, #49152	; 0xc000
 80005c2:	9302      	str	r3, [sp, #8]
 80005c4:	9b02      	ldr	r3, [sp, #8]
 80005c6:	2101      	movs	r1, #1
 80005c8:	2310      	movs	r3, #16
 80005ca:	2008      	movs	r0, #8
 80005cc:	e9cd 130b 	strd	r1, r3, [sp, #44]	; 0x2c
 80005d0:	2340      	movs	r3, #64	; 0x40
 80005d2:	2402      	movs	r4, #2
 80005d4:	e9cd 0310 	strd	r0, r3, [sp, #64]	; 0x40
 80005d8:	2307      	movs	r3, #7
 80005da:	a808      	add	r0, sp, #32
 80005dc:	e9cd 420e 	strd	r4, r2, [sp, #56]	; 0x38
 80005e0:	9408      	str	r4, [sp, #32]
 80005e2:	9412      	str	r4, [sp, #72]	; 0x48
 80005e4:	9313      	str	r3, [sp, #76]	; 0x4c
 80005e6:	f001 fb3b 	bl	8001c60 <HAL_RCC_OscConfig>
 80005ea:	b108      	cbz	r0, 80005f0 <SystemClock_Config+0x74>
 80005ec:	b672      	cpsid	i
 80005ee:	e7fe      	b.n	80005ee <SystemClock_Config+0x72>
 80005f0:	230f      	movs	r3, #15
 80005f2:	e9cd 3403 	strd	r3, r4, [sp, #12]
 80005f6:	f44f 5380 	mov.w	r3, #4096	; 0x1000
 80005fa:	e9cd 3006 	strd	r3, r0, [sp, #24]
 80005fe:	9005      	str	r0, [sp, #20]
 8000600:	4621      	mov	r1, r4
 8000602:	a803      	add	r0, sp, #12
 8000604:	f001 fd06 	bl	8002014 <HAL_RCC_ClockConfig>
 8000608:	b108      	cbz	r0, 800060e <SystemClock_Config+0x92>
 800060a:	b672      	cpsid	i
 800060c:	e7fe      	b.n	800060c <SystemClock_Config+0x90>
 800060e:	b014      	add	sp, #80	; 0x50
 8000610:	bd10      	pop	{r4, pc}
 8000612:	bf00      	nop
 8000614:	40023800 	.word	0x40023800
 8000618:	40007000 	.word	0x40007000

0800061c <main>:
 800061c:	b508      	push	{r3, lr}
 800061e:	f000 f92f 	bl	8000880 <initialise_monitor_handles>
 8000622:	f000 fcd3 	bl	8000fcc <HAL_Init>
 8000626:	f7ff ffa9 	bl	800057c <SystemClock_Config>
 800062a:	f000 fc6f 	bl	8000f0c <init_tasks>
 800062e:	b110      	cbz	r0, 8000636 <main+0x1a>
 8000630:	4817      	ldr	r0, [pc, #92]	; (8000690 <main+0x74>)
 8000632:	f004 fecf 	bl	80053d4 <puts>
 8000636:	f000 fb0d 	bl	8000c54 <i2c_init>
 800063a:	b110      	cbz	r0, 8000642 <main+0x26>
 800063c:	4815      	ldr	r0, [pc, #84]	; (8000694 <main+0x78>)
 800063e:	f004 fec9 	bl	80053d4 <puts>
 8000642:	4815      	ldr	r0, [pc, #84]	; (8000698 <main+0x7c>)
 8000644:	4a15      	ldr	r2, [pc, #84]	; (800069c <main+0x80>)
 8000646:	f44f 33e1 	mov.w	r3, #115200	; 0x1c200
 800064a:	e9c0 2300 	strd	r2, r3, [r0]
 800064e:	2300      	movs	r3, #0
 8000650:	220c      	movs	r2, #12
 8000652:	e9c0 3302 	strd	r3, r3, [r0, #8]
 8000656:	e9c0 2305 	strd	r2, r3, [r0, #20]
 800065a:	6103      	str	r3, [r0, #16]
 800065c:	61c3      	str	r3, [r0, #28]
 800065e:	f002 fa5b 	bl	8002b18 <HAL_UART_Init>
 8000662:	b108      	cbz	r0, 8000668 <main+0x4c>
 8000664:	b672      	cpsid	i
 8000666:	e7fe      	b.n	8000666 <main+0x4a>
 8000668:	4b0d      	ldr	r3, [pc, #52]	; (80006a0 <main+0x84>)
 800066a:	4a0e      	ldr	r2, [pc, #56]	; (80006a4 <main+0x88>)
 800066c:	6198      	str	r0, [r3, #24]
 800066e:	e9c3 2000 	strd	r2, r0, [r3]
 8000672:	f44f 6200 	mov.w	r2, #2048	; 0x800
 8000676:	e9c3 0002 	strd	r0, r0, [r3, #8]
 800067a:	e9c3 2004 	strd	r2, r0, [r3, #16]
 800067e:	f002 fdc1 	bl	8003204 <MX_FATFS_Init>
 8000682:	f002 ff55 	bl	8003530 <osKernelStart>
 8000686:	4808      	ldr	r0, [pc, #32]	; (80006a8 <main+0x8c>)
 8000688:	f004 fea4 	bl	80053d4 <puts>
 800068c:	e7fe      	b.n	800068c <main+0x70>
 800068e:	bf00      	nop
 8000690:	08006500 	.word	0x08006500
 8000694:	08006516 	.word	0x08006516
 8000698:	20000110 	.word	0x20000110
 800069c:	40004400 	.word	0x40004400
 80006a0:	2000008c 	.word	0x2000008c
 80006a4:	40012c00 	.word	0x40012c00
 80006a8:	0800652c 	.word	0x0800652c

080006ac <HAL_MspInit>:
 80006ac:	b082      	sub	sp, #8
 80006ae:	4b0e      	ldr	r3, [pc, #56]	; (80006e8 <HAL_MspInit+0x3c>)
 80006b0:	2200      	movs	r2, #0
 80006b2:	9200      	str	r2, [sp, #0]
 80006b4:	6c59      	ldr	r1, [r3, #68]	; 0x44
 80006b6:	f441 4180 	orr.w	r1, r1, #16384	; 0x4000
 80006ba:	6459      	str	r1, [r3, #68]	; 0x44
 80006bc:	6c59      	ldr	r1, [r3, #68]	; 0x44
 80006be:	f401 4180 	and.w	r1, r1, #16384	; 0x4000
 80006c2:	9100      	str	r1, [sp, #0]
 80006c4:	9900      	ldr	r1, [sp, #0]
 80006c6:	9201      	str	r2, [sp, #4]
 80006c8:	6c19      	ldr	r1, [r3, #64]	; 0x40
 80006ca:	f041 5180 	orr.w	r1, r1, #268435456	; 0x10000000
 80006ce:	6419      	str	r1, [r3, #64]	; 0x40
 80006d0:	6c1b      	ldr	r3, [r3, #64]	; 0x40
 80006d2:	f003 5380 	and.w	r3, r3, #268435456	; 0x10000000
 80006d6:	9301      	str	r3, [sp, #4]
 80006d8:	9b01      	ldr	r3, [sp, #4]
 80006da:	210f      	movs	r1, #15
 80006dc:	f06f 0001 	mvn.w	r0, #1
 80006e0:	b002      	add	sp, #8
 80006e2:	f000 bcc5 	b.w	8001070 <HAL_NVIC_SetPriority>
 80006e6:	bf00      	nop
 80006e8:	40023800 	.word	0x40023800

080006ec <HAL_I2C_MspInit>:
 80006ec:	b530      	push	{r4, r5, lr}
 80006ee:	4604      	mov	r4, r0
 80006f0:	b089      	sub	sp, #36	; 0x24
 80006f2:	2214      	movs	r2, #20
 80006f4:	2100      	movs	r1, #0
 80006f6:	a803      	add	r0, sp, #12
 80006f8:	f004 ff80 	bl	80055fc <memset>
 80006fc:	6822      	ldr	r2, [r4, #0]
 80006fe:	4b13      	ldr	r3, [pc, #76]	; (800074c <HAL_I2C_MspInit+0x60>)
 8000700:	429a      	cmp	r2, r3
 8000702:	d121      	bne.n	8000748 <HAL_I2C_MspInit+0x5c>
 8000704:	4c12      	ldr	r4, [pc, #72]	; (8000750 <HAL_I2C_MspInit+0x64>)
 8000706:	4813      	ldr	r0, [pc, #76]	; (8000754 <HAL_I2C_MspInit+0x68>)
 8000708:	2500      	movs	r5, #0
 800070a:	9501      	str	r5, [sp, #4]
 800070c:	6b23      	ldr	r3, [r4, #48]	; 0x30
 800070e:	f043 0302 	orr.w	r3, r3, #2
 8000712:	6323      	str	r3, [r4, #48]	; 0x30
 8000714:	6b23      	ldr	r3, [r4, #48]	; 0x30
 8000716:	f003 0302 	and.w	r3, r3, #2
 800071a:	9301      	str	r3, [sp, #4]
 800071c:	9b01      	ldr	r3, [sp, #4]
 800071e:	22c0      	movs	r2, #192	; 0xc0
 8000720:	2312      	movs	r3, #18
 8000722:	e9cd 2303 	strd	r2, r3, [sp, #12]
 8000726:	2103      	movs	r1, #3
 8000728:	2304      	movs	r3, #4
 800072a:	e9cd 1306 	strd	r1, r3, [sp, #24]
 800072e:	a903      	add	r1, sp, #12
 8000730:	f000 fd20 	bl	8001174 <HAL_GPIO_Init>
 8000734:	9502      	str	r5, [sp, #8]
 8000736:	6c23      	ldr	r3, [r4, #64]	; 0x40
 8000738:	f443 1300 	orr.w	r3, r3, #2097152	; 0x200000
 800073c:	6423      	str	r3, [r4, #64]	; 0x40
 800073e:	6c23      	ldr	r3, [r4, #64]	; 0x40
 8000740:	f403 1300 	and.w	r3, r3, #2097152	; 0x200000
 8000744:	9302      	str	r3, [sp, #8]
 8000746:	9b02      	ldr	r3, [sp, #8]
 8000748:	b009      	add	sp, #36	; 0x24
 800074a:	bd30      	pop	{r4, r5, pc}
 800074c:	40005400 	.word	0x40005400
 8000750:	40023800 	.word	0x40023800
 8000754:	40020400 	.word	0x40020400

08000758 <HAL_SD_MspInit>:
 8000758:	b5f0      	push	{r4, r5, r6, r7, lr}
 800075a:	4604      	mov	r4, r0
 800075c:	b089      	sub	sp, #36	; 0x24
 800075e:	2214      	movs	r2, #20
 8000760:	2100      	movs	r1, #0
 8000762:	a803      	add	r0, sp, #12
 8000764:	f004 ff4a 	bl	80055fc <memset>
 8000768:	6822      	ldr	r2, [r4, #0]
 800076a:	4b1f      	ldr	r3, [pc, #124]	; (80007e8 <HAL_SD_MspInit+0x90>)
 800076c:	429a      	cmp	r2, r3
 800076e:	d139      	bne.n	80007e4 <HAL_SD_MspInit+0x8c>
 8000770:	f503 3386 	add.w	r3, r3, #68608	; 0x10c00
 8000774:	2400      	movs	r4, #0
 8000776:	9400      	str	r4, [sp, #0]
 8000778:	6c5a      	ldr	r2, [r3, #68]	; 0x44
 800077a:	481c      	ldr	r0, [pc, #112]	; (80007ec <HAL_SD_MspInit+0x94>)
 800077c:	f442 6200 	orr.w	r2, r2, #2048	; 0x800
 8000780:	645a      	str	r2, [r3, #68]	; 0x44
 8000782:	6c5a      	ldr	r2, [r3, #68]	; 0x44
 8000784:	f402 6200 	and.w	r2, r2, #2048	; 0x800
 8000788:	9200      	str	r2, [sp, #0]
 800078a:	9a00      	ldr	r2, [sp, #0]
 800078c:	9401      	str	r4, [sp, #4]
 800078e:	6b1a      	ldr	r2, [r3, #48]	; 0x30
 8000790:	f042 0204 	orr.w	r2, r2, #4
 8000794:	631a      	str	r2, [r3, #48]	; 0x30
 8000796:	6b1a      	ldr	r2, [r3, #48]	; 0x30
 8000798:	f002 0204 	and.w	r2, r2, #4
 800079c:	9201      	str	r2, [sp, #4]
 800079e:	9a01      	ldr	r2, [sp, #4]
 80007a0:	9402      	str	r4, [sp, #8]
 80007a2:	6b1a      	ldr	r2, [r3, #48]	; 0x30
 80007a4:	f042 0208 	orr.w	r2, r2, #8
 80007a8:	631a      	str	r2, [r3, #48]	; 0x30
 80007aa:	6b1b      	ldr	r3, [r3, #48]	; 0x30
 80007ac:	f003 0308 	and.w	r3, r3, #8
 80007b0:	250c      	movs	r5, #12
 80007b2:	9302      	str	r3, [sp, #8]
 80007b4:	9b02      	ldr	r3, [sp, #8]
 80007b6:	2702      	movs	r7, #2
 80007b8:	f44f 53f8 	mov.w	r3, #7936	; 0x1f00
 80007bc:	2603      	movs	r6, #3
 80007be:	eb0d 0105 	add.w	r1, sp, r5
 80007c2:	e9cd 3703 	strd	r3, r7, [sp, #12]
 80007c6:	e9cd 6506 	strd	r6, r5, [sp, #24]
 80007ca:	f000 fcd3 	bl	8001174 <HAL_GPIO_Init>
 80007ce:	2304      	movs	r3, #4
 80007d0:	4807      	ldr	r0, [pc, #28]	; (80007f0 <HAL_SD_MspInit+0x98>)
 80007d2:	9507      	str	r5, [sp, #28]
 80007d4:	eb0d 0105 	add.w	r1, sp, r5
 80007d8:	e9cd 3703 	strd	r3, r7, [sp, #12]
 80007dc:	e9cd 4605 	strd	r4, r6, [sp, #20]
 80007e0:	f000 fcc8 	bl	8001174 <HAL_GPIO_Init>
 80007e4:	b009      	add	sp, #36	; 0x24
 80007e6:	bdf0      	pop	{r4, r5, r6, r7, pc}
 80007e8:	40012c00 	.word	0x40012c00
 80007ec:	40020800 	.word	0x40020800
 80007f0:	40020c00 	.word	0x40020c00

080007f4 <HAL_UART_MspInit>:
 80007f4:	b510      	push	{r4, lr}
 80007f6:	4604      	mov	r4, r0
 80007f8:	b088      	sub	sp, #32
 80007fa:	2214      	movs	r2, #20
 80007fc:	2100      	movs	r1, #0
 80007fe:	a803      	add	r0, sp, #12
 8000800:	f004 fefc 	bl	80055fc <memset>
 8000804:	6822      	ldr	r2, [r4, #0]
 8000806:	4b13      	ldr	r3, [pc, #76]	; (8000854 <HAL_UART_MspInit+0x60>)
 8000808:	429a      	cmp	r2, r3
 800080a:	d120      	bne.n	800084e <HAL_UART_MspInit+0x5a>
 800080c:	f503 33fa 	add.w	r3, r3, #128000	; 0x1f400
 8000810:	2100      	movs	r1, #0
 8000812:	9101      	str	r1, [sp, #4]
 8000814:	6c1a      	ldr	r2, [r3, #64]	; 0x40
 8000816:	4810      	ldr	r0, [pc, #64]	; (8000858 <HAL_UART_MspInit+0x64>)
 8000818:	f442 3200 	orr.w	r2, r2, #131072	; 0x20000
 800081c:	641a      	str	r2, [r3, #64]	; 0x40
 800081e:	6c1a      	ldr	r2, [r3, #64]	; 0x40
 8000820:	f402 3200 	and.w	r2, r2, #131072	; 0x20000
 8000824:	9201      	str	r2, [sp, #4]
 8000826:	9a01      	ldr	r2, [sp, #4]
 8000828:	9102      	str	r1, [sp, #8]
 800082a:	6b1a      	ldr	r2, [r3, #48]	; 0x30
 800082c:	f042 0201 	orr.w	r2, r2, #1
 8000830:	631a      	str	r2, [r3, #48]	; 0x30
 8000832:	6b1b      	ldr	r3, [r3, #48]	; 0x30
 8000834:	f003 0301 	and.w	r3, r3, #1
 8000838:	9302      	str	r3, [sp, #8]
 800083a:	9b02      	ldr	r3, [sp, #8]
 800083c:	220c      	movs	r2, #12
 800083e:	2302      	movs	r3, #2
 8000840:	e9cd 2303 	strd	r2, r3, [sp, #12]
 8000844:	a903      	add	r1, sp, #12
 8000846:	2307      	movs	r3, #7
 8000848:	9307      	str	r3, [sp, #28]
 800084a:	f000 fc93 	bl	8001174 <HAL_GPIO_Init>
 800084e:	b008      	add	sp, #32
 8000850:	bd10      	pop	{r4, pc}
 8000852:	bf00      	nop
 8000854:	40004400 	.word	0x40004400
 8000858:	40020000 	.word	0x40020000

0800085c <NMI_Handler>:
 800085c:	e7fe      	b.n	800085c <NMI_Handler>

0800085e <HardFault_Handler>:
 800085e:	e7fe      	b.n	800085e <HardFault_Handler>

08000860 <MemManage_Handler>:
 8000860:	e7fe      	b.n	8000860 <MemManage_Handler>

08000862 <BusFault_Handler>:
 8000862:	e7fe      	b.n	8000862 <BusFault_Handler>

08000864 <UsageFault_Handler>:
 8000864:	e7fe      	b.n	8000864 <UsageFault_Handler>

08000866 <DebugMon_Handler>:
 8000866:	4770      	bx	lr

08000868 <SysTick_Handler>:
 8000868:	b508      	push	{r3, lr}
 800086a:	f000 fbc9 	bl	8001000 <HAL_IncTick>
 800086e:	f003 ff97 	bl	80047a0 <xTaskGetSchedulerState>
 8000872:	2801      	cmp	r0, #1
 8000874:	d003      	beq.n	800087e <SysTick_Handler+0x16>
 8000876:	e8bd 4008 	ldmia.w	sp!, {r3, lr}
 800087a:	f004 baa3 	b.w	8004dc4 <xPortSysTickHandler>
 800087e:	bd08      	pop	{r3, pc}

08000880 <initialise_monitor_handles>:
 8000880:	4770      	bx	lr

08000882 <_read>:
 8000882:	b570      	push	{r4, r5, r6, lr}
 8000884:	460d      	mov	r5, r1
 8000886:	4614      	mov	r4, r2
 8000888:	460e      	mov	r6, r1
 800088a:	1b73      	subs	r3, r6, r5
 800088c:	429c      	cmp	r4, r3
 800088e:	dc01      	bgt.n	8000894 <_read+0x12>
 8000890:	4620      	mov	r0, r4
 8000892:	bd70      	pop	{r4, r5, r6, pc}
 8000894:	f3af 8000 	nop.w
 8000898:	f806 0b01 	strb.w	r0, [r6], #1
 800089c:	e7f5      	b.n	800088a <_read+0x8>

0800089e <_write>:
 800089e:	b570      	push	{r4, r5, r6, lr}
 80008a0:	460d      	mov	r5, r1
 80008a2:	4614      	mov	r4, r2
 80008a4:	460e      	mov	r6, r1
 80008a6:	1b73      	subs	r3, r6, r5
 80008a8:	429c      	cmp	r4, r3
 80008aa:	dc01      	bgt.n	80008b0 <_write+0x12>
 80008ac:	4620      	mov	r0, r4
 80008ae:	bd70      	pop	{r4, r5, r6, pc}
 80008b0:	f816 0b01 	ldrb.w	r0, [r6], #1
 80008b4:	f3af 8000 	nop.w
 80008b8:	e7f5      	b.n	80008a6 <_write+0x8>

080008ba <_close>:
 80008ba:	f04f 30ff 	mov.w	r0, #4294967295
 80008be:	4770      	bx	lr

080008c0 <_fstat>:
 80008c0:	f44f 5300 	mov.w	r3, #8192	; 0x2000
 80008c4:	604b      	str	r3, [r1, #4]
 80008c6:	2000      	movs	r0, #0
 80008c8:	4770      	bx	lr

080008ca <_isatty>:
 80008ca:	2001      	movs	r0, #1
 80008cc:	4770      	bx	lr

080008ce <_lseek>:
 80008ce:	2000      	movs	r0, #0
 80008d0:	4770      	bx	lr
	...

080008d4 <_sbrk>:
 80008d4:	4a0b      	ldr	r2, [pc, #44]	; (8000904 <_sbrk+0x30>)
 80008d6:	6811      	ldr	r1, [r2, #0]
 80008d8:	b510      	push	{r4, lr}
 80008da:	4603      	mov	r3, r0
 80008dc:	b909      	cbnz	r1, 80008e2 <_sbrk+0xe>
 80008de:	490a      	ldr	r1, [pc, #40]	; (8000908 <_sbrk+0x34>)
 80008e0:	6011      	str	r1, [r2, #0]
 80008e2:	6810      	ldr	r0, [r2, #0]
 80008e4:	4909      	ldr	r1, [pc, #36]	; (800090c <_sbrk+0x38>)
 80008e6:	4c0a      	ldr	r4, [pc, #40]	; (8000910 <_sbrk+0x3c>)
 80008e8:	4403      	add	r3, r0
 80008ea:	1b09      	subs	r1, r1, r4
 80008ec:	428b      	cmp	r3, r1
 80008ee:	d906      	bls.n	80008fe <_sbrk+0x2a>
 80008f0:	f004 fed2 	bl	8005698 <__errno>
 80008f4:	230c      	movs	r3, #12
 80008f6:	6003      	str	r3, [r0, #0]
 80008f8:	f04f 30ff 	mov.w	r0, #4294967295
 80008fc:	bd10      	pop	{r4, pc}
 80008fe:	6013      	str	r3, [r2, #0]
 8000900:	e7fc      	b.n	80008fc <_sbrk+0x28>
 8000902:	bf00      	nop
 8000904:	20000154 	.word	0x20000154
 8000908:	20004cd0 	.word	0x20004cd0
 800090c:	20018000 	.word	0x20018000
 8000910:	00000400 	.word	0x00000400

08000914 <SystemInit>:
 8000914:	4a03      	ldr	r2, [pc, #12]	; (8000924 <SystemInit+0x10>)
 8000916:	f8d2 3088 	ldr.w	r3, [r2, #136]	; 0x88
 800091a:	f443 0370 	orr.w	r3, r3, #15728640	; 0xf00000
 800091e:	f8c2 3088 	str.w	r3, [r2, #136]	; 0x88
 8000922:	4770      	bx	lr
 8000924:	e000ed00 	.word	0xe000ed00

08000928 <Reset_Handler>:
 8000928:	f8df d034 	ldr.w	sp, [pc, #52]	; 8000960 <LoopFillZerobss+0x12>
 800092c:	480d      	ldr	r0, [pc, #52]	; (8000964 <LoopFillZerobss+0x16>)
 800092e:	490e      	ldr	r1, [pc, #56]	; (8000968 <LoopFillZerobss+0x1a>)
 8000930:	4a0e      	ldr	r2, [pc, #56]	; (800096c <LoopFillZerobss+0x1e>)
 8000932:	2300      	movs	r3, #0
 8000934:	e002      	b.n	800093c <LoopCopyDataInit>

08000936 <CopyDataInit>:
 8000936:	58d4      	ldr	r4, [r2, r3]
 8000938:	50c4      	str	r4, [r0, r3]
 800093a:	3304      	adds	r3, #4

0800093c <LoopCopyDataInit>:
 800093c:	18c4      	adds	r4, r0, r3
 800093e:	428c      	cmp	r4, r1
 8000940:	d3f9      	bcc.n	8000936 <CopyDataInit>
 8000942:	4a0b      	ldr	r2, [pc, #44]	; (8000970 <LoopFillZerobss+0x22>)
 8000944:	4c0b      	ldr	r4, [pc, #44]	; (8000974 <LoopFillZerobss+0x26>)
 8000946:	2300      	movs	r3, #0
 8000948:	e001      	b.n	800094e <LoopFillZerobss>

0800094a <FillZerobss>:
 800094a:	6013      	str	r3, [r2, #0]
 800094c:	3204      	adds	r2, #4

0800094e <LoopFillZerobss>:
 800094e:	42a2      	cmp	r2, r4
 8000950:	d3fb      	bcc.n	800094a <FillZerobss>
 8000952:	f7ff ffdf 	bl	8000914 <SystemInit>
 8000956:	f004 fea5 	bl	80056a4 <__libc_init_array>
 800095a:	f7ff fe5f 	bl	800061c <main>
 800095e:	4770      	bx	lr
 8000960:	20018000 	.word	0x20018000
 8000964:	20000000 	.word	0x20000000
 8000968:	20000070 	.word	0x20000070
 800096c:	08006854 	.word	0x08006854
 8000970:	20000070 	.word	0x20000070
 8000974:	20004ccc 	.word	0x20004ccc

08000978 <ADC_IRQHandler>:
 8000978:	e7fe      	b.n	8000978 <ADC_IRQHandler>
	...

0800097c <update_firmware>:
 800097c:	b510      	push	{r4, lr}
 800097e:	2000      	movs	r0, #0
 8000980:	b0aa      	sub	sp, #168	; 0xa8
 8000982:	f000 f8e3 	bl	8000b4c <switch_mode_sda_scl>
 8000986:	2000      	movs	r0, #0
 8000988:	f000 f938 	bl	8000bfc <set_sda>
 800098c:	2000      	movs	r0, #0
 800098e:	f000 f943 	bl	8000c18 <set_scl>
 8000992:	2000      	movs	r0, #0
 8000994:	f000 f92a 	bl	8000bec <set_power>
 8000998:	f44f 707a 	mov.w	r0, #1000	; 0x3e8
 800099c:	f002 fe30 	bl	8003600 <osDelay>
 80009a0:	2001      	movs	r0, #1
 80009a2:	f000 f923 	bl	8000bec <set_power>
 80009a6:	2000      	movs	r0, #0
 80009a8:	f000 f928 	bl	8000bfc <set_sda>
 80009ac:	2001      	movs	r0, #1
 80009ae:	f000 f933 	bl	8000c18 <set_scl>
 80009b2:	f44f 60fa 	mov.w	r0, #2000	; 0x7d0
 80009b6:	f002 fe23 	bl	8003600 <osDelay>
 80009ba:	2001      	movs	r0, #1
 80009bc:	f000 f8c6 	bl	8000b4c <switch_mode_sda_scl>
 80009c0:	f44f 707a 	mov.w	r0, #1000	; 0x3e8
 80009c4:	f002 fe1c 	bl	8003600 <osDelay>
 80009c8:	f000 fa1a 	bl	8000e00 <scan_bus_and_print>
 80009cc:	2036      	movs	r0, #54	; 0x36
 80009ce:	f000 f9fb 	bl	8000dc8 <has_device>
 80009d2:	f010 04ff 	ands.w	r4, r0, #255	; 0xff
 80009d6:	d105      	bne.n	80009e4 <update_firmware+0x68>
 80009d8:	482b      	ldr	r0, [pc, #172]	; (8000a88 <update_firmware+0x10c>)
 80009da:	f004 fcfb 	bl	80053d4 <puts>
 80009de:	4620      	mov	r0, r4
 80009e0:	b02a      	add	sp, #168	; 0xa8
 80009e2:	bd10      	pop	{r4, pc}
 80009e4:	4829      	ldr	r0, [pc, #164]	; (8000a8c <update_firmware+0x110>)
 80009e6:	f004 fcf5 	bl	80053d4 <puts>
 80009ea:	4b29      	ldr	r3, [pc, #164]	; (8000a90 <update_firmware+0x114>)
 80009ec:	9300      	str	r3, [sp, #0]
 80009ee:	2204      	movs	r2, #4
 80009f0:	4669      	mov	r1, sp
 80009f2:	2036      	movs	r0, #54	; 0x36
 80009f4:	f000 f9c6 	bl	8000d84 <i2c_send_data_to_device>
 80009f8:	b920      	cbnz	r0, 8000a04 <update_firmware+0x88>
 80009fa:	4826      	ldr	r0, [pc, #152]	; (8000a94 <update_firmware+0x118>)
 80009fc:	f004 fcea 	bl	80053d4 <puts>
 8000a00:	2400      	movs	r4, #0
 8000a02:	e7ec      	b.n	80009de <update_firmware+0x62>
 8000a04:	4b24      	ldr	r3, [pc, #144]	; (8000a98 <update_firmware+0x11c>)
 8000a06:	9311      	str	r3, [sp, #68]	; 0x44
 8000a08:	2204      	movs	r2, #4
 8000a0a:	a911      	add	r1, sp, #68	; 0x44
 8000a0c:	2036      	movs	r0, #54	; 0x36
 8000a0e:	f000 f9b9 	bl	8000d84 <i2c_send_data_to_device>
 8000a12:	2800      	cmp	r0, #0
 8000a14:	d0f1      	beq.n	80009fa <update_firmware+0x7e>
 8000a16:	4821      	ldr	r0, [pc, #132]	; (8000a9c <update_firmware+0x120>)
 8000a18:	f004 fcdc 	bl	80053d4 <puts>
 8000a1c:	2264      	movs	r2, #100	; 0x64
 8000a1e:	2100      	movs	r1, #0
 8000a20:	a811      	add	r0, sp, #68	; 0x44
 8000a22:	f004 fdeb 	bl	80055fc <memset>
 8000a26:	4a1e      	ldr	r2, [pc, #120]	; (8000aa0 <update_firmware+0x124>)
 8000a28:	4b1e      	ldr	r3, [pc, #120]	; (8000aa4 <update_firmware+0x128>)
 8000a2a:	e9cd 2311 	strd	r2, r3, [sp, #68]	; 0x44
 8000a2e:	f04f 33ff 	mov.w	r3, #4294967295
 8000a32:	2244      	movs	r2, #68	; 0x44
 8000a34:	eb0d 0102 	add.w	r1, sp, r2
 8000a38:	e9cd 3313 	strd	r3, r3, [sp, #76]	; 0x4c
 8000a3c:	e9cd 3315 	strd	r3, r3, [sp, #84]	; 0x54
 8000a40:	e9cd 3317 	strd	r3, r3, [sp, #92]	; 0x5c
 8000a44:	e9cd 3319 	strd	r3, r3, [sp, #100]	; 0x64
 8000a48:	e9cd 331b 	strd	r3, r3, [sp, #108]	; 0x6c
 8000a4c:	e9cd 331d 	strd	r3, r3, [sp, #116]	; 0x74
 8000a50:	e9cd 331f 	strd	r3, r3, [sp, #124]	; 0x7c
 8000a54:	f8ad 3084 	strh.w	r3, [sp, #132]	; 0x84
 8000a58:	2036      	movs	r0, #54	; 0x36
 8000a5a:	f646 1305 	movw	r3, #26885	; 0x6905
 8000a5e:	f8ad 3086 	strh.w	r3, [sp, #134]	; 0x86
 8000a62:	f000 f98f 	bl	8000d84 <i2c_send_data_to_device>
 8000a66:	2242      	movs	r2, #66	; 0x42
 8000a68:	2100      	movs	r1, #0
 8000a6a:	4668      	mov	r0, sp
 8000a6c:	f004 fdc6 	bl	80055fc <memset>
 8000a70:	2342      	movs	r3, #66	; 0x42
 8000a72:	466a      	mov	r2, sp
 8000a74:	f44f 4180 	mov.w	r1, #16384	; 0x4000
 8000a78:	2036      	movs	r0, #54	; 0x36
 8000a7a:	f000 f93f 	bl	8000cfc <i2c_read_data_from_device>
 8000a7e:	480a      	ldr	r0, [pc, #40]	; (8000aa8 <update_firmware+0x12c>)
 8000a80:	f004 fca8 	bl	80053d4 <puts>
 8000a84:	2401      	movs	r4, #1
 8000a86:	e7aa      	b.n	80009de <update_firmware+0x62>
 8000a88:	08006555 	.word	0x08006555
 8000a8c:	0800657d 	.word	0x0800657d
 8000a90:	327601a2 	.word	0x327601a2
 8000a94:	080065a8 	.word	0x080065a8
 8000a98:	514602a2 	.word	0x514602a2
 8000a9c:	080065cf 	.word	0x080065cf
 8000aa0:	00020040 	.word	0x00020040
 8000aa4:	ffff0800 	.word	0xffff0800
 8000aa8:	080065ec 	.word	0x080065ec

08000aac <gpio_start>:
 8000aac:	e92d 41f3 	stmdb	sp!, {r0, r1, r4, r5, r6, r7, r8, lr}
 8000ab0:	4f1f      	ldr	r7, [pc, #124]	; (8000b30 <gpio_start+0x84>)
 8000ab2:	783d      	ldrb	r5, [r7, #0]
 8000ab4:	2d00      	cmp	r5, #0
 8000ab6:	d137      	bne.n	8000b28 <gpio_start+0x7c>
 8000ab8:	4c1e      	ldr	r4, [pc, #120]	; (8000b34 <gpio_start+0x88>)
 8000aba:	9500      	str	r5, [sp, #0]
 8000abc:	6b23      	ldr	r3, [r4, #48]	; 0x30
 8000abe:	491e      	ldr	r1, [pc, #120]	; (8000b38 <gpio_start+0x8c>)
 8000ac0:	481e      	ldr	r0, [pc, #120]	; (8000b3c <gpio_start+0x90>)
 8000ac2:	f043 0304 	orr.w	r3, r3, #4
 8000ac6:	6323      	str	r3, [r4, #48]	; 0x30
 8000ac8:	6b23      	ldr	r3, [r4, #48]	; 0x30
 8000aca:	f003 0304 	and.w	r3, r3, #4
 8000ace:	9300      	str	r3, [sp, #0]
 8000ad0:	2603      	movs	r6, #3
 8000ad2:	9b00      	ldr	r3, [sp, #0]
 8000ad4:	f04f 0802 	mov.w	r8, #2
 8000ad8:	f44f 5300 	mov.w	r3, #8192	; 0x2000
 8000adc:	e9c1 3500 	strd	r3, r5, [r1]
 8000ae0:	e9c1 8602 	strd	r8, r6, [r1, #8]
 8000ae4:	f000 fb46 	bl	8001174 <HAL_GPIO_Init>
 8000ae8:	9501      	str	r5, [sp, #4]
 8000aea:	6b23      	ldr	r3, [r4, #48]	; 0x30
 8000aec:	4914      	ldr	r1, [pc, #80]	; (8000b40 <gpio_start+0x94>)
 8000aee:	4815      	ldr	r0, [pc, #84]	; (8000b44 <gpio_start+0x98>)
 8000af0:	f043 0301 	orr.w	r3, r3, #1
 8000af4:	6323      	str	r3, [r4, #48]	; 0x30
 8000af6:	6b23      	ldr	r3, [r4, #48]	; 0x30
 8000af8:	f003 0301 	and.w	r3, r3, #1
 8000afc:	9301      	str	r3, [sp, #4]
 8000afe:	2401      	movs	r4, #1
 8000b00:	9b01      	ldr	r3, [sp, #4]
 8000b02:	2320      	movs	r3, #32
 8000b04:	e9c1 3400 	strd	r3, r4, [r1]
 8000b08:	e9c1 5602 	strd	r5, r6, [r1, #8]
 8000b0c:	f000 fb32 	bl	8001174 <HAL_GPIO_Init>
 8000b10:	490d      	ldr	r1, [pc, #52]	; (8000b48 <gpio_start+0x9c>)
 8000b12:	480c      	ldr	r0, [pc, #48]	; (8000b44 <gpio_start+0x98>)
 8000b14:	f44f 5380 	mov.w	r3, #4096	; 0x1000
 8000b18:	e9c1 3400 	strd	r3, r4, [r1]
 8000b1c:	e9c1 8602 	strd	r8, r6, [r1, #8]
 8000b20:	f000 fb28 	bl	8001174 <HAL_GPIO_Init>
 8000b24:	703c      	strb	r4, [r7, #0]
 8000b26:	e7fe      	b.n	8000b26 <gpio_start+0x7a>
 8000b28:	2001      	movs	r0, #1
 8000b2a:	b002      	add	sp, #8
 8000b2c:	e8bd 81f0 	ldmia.w	sp!, {r4, r5, r6, r7, r8, pc}
 8000b30:	200001bc 	.word	0x200001bc
 8000b34:	40023800 	.word	0x40023800
 8000b38:	2000016c 	.word	0x2000016c
 8000b3c:	40020800 	.word	0x40020800
 8000b40:	20000158 	.word	0x20000158
 8000b44:	40020000 	.word	0x40020000
 8000b48:	200001a8 	.word	0x200001a8

08000b4c <switch_mode_sda_scl>:
 8000b4c:	b537      	push	{r0, r1, r2, r4, r5, lr}
 8000b4e:	4604      	mov	r4, r0
 8000b50:	b138      	cbz	r0, 8000b62 <switch_mode_sda_scl+0x16>
 8000b52:	2801      	cmp	r0, #1
 8000b54:	d030      	beq.n	8000bb8 <switch_mode_sda_scl+0x6c>
 8000b56:	481d      	ldr	r0, [pc, #116]	; (8000bcc <switch_mode_sda_scl+0x80>)
 8000b58:	f004 fc3c 	bl	80053d4 <puts>
 8000b5c:	2000      	movs	r0, #0
 8000b5e:	b003      	add	sp, #12
 8000b60:	bd30      	pop	{r4, r5, pc}
 8000b62:	481b      	ldr	r0, [pc, #108]	; (8000bd0 <switch_mode_sda_scl+0x84>)
 8000b64:	f004 fc36 	bl	80053d4 <puts>
 8000b68:	2301      	movs	r3, #1
 8000b6a:	491a      	ldr	r1, [pc, #104]	; (8000bd4 <switch_mode_sda_scl+0x88>)
 8000b6c:	4d1a      	ldr	r5, [pc, #104]	; (8000bd8 <switch_mode_sda_scl+0x8c>)
 8000b6e:	604b      	str	r3, [r1, #4]
 8000b70:	606b      	str	r3, [r5, #4]
 8000b72:	4b1a      	ldr	r3, [pc, #104]	; (8000bdc <switch_mode_sda_scl+0x90>)
 8000b74:	481a      	ldr	r0, [pc, #104]	; (8000be0 <switch_mode_sda_scl+0x94>)
 8000b76:	701c      	strb	r4, [r3, #0]
 8000b78:	2300      	movs	r3, #0
 8000b7a:	9301      	str	r3, [sp, #4]
 8000b7c:	4b19      	ldr	r3, [pc, #100]	; (8000be4 <switch_mode_sda_scl+0x98>)
 8000b7e:	6b1a      	ldr	r2, [r3, #48]	; 0x30
 8000b80:	f042 0202 	orr.w	r2, r2, #2
 8000b84:	631a      	str	r2, [r3, #48]	; 0x30
 8000b86:	6b1b      	ldr	r3, [r3, #48]	; 0x30
 8000b88:	f003 0302 	and.w	r3, r3, #2
 8000b8c:	9301      	str	r3, [sp, #4]
 8000b8e:	9b01      	ldr	r3, [sp, #4]
 8000b90:	f44f 7300 	mov.w	r3, #512	; 0x200
 8000b94:	602b      	str	r3, [r5, #0]
 8000b96:	f44f 7380 	mov.w	r3, #256	; 0x100
 8000b9a:	600b      	str	r3, [r1, #0]
 8000b9c:	2401      	movs	r4, #1
 8000b9e:	2303      	movs	r3, #3
 8000ba0:	60cb      	str	r3, [r1, #12]
 8000ba2:	608c      	str	r4, [r1, #8]
 8000ba4:	60eb      	str	r3, [r5, #12]
 8000ba6:	60ac      	str	r4, [r5, #8]
 8000ba8:	f000 fae4 	bl	8001174 <HAL_GPIO_Init>
 8000bac:	480c      	ldr	r0, [pc, #48]	; (8000be0 <switch_mode_sda_scl+0x94>)
 8000bae:	4629      	mov	r1, r5
 8000bb0:	f000 fae0 	bl	8001174 <HAL_GPIO_Init>
 8000bb4:	4620      	mov	r0, r4
 8000bb6:	e7d2      	b.n	8000b5e <switch_mode_sda_scl+0x12>
 8000bb8:	480b      	ldr	r0, [pc, #44]	; (8000be8 <switch_mode_sda_scl+0x9c>)
 8000bba:	f004 fc0b 	bl	80053d4 <puts>
 8000bbe:	4a05      	ldr	r2, [pc, #20]	; (8000bd4 <switch_mode_sda_scl+0x88>)
 8000bc0:	2304      	movs	r3, #4
 8000bc2:	6113      	str	r3, [r2, #16]
 8000bc4:	4a04      	ldr	r2, [pc, #16]	; (8000bd8 <switch_mode_sda_scl+0x8c>)
 8000bc6:	6113      	str	r3, [r2, #16]
 8000bc8:	2312      	movs	r3, #18
 8000bca:	e7ce      	b.n	8000b6a <switch_mode_sda_scl+0x1e>
 8000bcc:	08006625 	.word	0x08006625
 8000bd0:	080065fa 	.word	0x080065fa
 8000bd4:	20000194 	.word	0x20000194
 8000bd8:	20000180 	.word	0x20000180
 8000bdc:	20000004 	.word	0x20000004
 8000be0:	40020400 	.word	0x40020400
 8000be4:	40023800 	.word	0x40023800
 8000be8:	08006610 	.word	0x08006610

08000bec <set_power>:
 8000bec:	4602      	mov	r2, r0
 8000bee:	f44f 5180 	mov.w	r1, #4096	; 0x1000
 8000bf2:	4801      	ldr	r0, [pc, #4]	; (8000bf8 <set_power+0xc>)
 8000bf4:	f000 bb8c 	b.w	8001310 <HAL_GPIO_WritePin>
 8000bf8:	40020000 	.word	0x40020000

08000bfc <set_sda>:
 8000bfc:	4b04      	ldr	r3, [pc, #16]	; (8000c10 <set_sda+0x14>)
 8000bfe:	781b      	ldrb	r3, [r3, #0]
 8000c00:	4602      	mov	r2, r0
 8000c02:	b923      	cbnz	r3, 8000c0e <set_sda+0x12>
 8000c04:	4803      	ldr	r0, [pc, #12]	; (8000c14 <set_sda+0x18>)
 8000c06:	f44f 7180 	mov.w	r1, #256	; 0x100
 8000c0a:	f000 bb81 	b.w	8001310 <HAL_GPIO_WritePin>
 8000c0e:	4770      	bx	lr
 8000c10:	20000004 	.word	0x20000004
 8000c14:	40020400 	.word	0x40020400

08000c18 <set_scl>:
 8000c18:	4b04      	ldr	r3, [pc, #16]	; (8000c2c <set_scl+0x14>)
 8000c1a:	781b      	ldrb	r3, [r3, #0]
 8000c1c:	4602      	mov	r2, r0
 8000c1e:	b923      	cbnz	r3, 8000c2a <set_scl+0x12>
 8000c20:	4803      	ldr	r0, [pc, #12]	; (8000c30 <set_scl+0x18>)
 8000c22:	f44f 7100 	mov.w	r1, #512	; 0x200
 8000c26:	f000 bb73 	b.w	8001310 <HAL_GPIO_WritePin>
 8000c2a:	4770      	bx	lr
 8000c2c:	20000004 	.word	0x20000004
 8000c30:	40020400 	.word	0x40020400

08000c34 <set_green_led>:
 8000c34:	4602      	mov	r2, r0
 8000c36:	2120      	movs	r1, #32
 8000c38:	4801      	ldr	r0, [pc, #4]	; (8000c40 <set_green_led+0xc>)
 8000c3a:	f000 bb69 	b.w	8001310 <HAL_GPIO_WritePin>
 8000c3e:	bf00      	nop
 8000c40:	40020000 	.word	0x40020000

08000c44 <get_current_button_state>:
 8000c44:	4802      	ldr	r0, [pc, #8]	; (8000c50 <get_current_button_state+0xc>)
 8000c46:	f44f 5100 	mov.w	r1, #8192	; 0x2000
 8000c4a:	f000 bb5b 	b.w	8001304 <HAL_GPIO_ReadPin>
 8000c4e:	bf00      	nop
 8000c50:	40020800 	.word	0x40020800

08000c54 <i2c_init>:
 8000c54:	480c      	ldr	r0, [pc, #48]	; (8000c88 <i2c_init+0x34>)
 8000c56:	4b0d      	ldr	r3, [pc, #52]	; (8000c8c <i2c_init+0x38>)
 8000c58:	4a0d      	ldr	r2, [pc, #52]	; (8000c90 <i2c_init+0x3c>)
 8000c5a:	b510      	push	{r4, lr}
 8000c5c:	2400      	movs	r4, #0
 8000c5e:	e9c0 2300 	strd	r2, r3, [r0]
 8000c62:	f44f 4380 	mov.w	r3, #16384	; 0x4000
 8000c66:	e9c0 4402 	strd	r4, r4, [r0, #8]
 8000c6a:	e9c0 3404 	strd	r3, r4, [r0, #16]
 8000c6e:	e9c0 4406 	strd	r4, r4, [r0, #24]
 8000c72:	6204      	str	r4, [r0, #32]
 8000c74:	f000 fc54 	bl	8001520 <HAL_I2C_Init>
 8000c78:	b920      	cbnz	r0, 8000c84 <i2c_init+0x30>
 8000c7a:	2001      	movs	r0, #1
 8000c7c:	f7ff ff66 	bl	8000b4c <switch_mode_sda_scl>
 8000c80:	2001      	movs	r0, #1
 8000c82:	bd10      	pop	{r4, pc}
 8000c84:	4620      	mov	r0, r4
 8000c86:	e7fc      	b.n	8000c82 <i2c_init+0x2e>
 8000c88:	200001c0 	.word	0x200001c0
 8000c8c:	000186a0 	.word	0x000186a0
 8000c90:	40005400 	.word	0x40005400

08000c94 <print_hex>:
 8000c94:	e92d 47f0 	stmdb	sp!, {r4, r5, r6, r7, r8, r9, sl, lr}
 8000c98:	4689      	mov	r9, r1
 8000c9a:	eb02 0142 	add.w	r1, r2, r2, lsl #1
 8000c9e:	4614      	mov	r4, r2
 8000ca0:	f101 022a 	add.w	r2, r1, #42	; 0x2a
 8000ca4:	b082      	sub	sp, #8
 8000ca6:	f022 0207 	bic.w	r2, r2, #7
 8000caa:	af02      	add	r7, sp, #8
 8000cac:	ebad 0d02 	sub.w	sp, sp, r2
 8000cb0:	466d      	mov	r5, sp
 8000cb2:	4603      	mov	r3, r0
 8000cb4:	f845 4b08 	str.w	r4, [r5], #8
 8000cb8:	4a0e      	ldr	r2, [pc, #56]	; (8000cf4 <print_hex+0x60>)
 8000cba:	f8df a03c 	ldr.w	sl, [pc, #60]	; 8000cf8 <print_hex+0x64>
 8000cbe:	3123      	adds	r1, #35	; 0x23
 8000cc0:	4628      	mov	r0, r5
 8000cc2:	f004 fb8f 	bl	80053e4 <sniprintf>
 8000cc6:	f04f 0800 	mov.w	r8, #0
 8000cca:	4606      	mov	r6, r0
 8000ccc:	45a0      	cmp	r8, r4
 8000cce:	db05      	blt.n	8000cdc <print_hex+0x48>
 8000cd0:	4628      	mov	r0, r5
 8000cd2:	f004 fb7f 	bl	80053d4 <puts>
 8000cd6:	46bd      	mov	sp, r7
 8000cd8:	e8bd 87f0 	ldmia.w	sp!, {r4, r5, r6, r7, r8, r9, sl, pc}
 8000cdc:	f819 3008 	ldrb.w	r3, [r9, r8]
 8000ce0:	19a8      	adds	r0, r5, r6
 8000ce2:	4652      	mov	r2, sl
 8000ce4:	2104      	movs	r1, #4
 8000ce6:	f004 fb7d 	bl	80053e4 <sniprintf>
 8000cea:	3603      	adds	r6, #3
 8000cec:	f108 0801 	add.w	r8, r8, #1
 8000cf0:	e7ec      	b.n	8000ccc <print_hex+0x38>
 8000cf2:	bf00      	nop
 8000cf4:	08006644 	.word	0x08006644
 8000cf8:	0800664e 	.word	0x0800664e

08000cfc <i2c_read_data_from_device>:
 8000cfc:	e92d 41ff 	stmdb	sp!, {r0, r1, r2, r3, r4, r5, r6, r7, r8, lr}
 8000d00:	0040      	lsls	r0, r0, #1
 8000d02:	ba49      	rev16	r1, r1
 8000d04:	b285      	uxth	r5, r0
 8000d06:	f04f 38ff 	mov.w	r8, #4294967295
 8000d0a:	f8ad 100c 	strh.w	r1, [sp, #12]
 8000d0e:	4818      	ldr	r0, [pc, #96]	; (8000d70 <i2c_read_data_from_device+0x74>)
 8000d10:	f8cd 8000 	str.w	r8, [sp]
 8000d14:	4616      	mov	r6, r2
 8000d16:	461f      	mov	r7, r3
 8000d18:	aa03      	add	r2, sp, #12
 8000d1a:	2302      	movs	r3, #2
 8000d1c:	4629      	mov	r1, r5
 8000d1e:	f000 fca7 	bl	8001670 <HAL_I2C_Master_Transmit>
 8000d22:	4604      	mov	r4, r0
 8000d24:	b158      	cbz	r0, 8000d3e <i2c_read_data_from_device+0x42>
 8000d26:	f89d 200d 	ldrb.w	r2, [sp, #13]
 8000d2a:	f89d 100c 	ldrb.w	r1, [sp, #12]
 8000d2e:	4811      	ldr	r0, [pc, #68]	; (8000d74 <i2c_read_data_from_device+0x78>)
 8000d30:	f004 fae2 	bl	80052f8 <iprintf>
 8000d34:	2400      	movs	r4, #0
 8000d36:	4620      	mov	r0, r4
 8000d38:	b004      	add	sp, #16
 8000d3a:	e8bd 81f0 	ldmia.w	sp!, {r4, r5, r6, r7, r8, pc}
 8000d3e:	480e      	ldr	r0, [pc, #56]	; (8000d78 <i2c_read_data_from_device+0x7c>)
 8000d40:	2202      	movs	r2, #2
 8000d42:	a903      	add	r1, sp, #12
 8000d44:	f7ff ffa6 	bl	8000c94 <print_hex>
 8000d48:	4809      	ldr	r0, [pc, #36]	; (8000d70 <i2c_read_data_from_device+0x74>)
 8000d4a:	f8cd 8000 	str.w	r8, [sp]
 8000d4e:	463b      	mov	r3, r7
 8000d50:	4632      	mov	r2, r6
 8000d52:	4629      	mov	r1, r5
 8000d54:	f000 fd64 	bl	8001820 <HAL_I2C_Master_Receive>
 8000d58:	b118      	cbz	r0, 8000d62 <i2c_read_data_from_device+0x66>
 8000d5a:	4808      	ldr	r0, [pc, #32]	; (8000d7c <i2c_read_data_from_device+0x80>)
 8000d5c:	f004 fb3a 	bl	80053d4 <puts>
 8000d60:	e7e9      	b.n	8000d36 <i2c_read_data_from_device+0x3a>
 8000d62:	4807      	ldr	r0, [pc, #28]	; (8000d80 <i2c_read_data_from_device+0x84>)
 8000d64:	463a      	mov	r2, r7
 8000d66:	4631      	mov	r1, r6
 8000d68:	f7ff ff94 	bl	8000c94 <print_hex>
 8000d6c:	2401      	movs	r4, #1
 8000d6e:	e7e2      	b.n	8000d36 <i2c_read_data_from_device+0x3a>
 8000d70:	200001c0 	.word	0x200001c0
 8000d74:	08006655 	.word	0x08006655
 8000d78:	0800667f 	.word	0x0800667f
 8000d7c:	0800668a 	.word	0x0800668a
 8000d80:	0800669a 	.word	0x0800669a

08000d84 <i2c_send_data_to_device>:
 8000d84:	b537      	push	{r0, r1, r2, r4, r5, lr}
 8000d86:	f04f 33ff 	mov.w	r3, #4294967295
 8000d8a:	460c      	mov	r4, r1
 8000d8c:	0040      	lsls	r0, r0, #1
 8000d8e:	4615      	mov	r5, r2
 8000d90:	b281      	uxth	r1, r0
 8000d92:	9300      	str	r3, [sp, #0]
 8000d94:	4809      	ldr	r0, [pc, #36]	; (8000dbc <i2c_send_data_to_device+0x38>)
 8000d96:	4613      	mov	r3, r2
 8000d98:	4622      	mov	r2, r4
 8000d9a:	f000 fc69 	bl	8001670 <HAL_I2C_Master_Transmit>
 8000d9e:	b128      	cbz	r0, 8000dac <i2c_send_data_to_device+0x28>
 8000da0:	4807      	ldr	r0, [pc, #28]	; (8000dc0 <i2c_send_data_to_device+0x3c>)
 8000da2:	f004 fb17 	bl	80053d4 <puts>
 8000da6:	2000      	movs	r0, #0
 8000da8:	b003      	add	sp, #12
 8000daa:	bd30      	pop	{r4, r5, pc}
 8000dac:	4805      	ldr	r0, [pc, #20]	; (8000dc4 <i2c_send_data_to_device+0x40>)
 8000dae:	462a      	mov	r2, r5
 8000db0:	4621      	mov	r1, r4
 8000db2:	f7ff ff6f 	bl	8000c94 <print_hex>
 8000db6:	2001      	movs	r0, #1
 8000db8:	e7f6      	b.n	8000da8 <i2c_send_data_to_device+0x24>
 8000dba:	bf00      	nop
 8000dbc:	200001c0 	.word	0x200001c0
 8000dc0:	080066a6 	.word	0x080066a6
 8000dc4:	0800667f 	.word	0x0800667f

08000dc8 <has_device>:
 8000dc8:	0041      	lsls	r1, r0, #1
 8000dca:	b510      	push	{r4, lr}
 8000dcc:	b289      	uxth	r1, r1
 8000dce:	4604      	mov	r4, r0
 8000dd0:	f241 3388 	movw	r3, #5000	; 0x1388
 8000dd4:	4807      	ldr	r0, [pc, #28]	; (8000df4 <has_device+0x2c>)
 8000dd6:	221e      	movs	r2, #30
 8000dd8:	f000 fe92 	bl	8001b00 <HAL_I2C_IsDeviceReady>
 8000ddc:	b928      	cbnz	r0, 8000dea <has_device+0x22>
 8000dde:	4806      	ldr	r0, [pc, #24]	; (8000df8 <has_device+0x30>)
 8000de0:	4621      	mov	r1, r4
 8000de2:	f004 fa89 	bl	80052f8 <iprintf>
 8000de6:	2001      	movs	r0, #1
 8000de8:	bd10      	pop	{r4, pc}
 8000dea:	4804      	ldr	r0, [pc, #16]	; (8000dfc <has_device+0x34>)
 8000dec:	f004 faf2 	bl	80053d4 <puts>
 8000df0:	e7f9      	b.n	8000de6 <has_device+0x1e>
 8000df2:	bf00      	nop
 8000df4:	200001c0 	.word	0x200001c0
 8000df8:	080066c1 	.word	0x080066c1
 8000dfc:	080066d4 	.word	0x080066d4

08000e00 <scan_bus_and_print>:
 8000e00:	b5f8      	push	{r3, r4, r5, r6, r7, lr}
 8000e02:	4814      	ldr	r0, [pc, #80]	; (8000e54 <scan_bus_and_print+0x54>)
 8000e04:	4d14      	ldr	r5, [pc, #80]	; (8000e58 <scan_bus_and_print+0x58>)
 8000e06:	4e15      	ldr	r6, [pc, #84]	; (8000e5c <scan_bus_and_print+0x5c>)
 8000e08:	4f15      	ldr	r7, [pc, #84]	; (8000e60 <scan_bus_and_print+0x60>)
 8000e0a:	f004 fae3 	bl	80053d4 <puts>
 8000e0e:	2400      	movs	r4, #0
 8000e10:	0061      	lsls	r1, r4, #1
 8000e12:	b289      	uxth	r1, r1
 8000e14:	f241 3388 	movw	r3, #5000	; 0x1388
 8000e18:	221e      	movs	r2, #30
 8000e1a:	4628      	mov	r0, r5
 8000e1c:	f000 fe70 	bl	8001b00 <HAL_I2C_IsDeviceReady>
 8000e20:	b9a0      	cbnz	r0, 8000e4c <scan_bus_and_print+0x4c>
 8000e22:	4621      	mov	r1, r4
 8000e24:	4638      	mov	r0, r7
 8000e26:	f004 fa67 	bl	80052f8 <iprintf>
 8000e2a:	4b0e      	ldr	r3, [pc, #56]	; (8000e64 <scan_bus_and_print+0x64>)
 8000e2c:	4a0e      	ldr	r2, [pc, #56]	; (8000e68 <scan_bus_and_print+0x68>)
 8000e2e:	4363      	muls	r3, r4
 8000e30:	ebb2 0fb3 	cmp.w	r2, r3, ror #2
 8000e34:	d302      	bcc.n	8000e3c <scan_bus_and_print+0x3c>
 8000e36:	200a      	movs	r0, #10
 8000e38:	f004 fa70 	bl	800531c <putchar>
 8000e3c:	3401      	adds	r4, #1
 8000e3e:	2c80      	cmp	r4, #128	; 0x80
 8000e40:	d1e6      	bne.n	8000e10 <scan_bus_and_print+0x10>
 8000e42:	e8bd 40f8 	ldmia.w	sp!, {r3, r4, r5, r6, r7, lr}
 8000e46:	4809      	ldr	r0, [pc, #36]	; (8000e6c <scan_bus_and_print+0x6c>)
 8000e48:	f004 bac4 	b.w	80053d4 <puts>
 8000e4c:	4630      	mov	r0, r6
 8000e4e:	f004 fa53 	bl	80052f8 <iprintf>
 8000e52:	e7ea      	b.n	8000e2a <scan_bus_and_print+0x2a>
 8000e54:	080066e9 	.word	0x080066e9
 8000e58:	200001c0 	.word	0x200001c0
 8000e5c:	0800670c 	.word	0x0800670c
 8000e60:	08006704 	.word	0x08006704
 8000e64:	aaaaaaab 	.word	0xaaaaaaab
 8000e68:	15555555 	.word	0x15555555
 8000e6c:	08006712 	.word	0x08006712

08000e70 <start_indication>:
 8000e70:	b508      	push	{r3, lr}
 8000e72:	4d09      	ldr	r5, [pc, #36]	; (8000e98 <start_indication+0x28>)
 8000e74:	4c09      	ldr	r4, [pc, #36]	; (8000e9c <start_indication+0x2c>)
 8000e76:	2600      	movs	r6, #0
 8000e78:	782b      	ldrb	r3, [r5, #0]
 8000e7a:	2b01      	cmp	r3, #1
 8000e7c:	d1fd      	bne.n	8000e7a <start_indication+0xa>
 8000e7e:	7820      	ldrb	r0, [r4, #0]
 8000e80:	b930      	cbnz	r0, 8000e90 <start_indication+0x20>
 8000e82:	7023      	strb	r3, [r4, #0]
 8000e84:	f7ff fed6 	bl	8000c34 <set_green_led>
 8000e88:	2032      	movs	r0, #50	; 0x32
 8000e8a:	f002 fbb9 	bl	8003600 <osDelay>
 8000e8e:	e7f3      	b.n	8000e78 <start_indication+0x8>
 8000e90:	7026      	strb	r6, [r4, #0]
 8000e92:	4618      	mov	r0, r3
 8000e94:	e7f6      	b.n	8000e84 <start_indication+0x14>
 8000e96:	bf00      	nop
 8000e98:	20000214 	.word	0x20000214
 8000e9c:	20000215 	.word	0x20000215

08000ea0 <set_indication_task>:
 8000ea0:	b510      	push	{r4, lr}
 8000ea2:	4b04      	ldr	r3, [pc, #16]	; (8000eb4 <set_indication_task+0x14>)
 8000ea4:	4604      	mov	r4, r0
 8000ea6:	2000      	movs	r0, #0
 8000ea8:	7018      	strb	r0, [r3, #0]
 8000eaa:	f7ff fec3 	bl	8000c34 <set_green_led>
 8000eae:	4b02      	ldr	r3, [pc, #8]	; (8000eb8 <set_indication_task+0x18>)
 8000eb0:	701c      	strb	r4, [r3, #0]
 8000eb2:	bd10      	pop	{r4, pc}
 8000eb4:	20000215 	.word	0x20000215
 8000eb8:	20000214 	.word	0x20000214

08000ebc <init_ind_task>:
 8000ebc:	2000      	movs	r0, #0
 8000ebe:	f7ff bfd7 	b.w	8000e70 <start_indication>
	...

08000ec4 <init_i2c_task>:
 8000ec4:	b508      	push	{r3, lr}
 8000ec6:	2001      	movs	r0, #1
 8000ec8:	f7ff fe90 	bl	8000bec <set_power>
 8000ecc:	f44f 707a 	mov.w	r0, #1000	; 0x3e8
 8000ed0:	f002 fb96 	bl	8003600 <osDelay>
 8000ed4:	4d0b      	ldr	r5, [pc, #44]	; (8000f04 <init_i2c_task+0x40>)
 8000ed6:	2601      	movs	r6, #1
 8000ed8:	2064      	movs	r0, #100	; 0x64
 8000eda:	f002 fb91 	bl	8003600 <osDelay>
 8000ede:	f7ff feb1 	bl	8000c44 <get_current_button_state>
 8000ee2:	782b      	ldrb	r3, [r5, #0]
 8000ee4:	4318      	orrs	r0, r3
 8000ee6:	f010 04ff 	ands.w	r4, r0, #255	; 0xff
 8000eea:	d1f5      	bne.n	8000ed8 <init_i2c_task+0x14>
 8000eec:	2001      	movs	r0, #1
 8000eee:	702e      	strb	r6, [r5, #0]
 8000ef0:	f7ff ffd6 	bl	8000ea0 <set_indication_task>
 8000ef4:	f7ff fd42 	bl	800097c <update_firmware>
 8000ef8:	4620      	mov	r0, r4
 8000efa:	702c      	strb	r4, [r5, #0]
 8000efc:	f7ff ffd0 	bl	8000ea0 <set_indication_task>
 8000f00:	e7ea      	b.n	8000ed8 <init_i2c_task+0x14>
 8000f02:	bf00      	nop
 8000f04:	20000216 	.word	0x20000216

08000f08 <init_gpio_task>:
 8000f08:	f7ff bdd0 	b.w	8000aac <gpio_start>

08000f0c <init_tasks>:
 8000f0c:	b510      	push	{r4, lr}
 8000f0e:	f002 faed 	bl	80034ec <osKernelInitialize>
 8000f12:	4a13      	ldr	r2, [pc, #76]	; (8000f60 <init_tasks+0x54>)
 8000f14:	4813      	ldr	r0, [pc, #76]	; (8000f64 <init_tasks+0x58>)
 8000f16:	2100      	movs	r1, #0
 8000f18:	f002 fb2b 	bl	8003572 <osThreadNew>
 8000f1c:	b9e8      	cbnz	r0, 8000f5a <init_tasks+0x4e>
 8000f1e:	4812      	ldr	r0, [pc, #72]	; (8000f68 <init_tasks+0x5c>)
 8000f20:	f004 fa58 	bl	80053d4 <puts>
 8000f24:	2401      	movs	r4, #1
 8000f26:	4a11      	ldr	r2, [pc, #68]	; (8000f6c <init_tasks+0x60>)
 8000f28:	4811      	ldr	r0, [pc, #68]	; (8000f70 <init_tasks+0x64>)
 8000f2a:	2100      	movs	r1, #0
 8000f2c:	f002 fb21 	bl	8003572 <osThreadNew>
 8000f30:	b920      	cbnz	r0, 8000f3c <init_tasks+0x30>
 8000f32:	4810      	ldr	r0, [pc, #64]	; (8000f74 <init_tasks+0x68>)
 8000f34:	f004 fa4e 	bl	80053d4 <puts>
 8000f38:	3401      	adds	r4, #1
 8000f3a:	b2e4      	uxtb	r4, r4
 8000f3c:	4a0e      	ldr	r2, [pc, #56]	; (8000f78 <init_tasks+0x6c>)
 8000f3e:	480f      	ldr	r0, [pc, #60]	; (8000f7c <init_tasks+0x70>)
 8000f40:	2100      	movs	r1, #0
 8000f42:	f002 fb16 	bl	8003572 <osThreadNew>
 8000f46:	b920      	cbnz	r0, 8000f52 <init_tasks+0x46>
 8000f48:	480d      	ldr	r0, [pc, #52]	; (8000f80 <init_tasks+0x74>)
 8000f4a:	f004 fa43 	bl	80053d4 <puts>
 8000f4e:	3401      	adds	r4, #1
 8000f50:	b2e4      	uxtb	r4, r4
 8000f52:	fab4 f084 	clz	r0, r4
 8000f56:	0940      	lsrs	r0, r0, #5
 8000f58:	bd10      	pop	{r4, pc}
 8000f5a:	2400      	movs	r4, #0
 8000f5c:	e7e3      	b.n	8000f26 <init_tasks+0x1a>
 8000f5e:	bf00      	nop
 8000f60:	0800677c 	.word	0x0800677c
 8000f64:	08000f09 	.word	0x08000f09
 8000f68:	08006722 	.word	0x08006722
 8000f6c:	080067a0 	.word	0x080067a0
 8000f70:	08000ec5 	.word	0x08000ec5
 8000f74:	08006737 	.word	0x08006737
 8000f78:	080067c4 	.word	0x080067c4
 8000f7c:	08000ebd 	.word	0x08000ebd
 8000f80:	0800674b 	.word	0x0800674b

08000f84 <HAL_InitTick>:
 8000f84:	b538      	push	{r3, r4, r5, lr}
 8000f86:	4b0e      	ldr	r3, [pc, #56]	; (8000fc0 <HAL_InitTick+0x3c>)
 8000f88:	781a      	ldrb	r2, [r3, #0]
 8000f8a:	f44f 737a 	mov.w	r3, #1000	; 0x3e8
 8000f8e:	fbb3 f3f2 	udiv	r3, r3, r2
 8000f92:	4a0c      	ldr	r2, [pc, #48]	; (8000fc4 <HAL_InitTick+0x40>)
 8000f94:	4605      	mov	r5, r0
 8000f96:	6810      	ldr	r0, [r2, #0]
 8000f98:	fbb0 f0f3 	udiv	r0, r0, r3
 8000f9c:	f000 f89a 	bl	80010d4 <HAL_SYSTICK_Config>
 8000fa0:	4604      	mov	r4, r0
 8000fa2:	b958      	cbnz	r0, 8000fbc <HAL_InitTick+0x38>
 8000fa4:	2d0f      	cmp	r5, #15
 8000fa6:	d809      	bhi.n	8000fbc <HAL_InitTick+0x38>
 8000fa8:	4602      	mov	r2, r0
 8000faa:	4629      	mov	r1, r5
 8000fac:	f04f 30ff 	mov.w	r0, #4294967295
 8000fb0:	f000 f85e 	bl	8001070 <HAL_NVIC_SetPriority>
 8000fb4:	4b04      	ldr	r3, [pc, #16]	; (8000fc8 <HAL_InitTick+0x44>)
 8000fb6:	4620      	mov	r0, r4
 8000fb8:	601d      	str	r5, [r3, #0]
 8000fba:	bd38      	pop	{r3, r4, r5, pc}
 8000fbc:	2001      	movs	r0, #1
 8000fbe:	e7fc      	b.n	8000fba <HAL_InitTick+0x36>
 8000fc0:	20000005 	.word	0x20000005
 8000fc4:	20000000 	.word	0x20000000
 8000fc8:	20000008 	.word	0x20000008

08000fcc <HAL_Init>:
 8000fcc:	b508      	push	{r3, lr}
 8000fce:	4b0b      	ldr	r3, [pc, #44]	; (8000ffc <HAL_Init+0x30>)
 8000fd0:	681a      	ldr	r2, [r3, #0]
 8000fd2:	f442 7200 	orr.w	r2, r2, #512	; 0x200
 8000fd6:	601a      	str	r2, [r3, #0]
 8000fd8:	681a      	ldr	r2, [r3, #0]
 8000fda:	f442 6280 	orr.w	r2, r2, #1024	; 0x400
 8000fde:	601a      	str	r2, [r3, #0]
 8000fe0:	681a      	ldr	r2, [r3, #0]
 8000fe2:	f442 7280 	orr.w	r2, r2, #256	; 0x100
 8000fe6:	601a      	str	r2, [r3, #0]
 8000fe8:	2003      	movs	r0, #3
 8000fea:	f000 f82f 	bl	800104c <HAL_NVIC_SetPriorityGrouping>
 8000fee:	200f      	movs	r0, #15
 8000ff0:	f7ff ffc8 	bl	8000f84 <HAL_InitTick>
 8000ff4:	f7ff fb5a 	bl	80006ac <HAL_MspInit>
 8000ff8:	2000      	movs	r0, #0
 8000ffa:	bd08      	pop	{r3, pc}
 8000ffc:	40023c00 	.word	0x40023c00

08001000 <HAL_IncTick>:
 8001000:	4a03      	ldr	r2, [pc, #12]	; (8001010 <HAL_IncTick+0x10>)
 8001002:	4b04      	ldr	r3, [pc, #16]	; (8001014 <HAL_IncTick+0x14>)
 8001004:	6811      	ldr	r1, [r2, #0]
 8001006:	781b      	ldrb	r3, [r3, #0]
 8001008:	440b      	add	r3, r1
 800100a:	6013      	str	r3, [r2, #0]
 800100c:	4770      	bx	lr
 800100e:	bf00      	nop
 8001010:	20000218 	.word	0x20000218
 8001014:	20000005 	.word	0x20000005

08001018 <HAL_GetTick>:
 8001018:	4b01      	ldr	r3, [pc, #4]	; (8001020 <HAL_GetTick+0x8>)
 800101a:	6818      	ldr	r0, [r3, #0]
 800101c:	4770      	bx	lr
 800101e:	bf00      	nop
 8001020:	20000218 	.word	0x20000218

08001024 <HAL_Delay>:
 8001024:	b538      	push	{r3, r4, r5, lr}
 8001026:	4604      	mov	r4, r0
 8001028:	f7ff fff6 	bl	8001018 <HAL_GetTick>
 800102c:	1c63      	adds	r3, r4, #1
 800102e:	bf1c      	itt	ne
 8001030:	4b05      	ldrne	r3, [pc, #20]	; (8001048 <HAL_Delay+0x24>)
 8001032:	781b      	ldrbne	r3, [r3, #0]
 8001034:	4605      	mov	r5, r0
 8001036:	bf18      	it	ne
 8001038:	18e4      	addne	r4, r4, r3
 800103a:	f7ff ffed 	bl	8001018 <HAL_GetTick>
 800103e:	1b43      	subs	r3, r0, r5
 8001040:	42a3      	cmp	r3, r4
 8001042:	d3fa      	bcc.n	800103a <HAL_Delay+0x16>
 8001044:	bd38      	pop	{r3, r4, r5, pc}
 8001046:	bf00      	nop
 8001048:	20000005 	.word	0x20000005

0800104c <HAL_NVIC_SetPriorityGrouping>:
 800104c:	4907      	ldr	r1, [pc, #28]	; (800106c <HAL_NVIC_SetPriorityGrouping+0x20>)
 800104e:	68ca      	ldr	r2, [r1, #12]
 8001050:	f422 62e0 	bic.w	r2, r2, #1792	; 0x700
 8001054:	0203      	lsls	r3, r0, #8
 8001056:	0412      	lsls	r2, r2, #16
 8001058:	f403 63e0 	and.w	r3, r3, #1792	; 0x700
 800105c:	0c12      	lsrs	r2, r2, #16
 800105e:	4313      	orrs	r3, r2
 8001060:	f043 63bf 	orr.w	r3, r3, #100139008	; 0x5f80000
 8001064:	f443 3300 	orr.w	r3, r3, #131072	; 0x20000
 8001068:	60cb      	str	r3, [r1, #12]
 800106a:	4770      	bx	lr
 800106c:	e000ed00 	.word	0xe000ed00

08001070 <HAL_NVIC_SetPriority>:
 8001070:	4b16      	ldr	r3, [pc, #88]	; (80010cc <HAL_NVIC_SetPriority+0x5c>)
 8001072:	b530      	push	{r4, r5, lr}
 8001074:	68dc      	ldr	r4, [r3, #12]
 8001076:	f3c4 2402 	ubfx	r4, r4, #8, #3
 800107a:	f1c4 0307 	rsb	r3, r4, #7
 800107e:	1d25      	adds	r5, r4, #4
 8001080:	2b04      	cmp	r3, #4
 8001082:	bf28      	it	cs
 8001084:	2304      	movcs	r3, #4
 8001086:	2d06      	cmp	r5, #6
 8001088:	f04f 35ff 	mov.w	r5, #4294967295
 800108c:	bf8c      	ite	hi
 800108e:	3c03      	subhi	r4, #3
 8001090:	2400      	movls	r4, #0
 8001092:	fa05 f303 	lsl.w	r3, r5, r3
 8001096:	ea21 0303 	bic.w	r3, r1, r3
 800109a:	40a5      	lsls	r5, r4
 800109c:	ea22 0205 	bic.w	r2, r2, r5
 80010a0:	40a3      	lsls	r3, r4
 80010a2:	2800      	cmp	r0, #0
 80010a4:	ea43 0302 	orr.w	r3, r3, r2
 80010a8:	bfac      	ite	ge
 80010aa:	f100 4060 	addge.w	r0, r0, #3758096384	; 0xe0000000
 80010ae:	4a08      	ldrlt	r2, [pc, #32]	; (80010d0 <HAL_NVIC_SetPriority+0x60>)
 80010b0:	ea4f 1303 	mov.w	r3, r3, lsl #4
 80010b4:	bfb8      	it	lt
 80010b6:	f000 000f 	andlt.w	r0, r0, #15
 80010ba:	b2db      	uxtb	r3, r3
 80010bc:	bfaa      	itet	ge
 80010be:	f500 4061 	addge.w	r0, r0, #57600	; 0xe100
 80010c2:	5413      	strblt	r3, [r2, r0]
 80010c4:	f880 3300 	strbge.w	r3, [r0, #768]	; 0x300
 80010c8:	bd30      	pop	{r4, r5, pc}
 80010ca:	bf00      	nop
 80010cc:	e000ed00 	.word	0xe000ed00
 80010d0:	e000ed14 	.word	0xe000ed14

080010d4 <HAL_SYSTICK_Config>:
 80010d4:	3801      	subs	r0, #1
 80010d6:	f1b0 7f80 	cmp.w	r0, #16777216	; 0x1000000
 80010da:	d20b      	bcs.n	80010f4 <HAL_SYSTICK_Config+0x20>
 80010dc:	f04f 23e0 	mov.w	r3, #3758153728	; 0xe000e000
 80010e0:	4a05      	ldr	r2, [pc, #20]	; (80010f8 <HAL_SYSTICK_Config+0x24>)
 80010e2:	6158      	str	r0, [r3, #20]
 80010e4:	21f0      	movs	r1, #240	; 0xf0
 80010e6:	f882 1023 	strb.w	r1, [r2, #35]	; 0x23
 80010ea:	2000      	movs	r0, #0
 80010ec:	2207      	movs	r2, #7
 80010ee:	6198      	str	r0, [r3, #24]
 80010f0:	611a      	str	r2, [r3, #16]
 80010f2:	4770      	bx	lr
 80010f4:	2001      	movs	r0, #1
 80010f6:	4770      	bx	lr
 80010f8:	e000ed00 	.word	0xe000ed00

080010fc <HAL_DMA_Start_IT>:
 80010fc:	b570      	push	{r4, r5, r6, lr}
 80010fe:	f890 4034 	ldrb.w	r4, [r0, #52]	; 0x34
 8001102:	6d86      	ldr	r6, [r0, #88]	; 0x58
 8001104:	2c01      	cmp	r4, #1
 8001106:	d031      	beq.n	800116c <HAL_DMA_Start_IT+0x70>
 8001108:	2401      	movs	r4, #1
 800110a:	f880 4034 	strb.w	r4, [r0, #52]	; 0x34
 800110e:	f890 4035 	ldrb.w	r4, [r0, #53]	; 0x35
 8001112:	2c01      	cmp	r4, #1
 8001114:	f04f 0500 	mov.w	r5, #0
 8001118:	f04f 0402 	mov.w	r4, #2
 800111c:	d124      	bne.n	8001168 <HAL_DMA_Start_IT+0x6c>
 800111e:	f880 4035 	strb.w	r4, [r0, #53]	; 0x35
 8001122:	6804      	ldr	r4, [r0, #0]
 8001124:	6545      	str	r5, [r0, #84]	; 0x54
 8001126:	6825      	ldr	r5, [r4, #0]
 8001128:	f425 2580 	bic.w	r5, r5, #262144	; 0x40000
 800112c:	6025      	str	r5, [r4, #0]
 800112e:	6063      	str	r3, [r4, #4]
 8001130:	6883      	ldr	r3, [r0, #8]
 8001132:	2b40      	cmp	r3, #64	; 0x40
 8001134:	bf0e      	itee	eq
 8001136:	60a2      	streq	r2, [r4, #8]
 8001138:	60a1      	strne	r1, [r4, #8]
 800113a:	60e2      	strne	r2, [r4, #12]
 800113c:	6dc2      	ldr	r2, [r0, #92]	; 0x5c
 800113e:	bf08      	it	eq
 8001140:	60e1      	streq	r1, [r4, #12]
 8001142:	233f      	movs	r3, #63	; 0x3f
 8001144:	4093      	lsls	r3, r2
 8001146:	60b3      	str	r3, [r6, #8]
 8001148:	6823      	ldr	r3, [r4, #0]
 800114a:	f043 0316 	orr.w	r3, r3, #22
 800114e:	6023      	str	r3, [r4, #0]
 8001150:	6c03      	ldr	r3, [r0, #64]	; 0x40
 8001152:	b11b      	cbz	r3, 800115c <HAL_DMA_Start_IT+0x60>
 8001154:	6823      	ldr	r3, [r4, #0]
 8001156:	f043 0308 	orr.w	r3, r3, #8
 800115a:	6023      	str	r3, [r4, #0]
 800115c:	6823      	ldr	r3, [r4, #0]
 800115e:	f043 0301 	orr.w	r3, r3, #1
 8001162:	6023      	str	r3, [r4, #0]
 8001164:	2000      	movs	r0, #0
 8001166:	bd70      	pop	{r4, r5, r6, pc}
 8001168:	f880 5034 	strb.w	r5, [r0, #52]	; 0x34
 800116c:	2002      	movs	r0, #2
 800116e:	e7fa      	b.n	8001166 <HAL_DMA_Start_IT+0x6a>

08001170 <HAL_DMA_GetError>:
 8001170:	6d40      	ldr	r0, [r0, #84]	; 0x54
 8001172:	4770      	bx	lr

08001174 <HAL_GPIO_Init>:
 8001174:	e92d 4ff7 	stmdb	sp!, {r0, r1, r2, r4, r5, r6, r7, r8, r9, sl, fp, lr}
 8001178:	f8df 9184 	ldr.w	r9, [pc, #388]	; 8001300 <HAL_GPIO_Init+0x18c>
 800117c:	4a5e      	ldr	r2, [pc, #376]	; (80012f8 <HAL_GPIO_Init+0x184>)
 800117e:	2300      	movs	r3, #0
 8001180:	680d      	ldr	r5, [r1, #0]
 8001182:	2401      	movs	r4, #1
 8001184:	409c      	lsls	r4, r3
 8001186:	ea04 0c05 	and.w	ip, r4, r5
 800118a:	43ac      	bics	r4, r5
 800118c:	f040 80a5 	bne.w	80012da <HAL_GPIO_Init+0x166>
 8001190:	684d      	ldr	r5, [r1, #4]
 8001192:	f005 0403 	and.w	r4, r5, #3
 8001196:	ea4f 0843 	mov.w	r8, r3, lsl #1
 800119a:	2603      	movs	r6, #3
 800119c:	1e67      	subs	r7, r4, #1
 800119e:	fa06 f608 	lsl.w	r6, r6, r8
 80011a2:	2f01      	cmp	r7, #1
 80011a4:	ea6f 0606 	mvn.w	r6, r6
 80011a8:	d834      	bhi.n	8001214 <HAL_GPIO_Init+0xa0>
 80011aa:	6887      	ldr	r7, [r0, #8]
 80011ac:	ea07 0e06 	and.w	lr, r7, r6
 80011b0:	68cf      	ldr	r7, [r1, #12]
 80011b2:	fa07 f708 	lsl.w	r7, r7, r8
 80011b6:	ea47 070e 	orr.w	r7, r7, lr
 80011ba:	6087      	str	r7, [r0, #8]
 80011bc:	6847      	ldr	r7, [r0, #4]
 80011be:	ea27 0e0c 	bic.w	lr, r7, ip
 80011c2:	f3c5 1700 	ubfx	r7, r5, #4, #1
 80011c6:	409f      	lsls	r7, r3
 80011c8:	ea47 070e 	orr.w	r7, r7, lr
 80011cc:	6047      	str	r7, [r0, #4]
 80011ce:	68c7      	ldr	r7, [r0, #12]
 80011d0:	ea07 0e06 	and.w	lr, r7, r6
 80011d4:	688f      	ldr	r7, [r1, #8]
 80011d6:	fa07 f708 	lsl.w	r7, r7, r8
 80011da:	ea47 070e 	orr.w	r7, r7, lr
 80011de:	2c02      	cmp	r4, #2
 80011e0:	60c7      	str	r7, [r0, #12]
 80011e2:	d119      	bne.n	8001218 <HAL_GPIO_Init+0xa4>
 80011e4:	ea4f 0ad3 	mov.w	sl, r3, lsr #3
 80011e8:	eb00 0a8a 	add.w	sl, r0, sl, lsl #2
 80011ec:	f003 0b07 	and.w	fp, r3, #7
 80011f0:	f8da 7020 	ldr.w	r7, [sl, #32]
 80011f4:	ea4f 0b8b 	mov.w	fp, fp, lsl #2
 80011f8:	f04f 0e0f 	mov.w	lr, #15
 80011fc:	fa0e fe0b 	lsl.w	lr, lr, fp
 8001200:	ea27 0e0e 	bic.w	lr, r7, lr
 8001204:	690f      	ldr	r7, [r1, #16]
 8001206:	fa07 f70b 	lsl.w	r7, r7, fp
 800120a:	ea47 070e 	orr.w	r7, r7, lr
 800120e:	f8ca 7020 	str.w	r7, [sl, #32]
 8001212:	e001      	b.n	8001218 <HAL_GPIO_Init+0xa4>
 8001214:	2c03      	cmp	r4, #3
 8001216:	d1da      	bne.n	80011ce <HAL_GPIO_Init+0x5a>
 8001218:	6807      	ldr	r7, [r0, #0]
 800121a:	fa04 f408 	lsl.w	r4, r4, r8
 800121e:	4037      	ands	r7, r6
 8001220:	433c      	orrs	r4, r7
 8001222:	f415 3f40 	tst.w	r5, #196608	; 0x30000
 8001226:	6004      	str	r4, [r0, #0]
 8001228:	d057      	beq.n	80012da <HAL_GPIO_Init+0x166>
 800122a:	f04f 0a00 	mov.w	sl, #0
 800122e:	f8cd a004 	str.w	sl, [sp, #4]
 8001232:	f8d9 6044 	ldr.w	r6, [r9, #68]	; 0x44
 8001236:	4c31      	ldr	r4, [pc, #196]	; (80012fc <HAL_GPIO_Init+0x188>)
 8001238:	f446 4680 	orr.w	r6, r6, #16384	; 0x4000
 800123c:	f8c9 6044 	str.w	r6, [r9, #68]	; 0x44
 8001240:	f8d9 6044 	ldr.w	r6, [r9, #68]	; 0x44
 8001244:	f406 4680 	and.w	r6, r6, #16384	; 0x4000
 8001248:	9601      	str	r6, [sp, #4]
 800124a:	9e01      	ldr	r6, [sp, #4]
 800124c:	f023 0603 	bic.w	r6, r3, #3
 8001250:	f106 4680 	add.w	r6, r6, #1073741824	; 0x40000000
 8001254:	f506 369c 	add.w	r6, r6, #79872	; 0x13800
 8001258:	f003 0e03 	and.w	lr, r3, #3
 800125c:	f8d6 8008 	ldr.w	r8, [r6, #8]
 8001260:	ea4f 0e8e 	mov.w	lr, lr, lsl #2
 8001264:	270f      	movs	r7, #15
 8001266:	fa07 f70e 	lsl.w	r7, r7, lr
 800126a:	42a0      	cmp	r0, r4
 800126c:	ea28 0707 	bic.w	r7, r8, r7
 8001270:	d03a      	beq.n	80012e8 <HAL_GPIO_Init+0x174>
 8001272:	f504 6480 	add.w	r4, r4, #1024	; 0x400
 8001276:	42a0      	cmp	r0, r4
 8001278:	d038      	beq.n	80012ec <HAL_GPIO_Init+0x178>
 800127a:	f504 6480 	add.w	r4, r4, #1024	; 0x400
 800127e:	42a0      	cmp	r0, r4
 8001280:	d036      	beq.n	80012f0 <HAL_GPIO_Init+0x17c>
 8001282:	f504 6480 	add.w	r4, r4, #1024	; 0x400
 8001286:	42a0      	cmp	r0, r4
 8001288:	d034      	beq.n	80012f4 <HAL_GPIO_Init+0x180>
 800128a:	f504 6480 	add.w	r4, r4, #1024	; 0x400
 800128e:	42a0      	cmp	r0, r4
 8001290:	bf0c      	ite	eq
 8001292:	2404      	moveq	r4, #4
 8001294:	2407      	movne	r4, #7
 8001296:	fa04 f40e 	lsl.w	r4, r4, lr
 800129a:	433c      	orrs	r4, r7
 800129c:	60b4      	str	r4, [r6, #8]
 800129e:	6894      	ldr	r4, [r2, #8]
 80012a0:	ea6f 060c 	mvn.w	r6, ip
 80012a4:	02ef      	lsls	r7, r5, #11
 80012a6:	bf54      	ite	pl
 80012a8:	4034      	andpl	r4, r6
 80012aa:	ea4c 0404 	orrmi.w	r4, ip, r4
 80012ae:	6094      	str	r4, [r2, #8]
 80012b0:	68d4      	ldr	r4, [r2, #12]
 80012b2:	02af      	lsls	r7, r5, #10
 80012b4:	bf54      	ite	pl
 80012b6:	4034      	andpl	r4, r6
 80012b8:	ea4c 0404 	orrmi.w	r4, ip, r4
 80012bc:	60d4      	str	r4, [r2, #12]
 80012be:	6854      	ldr	r4, [r2, #4]
 80012c0:	03af      	lsls	r7, r5, #14
 80012c2:	bf54      	ite	pl
 80012c4:	4034      	andpl	r4, r6
 80012c6:	ea4c 0404 	orrmi.w	r4, ip, r4
 80012ca:	6054      	str	r4, [r2, #4]
 80012cc:	6814      	ldr	r4, [r2, #0]
 80012ce:	03ed      	lsls	r5, r5, #15
 80012d0:	bf54      	ite	pl
 80012d2:	4034      	andpl	r4, r6
 80012d4:	ea4c 0404 	orrmi.w	r4, ip, r4
 80012d8:	6014      	str	r4, [r2, #0]
 80012da:	3301      	adds	r3, #1
 80012dc:	2b10      	cmp	r3, #16
 80012de:	f47f af4f 	bne.w	8001180 <HAL_GPIO_Init+0xc>
 80012e2:	b003      	add	sp, #12
 80012e4:	e8bd 8ff0 	ldmia.w	sp!, {r4, r5, r6, r7, r8, r9, sl, fp, pc}
 80012e8:	4654      	mov	r4, sl
 80012ea:	e7d4      	b.n	8001296 <HAL_GPIO_Init+0x122>
 80012ec:	2401      	movs	r4, #1
 80012ee:	e7d2      	b.n	8001296 <HAL_GPIO_Init+0x122>
 80012f0:	2402      	movs	r4, #2
 80012f2:	e7d0      	b.n	8001296 <HAL_GPIO_Init+0x122>
 80012f4:	2403      	movs	r4, #3
 80012f6:	e7ce      	b.n	8001296 <HAL_GPIO_Init+0x122>
 80012f8:	40013c00 	.word	0x40013c00
 80012fc:	40020000 	.word	0x40020000
 8001300:	40023800 	.word	0x40023800

08001304 <HAL_GPIO_ReadPin>:
 8001304:	6903      	ldr	r3, [r0, #16]
 8001306:	4219      	tst	r1, r3
 8001308:	bf14      	ite	ne
 800130a:	2001      	movne	r0, #1
 800130c:	2000      	moveq	r0, #0
 800130e:	4770      	bx	lr

08001310 <HAL_GPIO_WritePin>:
 8001310:	b10a      	cbz	r2, 8001316 <HAL_GPIO_WritePin+0x6>
 8001312:	6181      	str	r1, [r0, #24]
 8001314:	4770      	bx	lr
 8001316:	0409      	lsls	r1, r1, #16
 8001318:	e7fb      	b.n	8001312 <HAL_GPIO_WritePin+0x2>

0800131a <I2C_IsAcknowledgeFailed>:
 800131a:	6801      	ldr	r1, [r0, #0]
 800131c:	694b      	ldr	r3, [r1, #20]
 800131e:	f413 6380 	ands.w	r3, r3, #1024	; 0x400
 8001322:	f04f 0200 	mov.w	r2, #0
 8001326:	d010      	beq.n	800134a <I2C_IsAcknowledgeFailed+0x30>
 8001328:	f46f 6380 	mvn.w	r3, #1024	; 0x400
 800132c:	614b      	str	r3, [r1, #20]
 800132e:	2320      	movs	r3, #32
 8001330:	6302      	str	r2, [r0, #48]	; 0x30
 8001332:	f880 303d 	strb.w	r3, [r0, #61]	; 0x3d
 8001336:	f880 203e 	strb.w	r2, [r0, #62]	; 0x3e
 800133a:	6c03      	ldr	r3, [r0, #64]	; 0x40
 800133c:	f880 203c 	strb.w	r2, [r0, #60]	; 0x3c
 8001340:	f043 0304 	orr.w	r3, r3, #4
 8001344:	6403      	str	r3, [r0, #64]	; 0x40
 8001346:	2001      	movs	r0, #1
 8001348:	4770      	bx	lr
 800134a:	4618      	mov	r0, r3
 800134c:	4770      	bx	lr

0800134e <I2C_WaitOnFlagUntilTimeout>:
 800134e:	e92d 46f8 	stmdb	sp!, {r3, r4, r5, r6, r7, r9, sl, lr}
 8001352:	4606      	mov	r6, r0
 8001354:	460f      	mov	r7, r1
 8001356:	4691      	mov	r9, r2
 8001358:	461d      	mov	r5, r3
 800135a:	ea4f 4a11 	mov.w	sl, r1, lsr #16
 800135e:	6833      	ldr	r3, [r6, #0]
 8001360:	f1ba 0f01 	cmp.w	sl, #1
 8001364:	bf0c      	ite	eq
 8001366:	695c      	ldreq	r4, [r3, #20]
 8001368:	699c      	ldrne	r4, [r3, #24]
 800136a:	ea27 0404 	bic.w	r4, r7, r4
 800136e:	b2a4      	uxth	r4, r4
 8001370:	fab4 f484 	clz	r4, r4
 8001374:	0964      	lsrs	r4, r4, #5
 8001376:	45a1      	cmp	r9, r4
 8001378:	d001      	beq.n	800137e <I2C_WaitOnFlagUntilTimeout+0x30>
 800137a:	2000      	movs	r0, #0
 800137c:	e017      	b.n	80013ae <I2C_WaitOnFlagUntilTimeout+0x60>
 800137e:	1c6a      	adds	r2, r5, #1
 8001380:	d0ee      	beq.n	8001360 <I2C_WaitOnFlagUntilTimeout+0x12>
 8001382:	f7ff fe49 	bl	8001018 <HAL_GetTick>
 8001386:	9b08      	ldr	r3, [sp, #32]
 8001388:	1ac0      	subs	r0, r0, r3
 800138a:	42a8      	cmp	r0, r5
 800138c:	d801      	bhi.n	8001392 <I2C_WaitOnFlagUntilTimeout+0x44>
 800138e:	2d00      	cmp	r5, #0
 8001390:	d1e5      	bne.n	800135e <I2C_WaitOnFlagUntilTimeout+0x10>
 8001392:	2300      	movs	r3, #0
 8001394:	2220      	movs	r2, #32
 8001396:	6333      	str	r3, [r6, #48]	; 0x30
 8001398:	f886 203d 	strb.w	r2, [r6, #61]	; 0x3d
 800139c:	f886 303e 	strb.w	r3, [r6, #62]	; 0x3e
 80013a0:	6c32      	ldr	r2, [r6, #64]	; 0x40
 80013a2:	f886 303c 	strb.w	r3, [r6, #60]	; 0x3c
 80013a6:	f042 0220 	orr.w	r2, r2, #32
 80013aa:	6432      	str	r2, [r6, #64]	; 0x40
 80013ac:	2001      	movs	r0, #1
 80013ae:	e8bd 86f8 	ldmia.w	sp!, {r3, r4, r5, r6, r7, r9, sl, pc}

080013b2 <I2C_WaitOnMasterAddressFlagUntilTimeout>:
 80013b2:	e92d 41f0 	stmdb	sp!, {r4, r5, r6, r7, r8, lr}
 80013b6:	4604      	mov	r4, r0
 80013b8:	460f      	mov	r7, r1
 80013ba:	4616      	mov	r6, r2
 80013bc:	4698      	mov	r8, r3
 80013be:	6825      	ldr	r5, [r4, #0]
 80013c0:	6968      	ldr	r0, [r5, #20]
 80013c2:	ea27 0000 	bic.w	r0, r7, r0
 80013c6:	b280      	uxth	r0, r0
 80013c8:	b1b8      	cbz	r0, 80013fa <I2C_WaitOnMasterAddressFlagUntilTimeout+0x48>
 80013ca:	696b      	ldr	r3, [r5, #20]
 80013cc:	055a      	lsls	r2, r3, #21
 80013ce:	d516      	bpl.n	80013fe <I2C_WaitOnMasterAddressFlagUntilTimeout+0x4c>
 80013d0:	682b      	ldr	r3, [r5, #0]
 80013d2:	f443 7300 	orr.w	r3, r3, #512	; 0x200
 80013d6:	602b      	str	r3, [r5, #0]
 80013d8:	f46f 6380 	mvn.w	r3, #1024	; 0x400
 80013dc:	616b      	str	r3, [r5, #20]
 80013de:	2220      	movs	r2, #32
 80013e0:	2300      	movs	r3, #0
 80013e2:	6323      	str	r3, [r4, #48]	; 0x30
 80013e4:	f884 203d 	strb.w	r2, [r4, #61]	; 0x3d
 80013e8:	f884 303e 	strb.w	r3, [r4, #62]	; 0x3e
 80013ec:	6c22      	ldr	r2, [r4, #64]	; 0x40
 80013ee:	f042 0204 	orr.w	r2, r2, #4
 80013f2:	6422      	str	r2, [r4, #64]	; 0x40
 80013f4:	f884 303c 	strb.w	r3, [r4, #60]	; 0x3c
 80013f8:	2001      	movs	r0, #1
 80013fa:	e8bd 81f0 	ldmia.w	sp!, {r4, r5, r6, r7, r8, pc}
 80013fe:	1c73      	adds	r3, r6, #1
 8001400:	d0de      	beq.n	80013c0 <I2C_WaitOnMasterAddressFlagUntilTimeout+0xe>
 8001402:	f7ff fe09 	bl	8001018 <HAL_GetTick>
 8001406:	eba0 0008 	sub.w	r0, r0, r8
 800140a:	42b0      	cmp	r0, r6
 800140c:	d801      	bhi.n	8001412 <I2C_WaitOnMasterAddressFlagUntilTimeout+0x60>
 800140e:	2e00      	cmp	r6, #0
 8001410:	d1d5      	bne.n	80013be <I2C_WaitOnMasterAddressFlagUntilTimeout+0xc>
 8001412:	2300      	movs	r3, #0
 8001414:	2220      	movs	r2, #32
 8001416:	6323      	str	r3, [r4, #48]	; 0x30
 8001418:	f884 203d 	strb.w	r2, [r4, #61]	; 0x3d
 800141c:	f884 303e 	strb.w	r3, [r4, #62]	; 0x3e
 8001420:	6c22      	ldr	r2, [r4, #64]	; 0x40
 8001422:	f042 0220 	orr.w	r2, r2, #32
 8001426:	e7e4      	b.n	80013f2 <I2C_WaitOnMasterAddressFlagUntilTimeout+0x40>

08001428 <I2C_WaitOnRXNEFlagUntilTimeout>:
 8001428:	b570      	push	{r4, r5, r6, lr}
 800142a:	4604      	mov	r4, r0
 800142c:	460d      	mov	r5, r1
 800142e:	4616      	mov	r6, r2
 8001430:	6821      	ldr	r1, [r4, #0]
 8001432:	694b      	ldr	r3, [r1, #20]
 8001434:	f013 0340 	ands.w	r3, r3, #64	; 0x40
 8001438:	d001      	beq.n	800143e <I2C_WaitOnRXNEFlagUntilTimeout+0x16>
 800143a:	2000      	movs	r0, #0
 800143c:	e010      	b.n	8001460 <I2C_WaitOnRXNEFlagUntilTimeout+0x38>
 800143e:	694a      	ldr	r2, [r1, #20]
 8001440:	06d2      	lsls	r2, r2, #27
 8001442:	d50e      	bpl.n	8001462 <I2C_WaitOnRXNEFlagUntilTimeout+0x3a>
 8001444:	f06f 0210 	mvn.w	r2, #16
 8001448:	614a      	str	r2, [r1, #20]
 800144a:	2220      	movs	r2, #32
 800144c:	6323      	str	r3, [r4, #48]	; 0x30
 800144e:	f884 203d 	strb.w	r2, [r4, #61]	; 0x3d
 8001452:	f884 303e 	strb.w	r3, [r4, #62]	; 0x3e
 8001456:	6c22      	ldr	r2, [r4, #64]	; 0x40
 8001458:	6422      	str	r2, [r4, #64]	; 0x40
 800145a:	f884 303c 	strb.w	r3, [r4, #60]	; 0x3c
 800145e:	2001      	movs	r0, #1
 8001460:	bd70      	pop	{r4, r5, r6, pc}
 8001462:	f7ff fdd9 	bl	8001018 <HAL_GetTick>
 8001466:	1b80      	subs	r0, r0, r6
 8001468:	42a8      	cmp	r0, r5
 800146a:	d801      	bhi.n	8001470 <I2C_WaitOnRXNEFlagUntilTimeout+0x48>
 800146c:	2d00      	cmp	r5, #0
 800146e:	d1df      	bne.n	8001430 <I2C_WaitOnRXNEFlagUntilTimeout+0x8>
 8001470:	2300      	movs	r3, #0
 8001472:	2220      	movs	r2, #32
 8001474:	6323      	str	r3, [r4, #48]	; 0x30
 8001476:	f884 203d 	strb.w	r2, [r4, #61]	; 0x3d
 800147a:	f884 303e 	strb.w	r3, [r4, #62]	; 0x3e
 800147e:	6c22      	ldr	r2, [r4, #64]	; 0x40
 8001480:	f042 0220 	orr.w	r2, r2, #32
 8001484:	e7e8      	b.n	8001458 <I2C_WaitOnRXNEFlagUntilTimeout+0x30>

08001486 <I2C_WaitOnTXEFlagUntilTimeout>:
 8001486:	b570      	push	{r4, r5, r6, lr}
 8001488:	4604      	mov	r4, r0
 800148a:	460d      	mov	r5, r1
 800148c:	4616      	mov	r6, r2
 800148e:	6823      	ldr	r3, [r4, #0]
 8001490:	695b      	ldr	r3, [r3, #20]
 8001492:	061b      	lsls	r3, r3, #24
 8001494:	d501      	bpl.n	800149a <I2C_WaitOnTXEFlagUntilTimeout+0x14>
 8001496:	2000      	movs	r0, #0
 8001498:	bd70      	pop	{r4, r5, r6, pc}
 800149a:	4620      	mov	r0, r4
 800149c:	f7ff ff3d 	bl	800131a <I2C_IsAcknowledgeFailed>
 80014a0:	b9a8      	cbnz	r0, 80014ce <I2C_WaitOnTXEFlagUntilTimeout+0x48>
 80014a2:	1c6a      	adds	r2, r5, #1
 80014a4:	d0f3      	beq.n	800148e <I2C_WaitOnTXEFlagUntilTimeout+0x8>
 80014a6:	f7ff fdb7 	bl	8001018 <HAL_GetTick>
 80014aa:	1b80      	subs	r0, r0, r6
 80014ac:	42a8      	cmp	r0, r5
 80014ae:	d801      	bhi.n	80014b4 <I2C_WaitOnTXEFlagUntilTimeout+0x2e>
 80014b0:	2d00      	cmp	r5, #0
 80014b2:	d1ec      	bne.n	800148e <I2C_WaitOnTXEFlagUntilTimeout+0x8>
 80014b4:	2300      	movs	r3, #0
 80014b6:	2220      	movs	r2, #32
 80014b8:	6323      	str	r3, [r4, #48]	; 0x30
 80014ba:	f884 203d 	strb.w	r2, [r4, #61]	; 0x3d
 80014be:	f884 303e 	strb.w	r3, [r4, #62]	; 0x3e
 80014c2:	6c22      	ldr	r2, [r4, #64]	; 0x40
 80014c4:	f884 303c 	strb.w	r3, [r4, #60]	; 0x3c
 80014c8:	f042 0220 	orr.w	r2, r2, #32
 80014cc:	6422      	str	r2, [r4, #64]	; 0x40
 80014ce:	2001      	movs	r0, #1
 80014d0:	e7e2      	b.n	8001498 <I2C_WaitOnTXEFlagUntilTimeout+0x12>

080014d2 <I2C_WaitOnBTFFlagUntilTimeout>:
 80014d2:	b570      	push	{r4, r5, r6, lr}
 80014d4:	4604      	mov	r4, r0
 80014d6:	460d      	mov	r5, r1
 80014d8:	4616      	mov	r6, r2
 80014da:	6823      	ldr	r3, [r4, #0]
 80014dc:	695b      	ldr	r3, [r3, #20]
 80014de:	075b      	lsls	r3, r3, #29
 80014e0:	d501      	bpl.n	80014e6 <I2C_WaitOnBTFFlagUntilTimeout+0x14>
 80014e2:	2000      	movs	r0, #0
 80014e4:	bd70      	pop	{r4, r5, r6, pc}
 80014e6:	4620      	mov	r0, r4
 80014e8:	f7ff ff17 	bl	800131a <I2C_IsAcknowledgeFailed>
 80014ec:	b9a8      	cbnz	r0, 800151a <I2C_WaitOnBTFFlagUntilTimeout+0x48>
 80014ee:	1c6a      	adds	r2, r5, #1
 80014f0:	d0f3      	beq.n	80014da <I2C_WaitOnBTFFlagUntilTimeout+0x8>
 80014f2:	f7ff fd91 	bl	8001018 <HAL_GetTick>
 80014f6:	1b80      	subs	r0, r0, r6
 80014f8:	42a8      	cmp	r0, r5
 80014fa:	d801      	bhi.n	8001500 <I2C_WaitOnBTFFlagUntilTimeout+0x2e>
 80014fc:	2d00      	cmp	r5, #0
 80014fe:	d1ec      	bne.n	80014da <I2C_WaitOnBTFFlagUntilTimeout+0x8>
 8001500:	2300      	movs	r3, #0
 8001502:	2220      	movs	r2, #32
 8001504:	6323      	str	r3, [r4, #48]	; 0x30
 8001506:	f884 203d 	strb.w	r2, [r4, #61]	; 0x3d
 800150a:	f884 303e 	strb.w	r3, [r4, #62]	; 0x3e
 800150e:	6c22      	ldr	r2, [r4, #64]	; 0x40
 8001510:	f884 303c 	strb.w	r3, [r4, #60]	; 0x3c
 8001514:	f042 0220 	orr.w	r2, r2, #32
 8001518:	6422      	str	r2, [r4, #64]	; 0x40
 800151a:	2001      	movs	r0, #1
 800151c:	e7e2      	b.n	80014e4 <I2C_WaitOnBTFFlagUntilTimeout+0x12>
	...

08001520 <HAL_I2C_Init>:
 8001520:	b570      	push	{r4, r5, r6, lr}
 8001522:	4604      	mov	r4, r0
 8001524:	b908      	cbnz	r0, 800152a <HAL_I2C_Init+0xa>
 8001526:	2001      	movs	r0, #1
 8001528:	bd70      	pop	{r4, r5, r6, pc}
 800152a:	f890 303d 	ldrb.w	r3, [r0, #61]	; 0x3d
 800152e:	f003 02ff 	and.w	r2, r3, #255	; 0xff
 8001532:	b91b      	cbnz	r3, 800153c <HAL_I2C_Init+0x1c>
 8001534:	f880 203c 	strb.w	r2, [r0, #60]	; 0x3c
 8001538:	f7ff f8d8 	bl	80006ec <HAL_I2C_MspInit>
 800153c:	2324      	movs	r3, #36	; 0x24
 800153e:	f884 303d 	strb.w	r3, [r4, #61]	; 0x3d
 8001542:	6823      	ldr	r3, [r4, #0]
 8001544:	681a      	ldr	r2, [r3, #0]
 8001546:	f022 0201 	bic.w	r2, r2, #1
 800154a:	601a      	str	r2, [r3, #0]
 800154c:	681a      	ldr	r2, [r3, #0]
 800154e:	f442 4200 	orr.w	r2, r2, #32768	; 0x8000
 8001552:	601a      	str	r2, [r3, #0]
 8001554:	681a      	ldr	r2, [r3, #0]
 8001556:	f422 4200 	bic.w	r2, r2, #32768	; 0x8000
 800155a:	601a      	str	r2, [r3, #0]
 800155c:	f000 fdf4 	bl	8002148 <HAL_RCC_GetPCLK1Freq>
 8001560:	4b3f      	ldr	r3, [pc, #252]	; (8001660 <HAL_I2C_Init+0x140>)
 8001562:	6865      	ldr	r5, [r4, #4]
 8001564:	429d      	cmp	r5, r3
 8001566:	bf94      	ite	ls
 8001568:	4b3e      	ldrls	r3, [pc, #248]	; (8001664 <HAL_I2C_Init+0x144>)
 800156a:	4b3f      	ldrhi	r3, [pc, #252]	; (8001668 <HAL_I2C_Init+0x148>)
 800156c:	4298      	cmp	r0, r3
 800156e:	bf8c      	ite	hi
 8001570:	2300      	movhi	r3, #0
 8001572:	2301      	movls	r3, #1
 8001574:	2b00      	cmp	r3, #0
 8001576:	d1d6      	bne.n	8001526 <HAL_I2C_Init+0x6>
 8001578:	6822      	ldr	r2, [r4, #0]
 800157a:	4e39      	ldr	r6, [pc, #228]	; (8001660 <HAL_I2C_Init+0x140>)
 800157c:	6851      	ldr	r1, [r2, #4]
 800157e:	4b3b      	ldr	r3, [pc, #236]	; (800166c <HAL_I2C_Init+0x14c>)
 8001580:	fbb0 f3f3 	udiv	r3, r0, r3
 8001584:	f021 013f 	bic.w	r1, r1, #63	; 0x3f
 8001588:	4319      	orrs	r1, r3
 800158a:	42b5      	cmp	r5, r6
 800158c:	6051      	str	r1, [r2, #4]
 800158e:	bf88      	it	hi
 8001590:	f44f 7696 	movhi.w	r6, #300	; 0x12c
 8001594:	6a11      	ldr	r1, [r2, #32]
 8001596:	bf88      	it	hi
 8001598:	4373      	mulhi	r3, r6
 800159a:	f021 013f 	bic.w	r1, r1, #63	; 0x3f
 800159e:	bf84      	itt	hi
 80015a0:	f44f 767a 	movhi.w	r6, #1000	; 0x3e8
 80015a4:	fbb3 f3f6 	udivhi	r3, r3, r6
 80015a8:	3301      	adds	r3, #1
 80015aa:	430b      	orrs	r3, r1
 80015ac:	6213      	str	r3, [r2, #32]
 80015ae:	69d1      	ldr	r1, [r2, #28]
 80015b0:	1e43      	subs	r3, r0, #1
 80015b2:	482b      	ldr	r0, [pc, #172]	; (8001660 <HAL_I2C_Init+0x140>)
 80015b4:	f421 414f 	bic.w	r1, r1, #52992	; 0xcf00
 80015b8:	4285      	cmp	r5, r0
 80015ba:	f021 01ff 	bic.w	r1, r1, #255	; 0xff
 80015be:	d832      	bhi.n	8001626 <HAL_I2C_Init+0x106>
 80015c0:	006d      	lsls	r5, r5, #1
 80015c2:	f640 70fc 	movw	r0, #4092	; 0xffc
 80015c6:	fbb3 f3f5 	udiv	r3, r3, r5
 80015ca:	3301      	adds	r3, #1
 80015cc:	4203      	tst	r3, r0
 80015ce:	d042      	beq.n	8001656 <HAL_I2C_Init+0x136>
 80015d0:	f3c3 030b 	ubfx	r3, r3, #0, #12
 80015d4:	4319      	orrs	r1, r3
 80015d6:	61d1      	str	r1, [r2, #28]
 80015d8:	e9d4 3007 	ldrd	r3, r0, [r4, #28]
 80015dc:	6811      	ldr	r1, [r2, #0]
 80015de:	4303      	orrs	r3, r0
 80015e0:	f021 01c0 	bic.w	r1, r1, #192	; 0xc0
 80015e4:	430b      	orrs	r3, r1
 80015e6:	6013      	str	r3, [r2, #0]
 80015e8:	6891      	ldr	r1, [r2, #8]
 80015ea:	e9d4 0303 	ldrd	r0, r3, [r4, #12]
 80015ee:	f421 4103 	bic.w	r1, r1, #33536	; 0x8300
 80015f2:	4303      	orrs	r3, r0
 80015f4:	f021 01ff 	bic.w	r1, r1, #255	; 0xff
 80015f8:	430b      	orrs	r3, r1
 80015fa:	6093      	str	r3, [r2, #8]
 80015fc:	e9d4 3005 	ldrd	r3, r0, [r4, #20]
 8001600:	68d1      	ldr	r1, [r2, #12]
 8001602:	4303      	orrs	r3, r0
 8001604:	f021 01ff 	bic.w	r1, r1, #255	; 0xff
 8001608:	430b      	orrs	r3, r1
 800160a:	60d3      	str	r3, [r2, #12]
 800160c:	6813      	ldr	r3, [r2, #0]
 800160e:	f043 0301 	orr.w	r3, r3, #1
 8001612:	6013      	str	r3, [r2, #0]
 8001614:	2000      	movs	r0, #0
 8001616:	2320      	movs	r3, #32
 8001618:	6420      	str	r0, [r4, #64]	; 0x40
 800161a:	f884 303d 	strb.w	r3, [r4, #61]	; 0x3d
 800161e:	6320      	str	r0, [r4, #48]	; 0x30
 8001620:	f884 003e 	strb.w	r0, [r4, #62]	; 0x3e
 8001624:	e780      	b.n	8001528 <HAL_I2C_Init+0x8>
 8001626:	68a0      	ldr	r0, [r4, #8]
 8001628:	b950      	cbnz	r0, 8001640 <HAL_I2C_Init+0x120>
 800162a:	eb05 0545 	add.w	r5, r5, r5, lsl #1
 800162e:	fbb3 f3f5 	udiv	r3, r3, r5
 8001632:	3301      	adds	r3, #1
 8001634:	f3c3 030b 	ubfx	r3, r3, #0, #12
 8001638:	b17b      	cbz	r3, 800165a <HAL_I2C_Init+0x13a>
 800163a:	f443 4300 	orr.w	r3, r3, #32768	; 0x8000
 800163e:	e7c9      	b.n	80015d4 <HAL_I2C_Init+0xb4>
 8001640:	2019      	movs	r0, #25
 8001642:	4368      	muls	r0, r5
 8001644:	fbb3 f3f0 	udiv	r3, r3, r0
 8001648:	3301      	adds	r3, #1
 800164a:	f3c3 030b 	ubfx	r3, r3, #0, #12
 800164e:	b123      	cbz	r3, 800165a <HAL_I2C_Init+0x13a>
 8001650:	f443 4340 	orr.w	r3, r3, #49152	; 0xc000
 8001654:	e7be      	b.n	80015d4 <HAL_I2C_Init+0xb4>
 8001656:	2304      	movs	r3, #4
 8001658:	e7bc      	b.n	80015d4 <HAL_I2C_Init+0xb4>
 800165a:	2301      	movs	r3, #1
 800165c:	e7ba      	b.n	80015d4 <HAL_I2C_Init+0xb4>
 800165e:	bf00      	nop
 8001660:	000186a0 	.word	0x000186a0
 8001664:	001e847f 	.word	0x001e847f
 8001668:	003d08ff 	.word	0x003d08ff
 800166c:	000f4240 	.word	0x000f4240

08001670 <HAL_I2C_Master_Transmit>:
 8001670:	e92d 43f0 	stmdb	sp!, {r4, r5, r6, r7, r8, r9, lr}
 8001674:	4604      	mov	r4, r0
 8001676:	b085      	sub	sp, #20
 8001678:	4698      	mov	r8, r3
 800167a:	9f0c      	ldr	r7, [sp, #48]	; 0x30
 800167c:	460d      	mov	r5, r1
 800167e:	4691      	mov	r9, r2
 8001680:	f7ff fcca 	bl	8001018 <HAL_GetTick>
 8001684:	f894 303d 	ldrb.w	r3, [r4, #61]	; 0x3d
 8001688:	2b20      	cmp	r3, #32
 800168a:	4606      	mov	r6, r0
 800168c:	d004      	beq.n	8001698 <HAL_I2C_Master_Transmit+0x28>
 800168e:	2502      	movs	r5, #2
 8001690:	4628      	mov	r0, r5
 8001692:	b005      	add	sp, #20
 8001694:	e8bd 83f0 	ldmia.w	sp!, {r4, r5, r6, r7, r8, r9, pc}
 8001698:	9000      	str	r0, [sp, #0]
 800169a:	495d      	ldr	r1, [pc, #372]	; (8001810 <HAL_I2C_Master_Transmit+0x1a0>)
 800169c:	2319      	movs	r3, #25
 800169e:	2201      	movs	r2, #1
 80016a0:	4620      	mov	r0, r4
 80016a2:	f7ff fe54 	bl	800134e <I2C_WaitOnFlagUntilTimeout>
 80016a6:	2800      	cmp	r0, #0
 80016a8:	d1f1      	bne.n	800168e <HAL_I2C_Master_Transmit+0x1e>
 80016aa:	f894 303c 	ldrb.w	r3, [r4, #60]	; 0x3c
 80016ae:	2b01      	cmp	r3, #1
 80016b0:	d0ed      	beq.n	800168e <HAL_I2C_Master_Transmit+0x1e>
 80016b2:	6821      	ldr	r1, [r4, #0]
 80016b4:	2301      	movs	r3, #1
 80016b6:	f884 303c 	strb.w	r3, [r4, #60]	; 0x3c
 80016ba:	680b      	ldr	r3, [r1, #0]
 80016bc:	07da      	lsls	r2, r3, #31
 80016be:	bf5e      	ittt	pl
 80016c0:	680b      	ldrpl	r3, [r1, #0]
 80016c2:	f043 0301 	orrpl.w	r3, r3, #1
 80016c6:	600b      	strpl	r3, [r1, #0]
 80016c8:	680b      	ldr	r3, [r1, #0]
 80016ca:	f423 6300 	bic.w	r3, r3, #2048	; 0x800
 80016ce:	600b      	str	r3, [r1, #0]
 80016d0:	2321      	movs	r3, #33	; 0x21
 80016d2:	f884 303d 	strb.w	r3, [r4, #61]	; 0x3d
 80016d6:	2310      	movs	r3, #16
 80016d8:	f884 303e 	strb.w	r3, [r4, #62]	; 0x3e
 80016dc:	2300      	movs	r3, #0
 80016de:	6423      	str	r3, [r4, #64]	; 0x40
 80016e0:	f8a4 802a 	strh.w	r8, [r4, #42]	; 0x2a
 80016e4:	8d63      	ldrh	r3, [r4, #42]	; 0x2a
 80016e6:	8523      	strh	r3, [r4, #40]	; 0x28
 80016e8:	4b4a      	ldr	r3, [pc, #296]	; (8001814 <HAL_I2C_Master_Transmit+0x1a4>)
 80016ea:	62e3      	str	r3, [r4, #44]	; 0x2c
 80016ec:	6ae3      	ldr	r3, [r4, #44]	; 0x2c
 80016ee:	f8c4 9024 	str.w	r9, [r4, #36]	; 0x24
 80016f2:	2b08      	cmp	r3, #8
 80016f4:	d004      	beq.n	8001700 <HAL_I2C_Master_Transmit+0x90>
 80016f6:	2b01      	cmp	r3, #1
 80016f8:	d002      	beq.n	8001700 <HAL_I2C_Master_Transmit+0x90>
 80016fa:	f513 3f80 	cmn.w	r3, #65536	; 0x10000
 80016fe:	d104      	bne.n	800170a <HAL_I2C_Master_Transmit+0x9a>
 8001700:	680b      	ldr	r3, [r1, #0]
 8001702:	f443 7380 	orr.w	r3, r3, #256	; 0x100
 8001706:	600b      	str	r3, [r1, #0]
 8001708:	e002      	b.n	8001710 <HAL_I2C_Master_Transmit+0xa0>
 800170a:	6b23      	ldr	r3, [r4, #48]	; 0x30
 800170c:	2b12      	cmp	r3, #18
 800170e:	d0f7      	beq.n	8001700 <HAL_I2C_Master_Transmit+0x90>
 8001710:	2200      	movs	r2, #0
 8001712:	9600      	str	r6, [sp, #0]
 8001714:	463b      	mov	r3, r7
 8001716:	f04f 1101 	mov.w	r1, #65537	; 0x10001
 800171a:	4620      	mov	r0, r4
 800171c:	f7ff fe17 	bl	800134e <I2C_WaitOnFlagUntilTimeout>
 8001720:	6822      	ldr	r2, [r4, #0]
 8001722:	b138      	cbz	r0, 8001734 <HAL_I2C_Master_Transmit+0xc4>
 8001724:	6813      	ldr	r3, [r2, #0]
 8001726:	05db      	lsls	r3, r3, #23
 8001728:	bf44      	itt	mi
 800172a:	f44f 7300 	movmi.w	r3, #512	; 0x200
 800172e:	6423      	strmi	r3, [r4, #64]	; 0x40
 8001730:	2501      	movs	r5, #1
 8001732:	e7ad      	b.n	8001690 <HAL_I2C_Master_Transmit+0x20>
 8001734:	6923      	ldr	r3, [r4, #16]
 8001736:	f5b3 4f80 	cmp.w	r3, #16384	; 0x4000
 800173a:	d121      	bne.n	8001780 <HAL_I2C_Master_Transmit+0x110>
 800173c:	f005 05fe 	and.w	r5, r5, #254	; 0xfe
 8001740:	6115      	str	r5, [r2, #16]
 8001742:	4935      	ldr	r1, [pc, #212]	; (8001818 <HAL_I2C_Master_Transmit+0x1a8>)
 8001744:	4633      	mov	r3, r6
 8001746:	463a      	mov	r2, r7
 8001748:	4620      	mov	r0, r4
 800174a:	f7ff fe32 	bl	80013b2 <I2C_WaitOnMasterAddressFlagUntilTimeout>
 800174e:	4605      	mov	r5, r0
 8001750:	2800      	cmp	r0, #0
 8001752:	d1ed      	bne.n	8001730 <HAL_I2C_Master_Transmit+0xc0>
 8001754:	6823      	ldr	r3, [r4, #0]
 8001756:	9003      	str	r0, [sp, #12]
 8001758:	695a      	ldr	r2, [r3, #20]
 800175a:	9203      	str	r2, [sp, #12]
 800175c:	699b      	ldr	r3, [r3, #24]
 800175e:	9303      	str	r3, [sp, #12]
 8001760:	9b03      	ldr	r3, [sp, #12]
 8001762:	8d23      	ldrh	r3, [r4, #40]	; 0x28
 8001764:	b9f3      	cbnz	r3, 80017a4 <HAL_I2C_Master_Transmit+0x134>
 8001766:	6821      	ldr	r1, [r4, #0]
 8001768:	680a      	ldr	r2, [r1, #0]
 800176a:	f442 7200 	orr.w	r2, r2, #512	; 0x200
 800176e:	600a      	str	r2, [r1, #0]
 8001770:	2220      	movs	r2, #32
 8001772:	f884 203d 	strb.w	r2, [r4, #61]	; 0x3d
 8001776:	f884 303c 	strb.w	r3, [r4, #60]	; 0x3c
 800177a:	f884 303e 	strb.w	r3, [r4, #62]	; 0x3e
 800177e:	e787      	b.n	8001690 <HAL_I2C_Master_Transmit+0x20>
 8001780:	11eb      	asrs	r3, r5, #7
 8001782:	f003 0306 	and.w	r3, r3, #6
 8001786:	f043 03f0 	orr.w	r3, r3, #240	; 0xf0
 800178a:	6113      	str	r3, [r2, #16]
 800178c:	4923      	ldr	r1, [pc, #140]	; (800181c <HAL_I2C_Master_Transmit+0x1ac>)
 800178e:	4633      	mov	r3, r6
 8001790:	463a      	mov	r2, r7
 8001792:	4620      	mov	r0, r4
 8001794:	f7ff fe0d 	bl	80013b2 <I2C_WaitOnMasterAddressFlagUntilTimeout>
 8001798:	2800      	cmp	r0, #0
 800179a:	d1c9      	bne.n	8001730 <HAL_I2C_Master_Transmit+0xc0>
 800179c:	6823      	ldr	r3, [r4, #0]
 800179e:	b2ed      	uxtb	r5, r5
 80017a0:	611d      	str	r5, [r3, #16]
 80017a2:	e7ce      	b.n	8001742 <HAL_I2C_Master_Transmit+0xd2>
 80017a4:	4632      	mov	r2, r6
 80017a6:	4639      	mov	r1, r7
 80017a8:	4620      	mov	r0, r4
 80017aa:	f7ff fe6c 	bl	8001486 <I2C_WaitOnTXEFlagUntilTimeout>
 80017ae:	b140      	cbz	r0, 80017c2 <HAL_I2C_Master_Transmit+0x152>
 80017b0:	6c23      	ldr	r3, [r4, #64]	; 0x40
 80017b2:	2b04      	cmp	r3, #4
 80017b4:	d1bc      	bne.n	8001730 <HAL_I2C_Master_Transmit+0xc0>
 80017b6:	6822      	ldr	r2, [r4, #0]
 80017b8:	6813      	ldr	r3, [r2, #0]
 80017ba:	f443 7300 	orr.w	r3, r3, #512	; 0x200
 80017be:	6013      	str	r3, [r2, #0]
 80017c0:	e7b6      	b.n	8001730 <HAL_I2C_Master_Transmit+0xc0>
 80017c2:	6a63      	ldr	r3, [r4, #36]	; 0x24
 80017c4:	6820      	ldr	r0, [r4, #0]
 80017c6:	461a      	mov	r2, r3
 80017c8:	f812 1b01 	ldrb.w	r1, [r2], #1
 80017cc:	6101      	str	r1, [r0, #16]
 80017ce:	6262      	str	r2, [r4, #36]	; 0x24
 80017d0:	8d62      	ldrh	r2, [r4, #42]	; 0x2a
 80017d2:	3a01      	subs	r2, #1
 80017d4:	b292      	uxth	r2, r2
 80017d6:	8562      	strh	r2, [r4, #42]	; 0x2a
 80017d8:	8d22      	ldrh	r2, [r4, #40]	; 0x28
 80017da:	f8d0 c014 	ldr.w	ip, [r0, #20]
 80017de:	1e51      	subs	r1, r2, #1
 80017e0:	b289      	uxth	r1, r1
 80017e2:	f01c 0f04 	tst.w	ip, #4
 80017e6:	8521      	strh	r1, [r4, #40]	; 0x28
 80017e8:	d00a      	beq.n	8001800 <HAL_I2C_Master_Transmit+0x190>
 80017ea:	b149      	cbz	r1, 8001800 <HAL_I2C_Master_Transmit+0x190>
 80017ec:	7859      	ldrb	r1, [r3, #1]
 80017ee:	6101      	str	r1, [r0, #16]
 80017f0:	3302      	adds	r3, #2
 80017f2:	6263      	str	r3, [r4, #36]	; 0x24
 80017f4:	8d63      	ldrh	r3, [r4, #42]	; 0x2a
 80017f6:	3b01      	subs	r3, #1
 80017f8:	b29b      	uxth	r3, r3
 80017fa:	3a02      	subs	r2, #2
 80017fc:	8563      	strh	r3, [r4, #42]	; 0x2a
 80017fe:	8522      	strh	r2, [r4, #40]	; 0x28
 8001800:	4632      	mov	r2, r6
 8001802:	4639      	mov	r1, r7
 8001804:	4620      	mov	r0, r4
 8001806:	f7ff fe64 	bl	80014d2 <I2C_WaitOnBTFFlagUntilTimeout>
 800180a:	2800      	cmp	r0, #0
 800180c:	d0a9      	beq.n	8001762 <HAL_I2C_Master_Transmit+0xf2>
 800180e:	e7cf      	b.n	80017b0 <HAL_I2C_Master_Transmit+0x140>
 8001810:	00100002 	.word	0x00100002
 8001814:	ffff0000 	.word	0xffff0000
 8001818:	00010002 	.word	0x00010002
 800181c:	00010008 	.word	0x00010008

08001820 <HAL_I2C_Master_Receive>:
 8001820:	e92d 43f0 	stmdb	sp!, {r4, r5, r6, r7, r8, r9, lr}
 8001824:	4604      	mov	r4, r0
 8001826:	b089      	sub	sp, #36	; 0x24
 8001828:	4698      	mov	r8, r3
 800182a:	9f10      	ldr	r7, [sp, #64]	; 0x40
 800182c:	460e      	mov	r6, r1
 800182e:	4691      	mov	r9, r2
 8001830:	f7ff fbf2 	bl	8001018 <HAL_GetTick>
 8001834:	f894 303d 	ldrb.w	r3, [r4, #61]	; 0x3d
 8001838:	2b20      	cmp	r3, #32
 800183a:	4605      	mov	r5, r0
 800183c:	d004      	beq.n	8001848 <HAL_I2C_Master_Receive+0x28>
 800183e:	2602      	movs	r6, #2
 8001840:	4630      	mov	r0, r6
 8001842:	b009      	add	sp, #36	; 0x24
 8001844:	e8bd 83f0 	ldmia.w	sp!, {r4, r5, r6, r7, r8, r9, pc}
 8001848:	9000      	str	r0, [sp, #0]
 800184a:	499a      	ldr	r1, [pc, #616]	; (8001ab4 <HAL_I2C_Master_Receive+0x294>)
 800184c:	2319      	movs	r3, #25
 800184e:	2201      	movs	r2, #1
 8001850:	4620      	mov	r0, r4
 8001852:	f7ff fd7c 	bl	800134e <I2C_WaitOnFlagUntilTimeout>
 8001856:	2800      	cmp	r0, #0
 8001858:	d1f1      	bne.n	800183e <HAL_I2C_Master_Receive+0x1e>
 800185a:	f894 303c 	ldrb.w	r3, [r4, #60]	; 0x3c
 800185e:	2b01      	cmp	r3, #1
 8001860:	d0ed      	beq.n	800183e <HAL_I2C_Master_Receive+0x1e>
 8001862:	6821      	ldr	r1, [r4, #0]
 8001864:	2301      	movs	r3, #1
 8001866:	f884 303c 	strb.w	r3, [r4, #60]	; 0x3c
 800186a:	680b      	ldr	r3, [r1, #0]
 800186c:	07db      	lsls	r3, r3, #31
 800186e:	bf5e      	ittt	pl
 8001870:	680b      	ldrpl	r3, [r1, #0]
 8001872:	f043 0301 	orrpl.w	r3, r3, #1
 8001876:	600b      	strpl	r3, [r1, #0]
 8001878:	680b      	ldr	r3, [r1, #0]
 800187a:	f423 6300 	bic.w	r3, r3, #2048	; 0x800
 800187e:	600b      	str	r3, [r1, #0]
 8001880:	2322      	movs	r3, #34	; 0x22
 8001882:	f884 303d 	strb.w	r3, [r4, #61]	; 0x3d
 8001886:	2310      	movs	r3, #16
 8001888:	f884 303e 	strb.w	r3, [r4, #62]	; 0x3e
 800188c:	2300      	movs	r3, #0
 800188e:	6423      	str	r3, [r4, #64]	; 0x40
 8001890:	f8a4 802a 	strh.w	r8, [r4, #42]	; 0x2a
 8001894:	8d63      	ldrh	r3, [r4, #42]	; 0x2a
 8001896:	8523      	strh	r3, [r4, #40]	; 0x28
 8001898:	4b87      	ldr	r3, [pc, #540]	; (8001ab8 <HAL_I2C_Master_Receive+0x298>)
 800189a:	62e3      	str	r3, [r4, #44]	; 0x2c
 800189c:	6ae3      	ldr	r3, [r4, #44]	; 0x2c
 800189e:	680a      	ldr	r2, [r1, #0]
 80018a0:	f8c4 9024 	str.w	r9, [r4, #36]	; 0x24
 80018a4:	f442 6280 	orr.w	r2, r2, #1024	; 0x400
 80018a8:	2b08      	cmp	r3, #8
 80018aa:	600a      	str	r2, [r1, #0]
 80018ac:	d004      	beq.n	80018b8 <HAL_I2C_Master_Receive+0x98>
 80018ae:	2b01      	cmp	r3, #1
 80018b0:	d002      	beq.n	80018b8 <HAL_I2C_Master_Receive+0x98>
 80018b2:	f513 3f80 	cmn.w	r3, #65536	; 0x10000
 80018b6:	d104      	bne.n	80018c2 <HAL_I2C_Master_Receive+0xa2>
 80018b8:	680b      	ldr	r3, [r1, #0]
 80018ba:	f443 7380 	orr.w	r3, r3, #256	; 0x100
 80018be:	600b      	str	r3, [r1, #0]
 80018c0:	e002      	b.n	80018c8 <HAL_I2C_Master_Receive+0xa8>
 80018c2:	6b23      	ldr	r3, [r4, #48]	; 0x30
 80018c4:	2b11      	cmp	r3, #17
 80018c6:	d0f7      	beq.n	80018b8 <HAL_I2C_Master_Receive+0x98>
 80018c8:	463b      	mov	r3, r7
 80018ca:	9500      	str	r5, [sp, #0]
 80018cc:	2200      	movs	r2, #0
 80018ce:	f04f 1101 	mov.w	r1, #65537	; 0x10001
 80018d2:	4620      	mov	r0, r4
 80018d4:	f7ff fd3b 	bl	800134e <I2C_WaitOnFlagUntilTimeout>
 80018d8:	6823      	ldr	r3, [r4, #0]
 80018da:	b138      	cbz	r0, 80018ec <HAL_I2C_Master_Receive+0xcc>
 80018dc:	681b      	ldr	r3, [r3, #0]
 80018de:	05d8      	lsls	r0, r3, #23
 80018e0:	bf44      	itt	mi
 80018e2:	f44f 7300 	movmi.w	r3, #512	; 0x200
 80018e6:	6423      	strmi	r3, [r4, #64]	; 0x40
 80018e8:	2601      	movs	r6, #1
 80018ea:	e7a9      	b.n	8001840 <HAL_I2C_Master_Receive+0x20>
 80018ec:	6922      	ldr	r2, [r4, #16]
 80018ee:	f5b2 4f80 	cmp.w	r2, #16384	; 0x4000
 80018f2:	d127      	bne.n	8001944 <HAL_I2C_Master_Receive+0x124>
 80018f4:	f046 0601 	orr.w	r6, r6, #1
 80018f8:	b2f6      	uxtb	r6, r6
 80018fa:	611e      	str	r6, [r3, #16]
 80018fc:	496f      	ldr	r1, [pc, #444]	; (8001abc <HAL_I2C_Master_Receive+0x29c>)
 80018fe:	462b      	mov	r3, r5
 8001900:	463a      	mov	r2, r7
 8001902:	4620      	mov	r0, r4
 8001904:	f7ff fd55 	bl	80013b2 <I2C_WaitOnMasterAddressFlagUntilTimeout>
 8001908:	4606      	mov	r6, r0
 800190a:	2800      	cmp	r0, #0
 800190c:	d1ec      	bne.n	80018e8 <HAL_I2C_Master_Receive+0xc8>
 800190e:	8d23      	ldrh	r3, [r4, #40]	; 0x28
 8001910:	6821      	ldr	r1, [r4, #0]
 8001912:	2b00      	cmp	r3, #0
 8001914:	d14b      	bne.n	80019ae <HAL_I2C_Master_Receive+0x18e>
 8001916:	9003      	str	r0, [sp, #12]
 8001918:	694b      	ldr	r3, [r1, #20]
 800191a:	9303      	str	r3, [sp, #12]
 800191c:	698b      	ldr	r3, [r1, #24]
 800191e:	9303      	str	r3, [sp, #12]
 8001920:	9b03      	ldr	r3, [sp, #12]
 8001922:	680b      	ldr	r3, [r1, #0]
 8001924:	f443 7300 	orr.w	r3, r3, #512	; 0x200
 8001928:	600b      	str	r3, [r1, #0]
 800192a:	f8df 8198 	ldr.w	r8, [pc, #408]	; 8001ac4 <HAL_I2C_Master_Receive+0x2a4>
 800192e:	8d23      	ldrh	r3, [r4, #40]	; 0x28
 8001930:	2b00      	cmp	r3, #0
 8001932:	d164      	bne.n	80019fe <HAL_I2C_Master_Receive+0x1de>
 8001934:	2220      	movs	r2, #32
 8001936:	f884 203d 	strb.w	r2, [r4, #61]	; 0x3d
 800193a:	f884 303c 	strb.w	r3, [r4, #60]	; 0x3c
 800193e:	f884 303e 	strb.w	r3, [r4, #62]	; 0x3e
 8001942:	e77d      	b.n	8001840 <HAL_I2C_Master_Receive+0x20>
 8001944:	ea4f 18e6 	mov.w	r8, r6, asr #7
 8001948:	f008 0806 	and.w	r8, r8, #6
 800194c:	f048 02f0 	orr.w	r2, r8, #240	; 0xf0
 8001950:	611a      	str	r2, [r3, #16]
 8001952:	495b      	ldr	r1, [pc, #364]	; (8001ac0 <HAL_I2C_Master_Receive+0x2a0>)
 8001954:	462b      	mov	r3, r5
 8001956:	463a      	mov	r2, r7
 8001958:	4620      	mov	r0, r4
 800195a:	f7ff fd2a 	bl	80013b2 <I2C_WaitOnMasterAddressFlagUntilTimeout>
 800195e:	2800      	cmp	r0, #0
 8001960:	d1c2      	bne.n	80018e8 <HAL_I2C_Master_Receive+0xc8>
 8001962:	6823      	ldr	r3, [r4, #0]
 8001964:	4955      	ldr	r1, [pc, #340]	; (8001abc <HAL_I2C_Master_Receive+0x29c>)
 8001966:	b2f6      	uxtb	r6, r6
 8001968:	611e      	str	r6, [r3, #16]
 800196a:	463a      	mov	r2, r7
 800196c:	462b      	mov	r3, r5
 800196e:	4620      	mov	r0, r4
 8001970:	f7ff fd1f 	bl	80013b2 <I2C_WaitOnMasterAddressFlagUntilTimeout>
 8001974:	4602      	mov	r2, r0
 8001976:	2800      	cmp	r0, #0
 8001978:	d1b6      	bne.n	80018e8 <HAL_I2C_Master_Receive+0xc8>
 800197a:	6823      	ldr	r3, [r4, #0]
 800197c:	9007      	str	r0, [sp, #28]
 800197e:	6959      	ldr	r1, [r3, #20]
 8001980:	9107      	str	r1, [sp, #28]
 8001982:	6999      	ldr	r1, [r3, #24]
 8001984:	9107      	str	r1, [sp, #28]
 8001986:	9907      	ldr	r1, [sp, #28]
 8001988:	6819      	ldr	r1, [r3, #0]
 800198a:	f441 7180 	orr.w	r1, r1, #256	; 0x100
 800198e:	6019      	str	r1, [r3, #0]
 8001990:	4620      	mov	r0, r4
 8001992:	9500      	str	r5, [sp, #0]
 8001994:	463b      	mov	r3, r7
 8001996:	f04f 1101 	mov.w	r1, #65537	; 0x10001
 800199a:	f7ff fcd8 	bl	800134e <I2C_WaitOnFlagUntilTimeout>
 800199e:	6822      	ldr	r2, [r4, #0]
 80019a0:	b108      	cbz	r0, 80019a6 <HAL_I2C_Master_Receive+0x186>
 80019a2:	6813      	ldr	r3, [r2, #0]
 80019a4:	e79b      	b.n	80018de <HAL_I2C_Master_Receive+0xbe>
 80019a6:	f048 03f1 	orr.w	r3, r8, #241	; 0xf1
 80019aa:	6113      	str	r3, [r2, #16]
 80019ac:	e7a6      	b.n	80018fc <HAL_I2C_Master_Receive+0xdc>
 80019ae:	2b01      	cmp	r3, #1
 80019b0:	d10a      	bne.n	80019c8 <HAL_I2C_Master_Receive+0x1a8>
 80019b2:	680b      	ldr	r3, [r1, #0]
 80019b4:	f423 6380 	bic.w	r3, r3, #1024	; 0x400
 80019b8:	600b      	str	r3, [r1, #0]
 80019ba:	9004      	str	r0, [sp, #16]
 80019bc:	694b      	ldr	r3, [r1, #20]
 80019be:	9304      	str	r3, [sp, #16]
 80019c0:	698b      	ldr	r3, [r1, #24]
 80019c2:	9304      	str	r3, [sp, #16]
 80019c4:	9b04      	ldr	r3, [sp, #16]
 80019c6:	e7ac      	b.n	8001922 <HAL_I2C_Master_Receive+0x102>
 80019c8:	2b02      	cmp	r3, #2
 80019ca:	680b      	ldr	r3, [r1, #0]
 80019cc:	d10d      	bne.n	80019ea <HAL_I2C_Master_Receive+0x1ca>
 80019ce:	f423 6380 	bic.w	r3, r3, #1024	; 0x400
 80019d2:	600b      	str	r3, [r1, #0]
 80019d4:	680b      	ldr	r3, [r1, #0]
 80019d6:	f443 6300 	orr.w	r3, r3, #2048	; 0x800
 80019da:	600b      	str	r3, [r1, #0]
 80019dc:	9005      	str	r0, [sp, #20]
 80019de:	694b      	ldr	r3, [r1, #20]
 80019e0:	9305      	str	r3, [sp, #20]
 80019e2:	698b      	ldr	r3, [r1, #24]
 80019e4:	9305      	str	r3, [sp, #20]
 80019e6:	9b05      	ldr	r3, [sp, #20]
 80019e8:	e79f      	b.n	800192a <HAL_I2C_Master_Receive+0x10a>
 80019ea:	f443 6380 	orr.w	r3, r3, #1024	; 0x400
 80019ee:	600b      	str	r3, [r1, #0]
 80019f0:	9006      	str	r0, [sp, #24]
 80019f2:	694b      	ldr	r3, [r1, #20]
 80019f4:	9306      	str	r3, [sp, #24]
 80019f6:	698b      	ldr	r3, [r1, #24]
 80019f8:	9306      	str	r3, [sp, #24]
 80019fa:	9b06      	ldr	r3, [sp, #24]
 80019fc:	e795      	b.n	800192a <HAL_I2C_Master_Receive+0x10a>
 80019fe:	2b03      	cmp	r3, #3
 8001a00:	d862      	bhi.n	8001ac8 <HAL_I2C_Master_Receive+0x2a8>
 8001a02:	2b01      	cmp	r3, #1
 8001a04:	d116      	bne.n	8001a34 <HAL_I2C_Master_Receive+0x214>
 8001a06:	462a      	mov	r2, r5
 8001a08:	4639      	mov	r1, r7
 8001a0a:	4620      	mov	r0, r4
 8001a0c:	f7ff fd0c 	bl	8001428 <I2C_WaitOnRXNEFlagUntilTimeout>
 8001a10:	2800      	cmp	r0, #0
 8001a12:	f47f af69 	bne.w	80018e8 <HAL_I2C_Master_Receive+0xc8>
 8001a16:	6823      	ldr	r3, [r4, #0]
 8001a18:	691a      	ldr	r2, [r3, #16]
 8001a1a:	6a63      	ldr	r3, [r4, #36]	; 0x24
 8001a1c:	701a      	strb	r2, [r3, #0]
 8001a1e:	6a63      	ldr	r3, [r4, #36]	; 0x24
 8001a20:	3301      	adds	r3, #1
 8001a22:	6263      	str	r3, [r4, #36]	; 0x24
 8001a24:	8d23      	ldrh	r3, [r4, #40]	; 0x28
 8001a26:	3b01      	subs	r3, #1
 8001a28:	8523      	strh	r3, [r4, #40]	; 0x28
 8001a2a:	8d63      	ldrh	r3, [r4, #42]	; 0x2a
 8001a2c:	3b01      	subs	r3, #1
 8001a2e:	b29b      	uxth	r3, r3
 8001a30:	8563      	strh	r3, [r4, #42]	; 0x2a
 8001a32:	e77c      	b.n	800192e <HAL_I2C_Master_Receive+0x10e>
 8001a34:	2b02      	cmp	r3, #2
 8001a36:	9500      	str	r5, [sp, #0]
 8001a38:	463b      	mov	r3, r7
 8001a3a:	f04f 0200 	mov.w	r2, #0
 8001a3e:	4641      	mov	r1, r8
 8001a40:	4620      	mov	r0, r4
 8001a42:	d11a      	bne.n	8001a7a <HAL_I2C_Master_Receive+0x25a>
 8001a44:	f7ff fc83 	bl	800134e <I2C_WaitOnFlagUntilTimeout>
 8001a48:	2800      	cmp	r0, #0
 8001a4a:	f47f af4d 	bne.w	80018e8 <HAL_I2C_Master_Receive+0xc8>
 8001a4e:	6823      	ldr	r3, [r4, #0]
 8001a50:	681a      	ldr	r2, [r3, #0]
 8001a52:	f442 7200 	orr.w	r2, r2, #512	; 0x200
 8001a56:	601a      	str	r2, [r3, #0]
 8001a58:	691a      	ldr	r2, [r3, #16]
 8001a5a:	6a63      	ldr	r3, [r4, #36]	; 0x24
 8001a5c:	701a      	strb	r2, [r3, #0]
 8001a5e:	6a62      	ldr	r2, [r4, #36]	; 0x24
 8001a60:	1c53      	adds	r3, r2, #1
 8001a62:	6263      	str	r3, [r4, #36]	; 0x24
 8001a64:	8d23      	ldrh	r3, [r4, #40]	; 0x28
 8001a66:	3b01      	subs	r3, #1
 8001a68:	8523      	strh	r3, [r4, #40]	; 0x28
 8001a6a:	8d63      	ldrh	r3, [r4, #42]	; 0x2a
 8001a6c:	3b01      	subs	r3, #1
 8001a6e:	b29b      	uxth	r3, r3
 8001a70:	8563      	strh	r3, [r4, #42]	; 0x2a
 8001a72:	6823      	ldr	r3, [r4, #0]
 8001a74:	691b      	ldr	r3, [r3, #16]
 8001a76:	7053      	strb	r3, [r2, #1]
 8001a78:	e7d1      	b.n	8001a1e <HAL_I2C_Master_Receive+0x1fe>
 8001a7a:	f7ff fc68 	bl	800134e <I2C_WaitOnFlagUntilTimeout>
 8001a7e:	4602      	mov	r2, r0
 8001a80:	2800      	cmp	r0, #0
 8001a82:	f47f af31 	bne.w	80018e8 <HAL_I2C_Master_Receive+0xc8>
 8001a86:	6823      	ldr	r3, [r4, #0]
 8001a88:	6819      	ldr	r1, [r3, #0]
 8001a8a:	f421 6180 	bic.w	r1, r1, #1024	; 0x400
 8001a8e:	6019      	str	r1, [r3, #0]
 8001a90:	6919      	ldr	r1, [r3, #16]
 8001a92:	6a63      	ldr	r3, [r4, #36]	; 0x24
 8001a94:	7019      	strb	r1, [r3, #0]
 8001a96:	6a63      	ldr	r3, [r4, #36]	; 0x24
 8001a98:	9500      	str	r5, [sp, #0]
 8001a9a:	3301      	adds	r3, #1
 8001a9c:	6263      	str	r3, [r4, #36]	; 0x24
 8001a9e:	8d23      	ldrh	r3, [r4, #40]	; 0x28
 8001aa0:	3b01      	subs	r3, #1
 8001aa2:	8523      	strh	r3, [r4, #40]	; 0x28
 8001aa4:	8d63      	ldrh	r3, [r4, #42]	; 0x2a
 8001aa6:	3b01      	subs	r3, #1
 8001aa8:	b29b      	uxth	r3, r3
 8001aaa:	8563      	strh	r3, [r4, #42]	; 0x2a
 8001aac:	4641      	mov	r1, r8
 8001aae:	463b      	mov	r3, r7
 8001ab0:	4620      	mov	r0, r4
 8001ab2:	e7c7      	b.n	8001a44 <HAL_I2C_Master_Receive+0x224>
 8001ab4:	00100002 	.word	0x00100002
 8001ab8:	ffff0000 	.word	0xffff0000
 8001abc:	00010002 	.word	0x00010002
 8001ac0:	00010008 	.word	0x00010008
 8001ac4:	00010004 	.word	0x00010004
 8001ac8:	462a      	mov	r2, r5
 8001aca:	4639      	mov	r1, r7
 8001acc:	4620      	mov	r0, r4
 8001ace:	f7ff fcab 	bl	8001428 <I2C_WaitOnRXNEFlagUntilTimeout>
 8001ad2:	2800      	cmp	r0, #0
 8001ad4:	f47f af08 	bne.w	80018e8 <HAL_I2C_Master_Receive+0xc8>
 8001ad8:	6823      	ldr	r3, [r4, #0]
 8001ada:	691a      	ldr	r2, [r3, #16]
 8001adc:	6a63      	ldr	r3, [r4, #36]	; 0x24
 8001ade:	701a      	strb	r2, [r3, #0]
 8001ae0:	6a62      	ldr	r2, [r4, #36]	; 0x24
 8001ae2:	1c53      	adds	r3, r2, #1
 8001ae4:	6263      	str	r3, [r4, #36]	; 0x24
 8001ae6:	8d23      	ldrh	r3, [r4, #40]	; 0x28
 8001ae8:	3b01      	subs	r3, #1
 8001aea:	8523      	strh	r3, [r4, #40]	; 0x28
 8001aec:	8d63      	ldrh	r3, [r4, #42]	; 0x2a
 8001aee:	3b01      	subs	r3, #1
 8001af0:	b29b      	uxth	r3, r3
 8001af2:	8563      	strh	r3, [r4, #42]	; 0x2a
 8001af4:	6823      	ldr	r3, [r4, #0]
 8001af6:	6959      	ldr	r1, [r3, #20]
 8001af8:	0749      	lsls	r1, r1, #29
 8001afa:	f57f af18 	bpl.w	800192e <HAL_I2C_Master_Receive+0x10e>
 8001afe:	e7b9      	b.n	8001a74 <HAL_I2C_Master_Receive+0x254>

08001b00 <HAL_I2C_IsDeviceReady>:
 8001b00:	e92d 4ff0 	stmdb	sp!, {r4, r5, r6, r7, r8, r9, sl, fp, lr}
 8001b04:	4604      	mov	r4, r0
 8001b06:	b085      	sub	sp, #20
 8001b08:	461f      	mov	r7, r3
 8001b0a:	4688      	mov	r8, r1
 8001b0c:	4692      	mov	sl, r2
 8001b0e:	f7ff fa83 	bl	8001018 <HAL_GetTick>
 8001b12:	f894 303d 	ldrb.w	r3, [r4, #61]	; 0x3d
 8001b16:	2b20      	cmp	r3, #32
 8001b18:	4605      	mov	r5, r0
 8001b1a:	d003      	beq.n	8001b24 <HAL_I2C_IsDeviceReady+0x24>
 8001b1c:	2002      	movs	r0, #2
 8001b1e:	b005      	add	sp, #20
 8001b20:	e8bd 8ff0 	ldmia.w	sp!, {r4, r5, r6, r7, r8, r9, sl, fp, pc}
 8001b24:	9000      	str	r0, [sp, #0]
 8001b26:	494c      	ldr	r1, [pc, #304]	; (8001c58 <HAL_I2C_IsDeviceReady+0x158>)
 8001b28:	2319      	movs	r3, #25
 8001b2a:	2201      	movs	r2, #1
 8001b2c:	4620      	mov	r0, r4
 8001b2e:	f7ff fc0e 	bl	800134e <I2C_WaitOnFlagUntilTimeout>
 8001b32:	2800      	cmp	r0, #0
 8001b34:	d1f2      	bne.n	8001b1c <HAL_I2C_IsDeviceReady+0x1c>
 8001b36:	f894 303c 	ldrb.w	r3, [r4, #60]	; 0x3c
 8001b3a:	2b01      	cmp	r3, #1
 8001b3c:	d0ee      	beq.n	8001b1c <HAL_I2C_IsDeviceReady+0x1c>
 8001b3e:	2301      	movs	r3, #1
 8001b40:	f884 303c 	strb.w	r3, [r4, #60]	; 0x3c
 8001b44:	6823      	ldr	r3, [r4, #0]
 8001b46:	f8df b110 	ldr.w	fp, [pc, #272]	; 8001c58 <HAL_I2C_IsDeviceReady+0x158>
 8001b4a:	681a      	ldr	r2, [r3, #0]
 8001b4c:	07d2      	lsls	r2, r2, #31
 8001b4e:	bf5e      	ittt	pl
 8001b50:	681a      	ldrpl	r2, [r3, #0]
 8001b52:	f042 0201 	orrpl.w	r2, r2, #1
 8001b56:	601a      	strpl	r2, [r3, #0]
 8001b58:	681a      	ldr	r2, [r3, #0]
 8001b5a:	f422 6200 	bic.w	r2, r2, #2048	; 0x800
 8001b5e:	601a      	str	r2, [r3, #0]
 8001b60:	2324      	movs	r3, #36	; 0x24
 8001b62:	f884 303d 	strb.w	r3, [r4, #61]	; 0x3d
 8001b66:	2600      	movs	r6, #0
 8001b68:	4b3c      	ldr	r3, [pc, #240]	; (8001c5c <HAL_I2C_IsDeviceReady+0x15c>)
 8001b6a:	6426      	str	r6, [r4, #64]	; 0x40
 8001b6c:	f008 08fe 	and.w	r8, r8, #254	; 0xfe
 8001b70:	62e3      	str	r3, [r4, #44]	; 0x2c
 8001b72:	6822      	ldr	r2, [r4, #0]
 8001b74:	6813      	ldr	r3, [r2, #0]
 8001b76:	f443 7380 	orr.w	r3, r3, #256	; 0x100
 8001b7a:	6013      	str	r3, [r2, #0]
 8001b7c:	f04f 1101 	mov.w	r1, #65537	; 0x10001
 8001b80:	463b      	mov	r3, r7
 8001b82:	9500      	str	r5, [sp, #0]
 8001b84:	2200      	movs	r2, #0
 8001b86:	4620      	mov	r0, r4
 8001b88:	f7ff fbe1 	bl	800134e <I2C_WaitOnFlagUntilTimeout>
 8001b8c:	6823      	ldr	r3, [r4, #0]
 8001b8e:	b138      	cbz	r0, 8001ba0 <HAL_I2C_IsDeviceReady+0xa0>
 8001b90:	681b      	ldr	r3, [r3, #0]
 8001b92:	05db      	lsls	r3, r3, #23
 8001b94:	d502      	bpl.n	8001b9c <HAL_I2C_IsDeviceReady+0x9c>
 8001b96:	f44f 7300 	mov.w	r3, #512	; 0x200
 8001b9a:	6423      	str	r3, [r4, #64]	; 0x40
 8001b9c:	2003      	movs	r0, #3
 8001b9e:	e7be      	b.n	8001b1e <HAL_I2C_IsDeviceReady+0x1e>
 8001ba0:	f8c3 8010 	str.w	r8, [r3, #16]
 8001ba4:	f7ff fa38 	bl	8001018 <HAL_GetTick>
 8001ba8:	6823      	ldr	r3, [r4, #0]
 8001baa:	695a      	ldr	r2, [r3, #20]
 8001bac:	695b      	ldr	r3, [r3, #20]
 8001bae:	4605      	mov	r5, r0
 8001bb0:	f3c2 0240 	ubfx	r2, r2, #1, #1
 8001bb4:	f3c3 2380 	ubfx	r3, r3, #10, #1
 8001bb8:	f04f 09a0 	mov.w	r9, #160	; 0xa0
 8001bbc:	f894 103d 	ldrb.w	r1, [r4, #61]	; 0x3d
 8001bc0:	29a0      	cmp	r1, #160	; 0xa0
 8001bc2:	d001      	beq.n	8001bc8 <HAL_I2C_IsDeviceReady+0xc8>
 8001bc4:	4313      	orrs	r3, r2
 8001bc6:	d01d      	beq.n	8001c04 <HAL_I2C_IsDeviceReady+0x104>
 8001bc8:	6823      	ldr	r3, [r4, #0]
 8001bca:	f04f 0920 	mov.w	r9, #32
 8001bce:	f884 903d 	strb.w	r9, [r4, #61]	; 0x3d
 8001bd2:	695a      	ldr	r2, [r3, #20]
 8001bd4:	f012 0f02 	tst.w	r2, #2
 8001bd8:	681a      	ldr	r2, [r3, #0]
 8001bda:	f442 7200 	orr.w	r2, r2, #512	; 0x200
 8001bde:	601a      	str	r2, [r3, #0]
 8001be0:	d025      	beq.n	8001c2e <HAL_I2C_IsDeviceReady+0x12e>
 8001be2:	2200      	movs	r2, #0
 8001be4:	9203      	str	r2, [sp, #12]
 8001be6:	695a      	ldr	r2, [r3, #20]
 8001be8:	9203      	str	r2, [sp, #12]
 8001bea:	699b      	ldr	r3, [r3, #24]
 8001bec:	9303      	str	r3, [sp, #12]
 8001bee:	9b03      	ldr	r3, [sp, #12]
 8001bf0:	4919      	ldr	r1, [pc, #100]	; (8001c58 <HAL_I2C_IsDeviceReady+0x158>)
 8001bf2:	9500      	str	r5, [sp, #0]
 8001bf4:	2319      	movs	r3, #25
 8001bf6:	2201      	movs	r2, #1
 8001bf8:	4620      	mov	r0, r4
 8001bfa:	f7ff fba8 	bl	800134e <I2C_WaitOnFlagUntilTimeout>
 8001bfe:	b188      	cbz	r0, 8001c24 <HAL_I2C_IsDeviceReady+0x124>
 8001c00:	2001      	movs	r0, #1
 8001c02:	e78c      	b.n	8001b1e <HAL_I2C_IsDeviceReady+0x1e>
 8001c04:	f7ff fa08 	bl	8001018 <HAL_GetTick>
 8001c08:	1b40      	subs	r0, r0, r5
 8001c0a:	42b8      	cmp	r0, r7
 8001c0c:	d800      	bhi.n	8001c10 <HAL_I2C_IsDeviceReady+0x110>
 8001c0e:	b90f      	cbnz	r7, 8001c14 <HAL_I2C_IsDeviceReady+0x114>
 8001c10:	f884 903d 	strb.w	r9, [r4, #61]	; 0x3d
 8001c14:	6823      	ldr	r3, [r4, #0]
 8001c16:	695a      	ldr	r2, [r3, #20]
 8001c18:	695b      	ldr	r3, [r3, #20]
 8001c1a:	f3c2 0240 	ubfx	r2, r2, #1, #1
 8001c1e:	f3c3 2380 	ubfx	r3, r3, #10, #1
 8001c22:	e7cb      	b.n	8001bbc <HAL_I2C_IsDeviceReady+0xbc>
 8001c24:	f884 903d 	strb.w	r9, [r4, #61]	; 0x3d
 8001c28:	f884 003c 	strb.w	r0, [r4, #60]	; 0x3c
 8001c2c:	e777      	b.n	8001b1e <HAL_I2C_IsDeviceReady+0x1e>
 8001c2e:	f46f 6280 	mvn.w	r2, #1024	; 0x400
 8001c32:	615a      	str	r2, [r3, #20]
 8001c34:	4659      	mov	r1, fp
 8001c36:	9500      	str	r5, [sp, #0]
 8001c38:	2319      	movs	r3, #25
 8001c3a:	2201      	movs	r2, #1
 8001c3c:	4620      	mov	r0, r4
 8001c3e:	f7ff fb86 	bl	800134e <I2C_WaitOnFlagUntilTimeout>
 8001c42:	2800      	cmp	r0, #0
 8001c44:	d1dc      	bne.n	8001c00 <HAL_I2C_IsDeviceReady+0x100>
 8001c46:	3601      	adds	r6, #1
 8001c48:	4556      	cmp	r6, sl
 8001c4a:	d392      	bcc.n	8001b72 <HAL_I2C_IsDeviceReady+0x72>
 8001c4c:	f884 903d 	strb.w	r9, [r4, #61]	; 0x3d
 8001c50:	f884 003c 	strb.w	r0, [r4, #60]	; 0x3c
 8001c54:	e7d4      	b.n	8001c00 <HAL_I2C_IsDeviceReady+0x100>
 8001c56:	bf00      	nop
 8001c58:	00100002 	.word	0x00100002
 8001c5c:	ffff0000 	.word	0xffff0000

08001c60 <HAL_RCC_OscConfig>:
 8001c60:	e92d 41f3 	stmdb	sp!, {r0, r1, r4, r5, r6, r7, r8, lr}
 8001c64:	4604      	mov	r4, r0
 8001c66:	b340      	cbz	r0, 8001cba <HAL_RCC_OscConfig+0x5a>
 8001c68:	6803      	ldr	r3, [r0, #0]
 8001c6a:	07dd      	lsls	r5, r3, #31
 8001c6c:	d410      	bmi.n	8001c90 <HAL_RCC_OscConfig+0x30>
 8001c6e:	6823      	ldr	r3, [r4, #0]
 8001c70:	0798      	lsls	r0, r3, #30
 8001c72:	d45b      	bmi.n	8001d2c <HAL_RCC_OscConfig+0xcc>
 8001c74:	6823      	ldr	r3, [r4, #0]
 8001c76:	071a      	lsls	r2, r3, #28
 8001c78:	f100 809d 	bmi.w	8001db6 <HAL_RCC_OscConfig+0x156>
 8001c7c:	6823      	ldr	r3, [r4, #0]
 8001c7e:	075b      	lsls	r3, r3, #29
 8001c80:	f100 80bd 	bmi.w	8001dfe <HAL_RCC_OscConfig+0x19e>
 8001c84:	69a0      	ldr	r0, [r4, #24]
 8001c86:	2800      	cmp	r0, #0
 8001c88:	f040 8124 	bne.w	8001ed4 <HAL_RCC_OscConfig+0x274>
 8001c8c:	2000      	movs	r0, #0
 8001c8e:	e02c      	b.n	8001cea <HAL_RCC_OscConfig+0x8a>
 8001c90:	4b8d      	ldr	r3, [pc, #564]	; (8001ec8 <HAL_RCC_OscConfig+0x268>)
 8001c92:	689a      	ldr	r2, [r3, #8]
 8001c94:	f002 020c 	and.w	r2, r2, #12
 8001c98:	2a04      	cmp	r2, #4
 8001c9a:	d007      	beq.n	8001cac <HAL_RCC_OscConfig+0x4c>
 8001c9c:	689a      	ldr	r2, [r3, #8]
 8001c9e:	f002 020c 	and.w	r2, r2, #12
 8001ca2:	2a08      	cmp	r2, #8
 8001ca4:	d10b      	bne.n	8001cbe <HAL_RCC_OscConfig+0x5e>
 8001ca6:	685b      	ldr	r3, [r3, #4]
 8001ca8:	0259      	lsls	r1, r3, #9
 8001caa:	d508      	bpl.n	8001cbe <HAL_RCC_OscConfig+0x5e>
 8001cac:	4b86      	ldr	r3, [pc, #536]	; (8001ec8 <HAL_RCC_OscConfig+0x268>)
 8001cae:	681b      	ldr	r3, [r3, #0]
 8001cb0:	039a      	lsls	r2, r3, #14
 8001cb2:	d5dc      	bpl.n	8001c6e <HAL_RCC_OscConfig+0xe>
 8001cb4:	6863      	ldr	r3, [r4, #4]
 8001cb6:	2b00      	cmp	r3, #0
 8001cb8:	d1d9      	bne.n	8001c6e <HAL_RCC_OscConfig+0xe>
 8001cba:	2001      	movs	r0, #1
 8001cbc:	e015      	b.n	8001cea <HAL_RCC_OscConfig+0x8a>
 8001cbe:	6863      	ldr	r3, [r4, #4]
 8001cc0:	4d81      	ldr	r5, [pc, #516]	; (8001ec8 <HAL_RCC_OscConfig+0x268>)
 8001cc2:	f5b3 3f80 	cmp.w	r3, #65536	; 0x10000
 8001cc6:	d113      	bne.n	8001cf0 <HAL_RCC_OscConfig+0x90>
 8001cc8:	682b      	ldr	r3, [r5, #0]
 8001cca:	f443 3380 	orr.w	r3, r3, #65536	; 0x10000
 8001cce:	602b      	str	r3, [r5, #0]
 8001cd0:	f7ff f9a2 	bl	8001018 <HAL_GetTick>
 8001cd4:	4e7c      	ldr	r6, [pc, #496]	; (8001ec8 <HAL_RCC_OscConfig+0x268>)
 8001cd6:	4605      	mov	r5, r0
 8001cd8:	6833      	ldr	r3, [r6, #0]
 8001cda:	039b      	lsls	r3, r3, #14
 8001cdc:	d4c7      	bmi.n	8001c6e <HAL_RCC_OscConfig+0xe>
 8001cde:	f7ff f99b 	bl	8001018 <HAL_GetTick>
 8001ce2:	1b40      	subs	r0, r0, r5
 8001ce4:	2864      	cmp	r0, #100	; 0x64
 8001ce6:	d9f7      	bls.n	8001cd8 <HAL_RCC_OscConfig+0x78>
 8001ce8:	2003      	movs	r0, #3
 8001cea:	b002      	add	sp, #8
 8001cec:	e8bd 81f0 	ldmia.w	sp!, {r4, r5, r6, r7, r8, pc}
 8001cf0:	f5b3 2fa0 	cmp.w	r3, #327680	; 0x50000
 8001cf4:	d104      	bne.n	8001d00 <HAL_RCC_OscConfig+0xa0>
 8001cf6:	682b      	ldr	r3, [r5, #0]
 8001cf8:	f443 2380 	orr.w	r3, r3, #262144	; 0x40000
 8001cfc:	602b      	str	r3, [r5, #0]
 8001cfe:	e7e3      	b.n	8001cc8 <HAL_RCC_OscConfig+0x68>
 8001d00:	682a      	ldr	r2, [r5, #0]
 8001d02:	f422 3280 	bic.w	r2, r2, #65536	; 0x10000
 8001d06:	602a      	str	r2, [r5, #0]
 8001d08:	682a      	ldr	r2, [r5, #0]
 8001d0a:	f422 2280 	bic.w	r2, r2, #262144	; 0x40000
 8001d0e:	602a      	str	r2, [r5, #0]
 8001d10:	2b00      	cmp	r3, #0
 8001d12:	d1dd      	bne.n	8001cd0 <HAL_RCC_OscConfig+0x70>
 8001d14:	f7ff f980 	bl	8001018 <HAL_GetTick>
 8001d18:	4606      	mov	r6, r0
 8001d1a:	682b      	ldr	r3, [r5, #0]
 8001d1c:	039f      	lsls	r7, r3, #14
 8001d1e:	d5a6      	bpl.n	8001c6e <HAL_RCC_OscConfig+0xe>
 8001d20:	f7ff f97a 	bl	8001018 <HAL_GetTick>
 8001d24:	1b80      	subs	r0, r0, r6
 8001d26:	2864      	cmp	r0, #100	; 0x64
 8001d28:	d9f7      	bls.n	8001d1a <HAL_RCC_OscConfig+0xba>
 8001d2a:	e7dd      	b.n	8001ce8 <HAL_RCC_OscConfig+0x88>
 8001d2c:	4b66      	ldr	r3, [pc, #408]	; (8001ec8 <HAL_RCC_OscConfig+0x268>)
 8001d2e:	689a      	ldr	r2, [r3, #8]
 8001d30:	f012 0f0c 	tst.w	r2, #12
 8001d34:	d007      	beq.n	8001d46 <HAL_RCC_OscConfig+0xe6>
 8001d36:	689a      	ldr	r2, [r3, #8]
 8001d38:	f002 020c 	and.w	r2, r2, #12
 8001d3c:	2a08      	cmp	r2, #8
 8001d3e:	d111      	bne.n	8001d64 <HAL_RCC_OscConfig+0x104>
 8001d40:	685b      	ldr	r3, [r3, #4]
 8001d42:	025e      	lsls	r6, r3, #9
 8001d44:	d40e      	bmi.n	8001d64 <HAL_RCC_OscConfig+0x104>
 8001d46:	4a60      	ldr	r2, [pc, #384]	; (8001ec8 <HAL_RCC_OscConfig+0x268>)
 8001d48:	6813      	ldr	r3, [r2, #0]
 8001d4a:	079d      	lsls	r5, r3, #30
 8001d4c:	d502      	bpl.n	8001d54 <HAL_RCC_OscConfig+0xf4>
 8001d4e:	68e3      	ldr	r3, [r4, #12]
 8001d50:	2b01      	cmp	r3, #1
 8001d52:	d1b2      	bne.n	8001cba <HAL_RCC_OscConfig+0x5a>
 8001d54:	6813      	ldr	r3, [r2, #0]
 8001d56:	6921      	ldr	r1, [r4, #16]
 8001d58:	f023 03f8 	bic.w	r3, r3, #248	; 0xf8
 8001d5c:	ea43 03c1 	orr.w	r3, r3, r1, lsl #3
 8001d60:	6013      	str	r3, [r2, #0]
 8001d62:	e787      	b.n	8001c74 <HAL_RCC_OscConfig+0x14>
 8001d64:	68e2      	ldr	r2, [r4, #12]
 8001d66:	4b59      	ldr	r3, [pc, #356]	; (8001ecc <HAL_RCC_OscConfig+0x26c>)
 8001d68:	b1b2      	cbz	r2, 8001d98 <HAL_RCC_OscConfig+0x138>
 8001d6a:	2201      	movs	r2, #1
 8001d6c:	601a      	str	r2, [r3, #0]
 8001d6e:	f7ff f953 	bl	8001018 <HAL_GetTick>
 8001d72:	4d55      	ldr	r5, [pc, #340]	; (8001ec8 <HAL_RCC_OscConfig+0x268>)
 8001d74:	4606      	mov	r6, r0
 8001d76:	682b      	ldr	r3, [r5, #0]
 8001d78:	0798      	lsls	r0, r3, #30
 8001d7a:	d507      	bpl.n	8001d8c <HAL_RCC_OscConfig+0x12c>
 8001d7c:	682b      	ldr	r3, [r5, #0]
 8001d7e:	6922      	ldr	r2, [r4, #16]
 8001d80:	f023 03f8 	bic.w	r3, r3, #248	; 0xf8
 8001d84:	ea43 03c2 	orr.w	r3, r3, r2, lsl #3
 8001d88:	602b      	str	r3, [r5, #0]
 8001d8a:	e773      	b.n	8001c74 <HAL_RCC_OscConfig+0x14>
 8001d8c:	f7ff f944 	bl	8001018 <HAL_GetTick>
 8001d90:	1b80      	subs	r0, r0, r6
 8001d92:	2802      	cmp	r0, #2
 8001d94:	d9ef      	bls.n	8001d76 <HAL_RCC_OscConfig+0x116>
 8001d96:	e7a7      	b.n	8001ce8 <HAL_RCC_OscConfig+0x88>
 8001d98:	601a      	str	r2, [r3, #0]
 8001d9a:	f7ff f93d 	bl	8001018 <HAL_GetTick>
 8001d9e:	4e4a      	ldr	r6, [pc, #296]	; (8001ec8 <HAL_RCC_OscConfig+0x268>)
 8001da0:	4605      	mov	r5, r0
 8001da2:	6833      	ldr	r3, [r6, #0]
 8001da4:	0799      	lsls	r1, r3, #30
 8001da6:	f57f af65 	bpl.w	8001c74 <HAL_RCC_OscConfig+0x14>
 8001daa:	f7ff f935 	bl	8001018 <HAL_GetTick>
 8001dae:	1b40      	subs	r0, r0, r5
 8001db0:	2802      	cmp	r0, #2
 8001db2:	d9f6      	bls.n	8001da2 <HAL_RCC_OscConfig+0x142>
 8001db4:	e798      	b.n	8001ce8 <HAL_RCC_OscConfig+0x88>
 8001db6:	6962      	ldr	r2, [r4, #20]
 8001db8:	4b44      	ldr	r3, [pc, #272]	; (8001ecc <HAL_RCC_OscConfig+0x26c>)
 8001dba:	b182      	cbz	r2, 8001dde <HAL_RCC_OscConfig+0x17e>
 8001dbc:	2201      	movs	r2, #1
 8001dbe:	f8c3 2e80 	str.w	r2, [r3, #3712]	; 0xe80
 8001dc2:	f7ff f929 	bl	8001018 <HAL_GetTick>
 8001dc6:	4e40      	ldr	r6, [pc, #256]	; (8001ec8 <HAL_RCC_OscConfig+0x268>)
 8001dc8:	4605      	mov	r5, r0
 8001dca:	6f73      	ldr	r3, [r6, #116]	; 0x74
 8001dcc:	079f      	lsls	r7, r3, #30
 8001dce:	f53f af55 	bmi.w	8001c7c <HAL_RCC_OscConfig+0x1c>
 8001dd2:	f7ff f921 	bl	8001018 <HAL_GetTick>
 8001dd6:	1b40      	subs	r0, r0, r5
 8001dd8:	2802      	cmp	r0, #2
 8001dda:	d9f6      	bls.n	8001dca <HAL_RCC_OscConfig+0x16a>
 8001ddc:	e784      	b.n	8001ce8 <HAL_RCC_OscConfig+0x88>
 8001dde:	f8c3 2e80 	str.w	r2, [r3, #3712]	; 0xe80
 8001de2:	f7ff f919 	bl	8001018 <HAL_GetTick>
 8001de6:	4e38      	ldr	r6, [pc, #224]	; (8001ec8 <HAL_RCC_OscConfig+0x268>)
 8001de8:	4605      	mov	r5, r0
 8001dea:	6f73      	ldr	r3, [r6, #116]	; 0x74
 8001dec:	0798      	lsls	r0, r3, #30
 8001dee:	f57f af45 	bpl.w	8001c7c <HAL_RCC_OscConfig+0x1c>
 8001df2:	f7ff f911 	bl	8001018 <HAL_GetTick>
 8001df6:	1b40      	subs	r0, r0, r5
 8001df8:	2802      	cmp	r0, #2
 8001dfa:	d9f6      	bls.n	8001dea <HAL_RCC_OscConfig+0x18a>
 8001dfc:	e774      	b.n	8001ce8 <HAL_RCC_OscConfig+0x88>
 8001dfe:	4b32      	ldr	r3, [pc, #200]	; (8001ec8 <HAL_RCC_OscConfig+0x268>)
 8001e00:	6c1a      	ldr	r2, [r3, #64]	; 0x40
 8001e02:	f012 5280 	ands.w	r2, r2, #268435456	; 0x10000000
 8001e06:	d128      	bne.n	8001e5a <HAL_RCC_OscConfig+0x1fa>
 8001e08:	9201      	str	r2, [sp, #4]
 8001e0a:	6c1a      	ldr	r2, [r3, #64]	; 0x40
 8001e0c:	f042 5280 	orr.w	r2, r2, #268435456	; 0x10000000
 8001e10:	641a      	str	r2, [r3, #64]	; 0x40
 8001e12:	6c1b      	ldr	r3, [r3, #64]	; 0x40
 8001e14:	f003 5380 	and.w	r3, r3, #268435456	; 0x10000000
 8001e18:	9301      	str	r3, [sp, #4]
 8001e1a:	9b01      	ldr	r3, [sp, #4]
 8001e1c:	2701      	movs	r7, #1
 8001e1e:	4d2c      	ldr	r5, [pc, #176]	; (8001ed0 <HAL_RCC_OscConfig+0x270>)
 8001e20:	682b      	ldr	r3, [r5, #0]
 8001e22:	05d9      	lsls	r1, r3, #23
 8001e24:	d51b      	bpl.n	8001e5e <HAL_RCC_OscConfig+0x1fe>
 8001e26:	68a3      	ldr	r3, [r4, #8]
 8001e28:	4d27      	ldr	r5, [pc, #156]	; (8001ec8 <HAL_RCC_OscConfig+0x268>)
 8001e2a:	2b01      	cmp	r3, #1
 8001e2c:	d127      	bne.n	8001e7e <HAL_RCC_OscConfig+0x21e>
 8001e2e:	6f2b      	ldr	r3, [r5, #112]	; 0x70
 8001e30:	f043 0301 	orr.w	r3, r3, #1
 8001e34:	672b      	str	r3, [r5, #112]	; 0x70
 8001e36:	f7ff f8ef 	bl	8001018 <HAL_GetTick>
 8001e3a:	4e23      	ldr	r6, [pc, #140]	; (8001ec8 <HAL_RCC_OscConfig+0x268>)
 8001e3c:	4605      	mov	r5, r0
 8001e3e:	f241 3888 	movw	r8, #5000	; 0x1388
 8001e42:	6f33      	ldr	r3, [r6, #112]	; 0x70
 8001e44:	079b      	lsls	r3, r3, #30
 8001e46:	d539      	bpl.n	8001ebc <HAL_RCC_OscConfig+0x25c>
 8001e48:	2f00      	cmp	r7, #0
 8001e4a:	f43f af1b 	beq.w	8001c84 <HAL_RCC_OscConfig+0x24>
 8001e4e:	4a1e      	ldr	r2, [pc, #120]	; (8001ec8 <HAL_RCC_OscConfig+0x268>)
 8001e50:	6c13      	ldr	r3, [r2, #64]	; 0x40
 8001e52:	f023 5380 	bic.w	r3, r3, #268435456	; 0x10000000
 8001e56:	6413      	str	r3, [r2, #64]	; 0x40
 8001e58:	e714      	b.n	8001c84 <HAL_RCC_OscConfig+0x24>
 8001e5a:	2700      	movs	r7, #0
 8001e5c:	e7df      	b.n	8001e1e <HAL_RCC_OscConfig+0x1be>
 8001e5e:	682b      	ldr	r3, [r5, #0]
 8001e60:	f443 7380 	orr.w	r3, r3, #256	; 0x100
 8001e64:	602b      	str	r3, [r5, #0]
 8001e66:	f7ff f8d7 	bl	8001018 <HAL_GetTick>
 8001e6a:	4606      	mov	r6, r0
 8001e6c:	682b      	ldr	r3, [r5, #0]
 8001e6e:	05da      	lsls	r2, r3, #23
 8001e70:	d4d9      	bmi.n	8001e26 <HAL_RCC_OscConfig+0x1c6>
 8001e72:	f7ff f8d1 	bl	8001018 <HAL_GetTick>
 8001e76:	1b80      	subs	r0, r0, r6
 8001e78:	2802      	cmp	r0, #2
 8001e7a:	d9f7      	bls.n	8001e6c <HAL_RCC_OscConfig+0x20c>
 8001e7c:	e734      	b.n	8001ce8 <HAL_RCC_OscConfig+0x88>
 8001e7e:	2b05      	cmp	r3, #5
 8001e80:	d104      	bne.n	8001e8c <HAL_RCC_OscConfig+0x22c>
 8001e82:	6f2b      	ldr	r3, [r5, #112]	; 0x70
 8001e84:	f043 0304 	orr.w	r3, r3, #4
 8001e88:	672b      	str	r3, [r5, #112]	; 0x70
 8001e8a:	e7d0      	b.n	8001e2e <HAL_RCC_OscConfig+0x1ce>
 8001e8c:	6f2a      	ldr	r2, [r5, #112]	; 0x70
 8001e8e:	f022 0201 	bic.w	r2, r2, #1
 8001e92:	672a      	str	r2, [r5, #112]	; 0x70
 8001e94:	6f2a      	ldr	r2, [r5, #112]	; 0x70
 8001e96:	f022 0204 	bic.w	r2, r2, #4
 8001e9a:	672a      	str	r2, [r5, #112]	; 0x70
 8001e9c:	2b00      	cmp	r3, #0
 8001e9e:	d1ca      	bne.n	8001e36 <HAL_RCC_OscConfig+0x1d6>
 8001ea0:	f7ff f8ba 	bl	8001018 <HAL_GetTick>
 8001ea4:	f241 3888 	movw	r8, #5000	; 0x1388
 8001ea8:	4606      	mov	r6, r0
 8001eaa:	6f2b      	ldr	r3, [r5, #112]	; 0x70
 8001eac:	0798      	lsls	r0, r3, #30
 8001eae:	d5cb      	bpl.n	8001e48 <HAL_RCC_OscConfig+0x1e8>
 8001eb0:	f7ff f8b2 	bl	8001018 <HAL_GetTick>
 8001eb4:	1b80      	subs	r0, r0, r6
 8001eb6:	4540      	cmp	r0, r8
 8001eb8:	d9f7      	bls.n	8001eaa <HAL_RCC_OscConfig+0x24a>
 8001eba:	e715      	b.n	8001ce8 <HAL_RCC_OscConfig+0x88>
 8001ebc:	f7ff f8ac 	bl	8001018 <HAL_GetTick>
 8001ec0:	1b40      	subs	r0, r0, r5
 8001ec2:	4540      	cmp	r0, r8
 8001ec4:	d9bd      	bls.n	8001e42 <HAL_RCC_OscConfig+0x1e2>
 8001ec6:	e70f      	b.n	8001ce8 <HAL_RCC_OscConfig+0x88>
 8001ec8:	40023800 	.word	0x40023800
 8001ecc:	42470000 	.word	0x42470000
 8001ed0:	40007000 	.word	0x40007000
 8001ed4:	4d36      	ldr	r5, [pc, #216]	; (8001fb0 <HAL_RCC_OscConfig+0x350>)
 8001ed6:	68ab      	ldr	r3, [r5, #8]
 8001ed8:	f003 030c 	and.w	r3, r3, #12
 8001edc:	2b08      	cmp	r3, #8
 8001ede:	d03d      	beq.n	8001f5c <HAL_RCC_OscConfig+0x2fc>
 8001ee0:	4b34      	ldr	r3, [pc, #208]	; (8001fb4 <HAL_RCC_OscConfig+0x354>)
 8001ee2:	2200      	movs	r2, #0
 8001ee4:	2802      	cmp	r0, #2
 8001ee6:	661a      	str	r2, [r3, #96]	; 0x60
 8001ee8:	d12b      	bne.n	8001f42 <HAL_RCC_OscConfig+0x2e2>
 8001eea:	f7ff f895 	bl	8001018 <HAL_GetTick>
 8001eee:	4606      	mov	r6, r0
 8001ef0:	682b      	ldr	r3, [r5, #0]
 8001ef2:	0199      	lsls	r1, r3, #6
 8001ef4:	d41f      	bmi.n	8001f36 <HAL_RCC_OscConfig+0x2d6>
 8001ef6:	e9d4 3207 	ldrd	r3, r2, [r4, #28]
 8001efa:	4313      	orrs	r3, r2
 8001efc:	6a62      	ldr	r2, [r4, #36]	; 0x24
 8001efe:	ea43 1382 	orr.w	r3, r3, r2, lsl #6
 8001f02:	6ae2      	ldr	r2, [r4, #44]	; 0x2c
 8001f04:	ea43 6302 	orr.w	r3, r3, r2, lsl #24
 8001f08:	6aa2      	ldr	r2, [r4, #40]	; 0x28
 8001f0a:	0852      	lsrs	r2, r2, #1
 8001f0c:	3a01      	subs	r2, #1
 8001f0e:	ea43 4302 	orr.w	r3, r3, r2, lsl #16
 8001f12:	606b      	str	r3, [r5, #4]
 8001f14:	4b27      	ldr	r3, [pc, #156]	; (8001fb4 <HAL_RCC_OscConfig+0x354>)
 8001f16:	4d26      	ldr	r5, [pc, #152]	; (8001fb0 <HAL_RCC_OscConfig+0x350>)
 8001f18:	2201      	movs	r2, #1
 8001f1a:	661a      	str	r2, [r3, #96]	; 0x60
 8001f1c:	f7ff f87c 	bl	8001018 <HAL_GetTick>
 8001f20:	4604      	mov	r4, r0
 8001f22:	682b      	ldr	r3, [r5, #0]
 8001f24:	019a      	lsls	r2, r3, #6
 8001f26:	f53f aeb1 	bmi.w	8001c8c <HAL_RCC_OscConfig+0x2c>
 8001f2a:	f7ff f875 	bl	8001018 <HAL_GetTick>
 8001f2e:	1b00      	subs	r0, r0, r4
 8001f30:	2802      	cmp	r0, #2
 8001f32:	d9f6      	bls.n	8001f22 <HAL_RCC_OscConfig+0x2c2>
 8001f34:	e6d8      	b.n	8001ce8 <HAL_RCC_OscConfig+0x88>
 8001f36:	f7ff f86f 	bl	8001018 <HAL_GetTick>
 8001f3a:	1b80      	subs	r0, r0, r6
 8001f3c:	2802      	cmp	r0, #2
 8001f3e:	d9d7      	bls.n	8001ef0 <HAL_RCC_OscConfig+0x290>
 8001f40:	e6d2      	b.n	8001ce8 <HAL_RCC_OscConfig+0x88>
 8001f42:	f7ff f869 	bl	8001018 <HAL_GetTick>
 8001f46:	4604      	mov	r4, r0
 8001f48:	682b      	ldr	r3, [r5, #0]
 8001f4a:	019b      	lsls	r3, r3, #6
 8001f4c:	f57f ae9e 	bpl.w	8001c8c <HAL_RCC_OscConfig+0x2c>
 8001f50:	f7ff f862 	bl	8001018 <HAL_GetTick>
 8001f54:	1b00      	subs	r0, r0, r4
 8001f56:	2802      	cmp	r0, #2
 8001f58:	d9f6      	bls.n	8001f48 <HAL_RCC_OscConfig+0x2e8>
 8001f5a:	e6c5      	b.n	8001ce8 <HAL_RCC_OscConfig+0x88>
 8001f5c:	2801      	cmp	r0, #1
 8001f5e:	f43f aec4 	beq.w	8001cea <HAL_RCC_OscConfig+0x8a>
 8001f62:	686b      	ldr	r3, [r5, #4]
 8001f64:	69e2      	ldr	r2, [r4, #28]
 8001f66:	f403 0180 	and.w	r1, r3, #4194304	; 0x400000
 8001f6a:	4291      	cmp	r1, r2
 8001f6c:	f47f aea5 	bne.w	8001cba <HAL_RCC_OscConfig+0x5a>
 8001f70:	6a21      	ldr	r1, [r4, #32]
 8001f72:	f003 023f 	and.w	r2, r3, #63	; 0x3f
 8001f76:	428a      	cmp	r2, r1
 8001f78:	f47f ae9f 	bne.w	8001cba <HAL_RCC_OscConfig+0x5a>
 8001f7c:	6a61      	ldr	r1, [r4, #36]	; 0x24
 8001f7e:	f647 72c0 	movw	r2, #32704	; 0x7fc0
 8001f82:	401a      	ands	r2, r3
 8001f84:	ebb2 1f81 	cmp.w	r2, r1, lsl #6
 8001f88:	f47f ae97 	bne.w	8001cba <HAL_RCC_OscConfig+0x5a>
 8001f8c:	6aa2      	ldr	r2, [r4, #40]	; 0x28
 8001f8e:	0852      	lsrs	r2, r2, #1
 8001f90:	f403 3140 	and.w	r1, r3, #196608	; 0x30000
 8001f94:	3a01      	subs	r2, #1
 8001f96:	ebb1 4f02 	cmp.w	r1, r2, lsl #16
 8001f9a:	f47f ae8e 	bne.w	8001cba <HAL_RCC_OscConfig+0x5a>
 8001f9e:	6ae2      	ldr	r2, [r4, #44]	; 0x2c
 8001fa0:	f003 6370 	and.w	r3, r3, #251658240	; 0xf000000
 8001fa4:	ebb3 6f02 	cmp.w	r3, r2, lsl #24
 8001fa8:	f43f ae70 	beq.w	8001c8c <HAL_RCC_OscConfig+0x2c>
 8001fac:	e685      	b.n	8001cba <HAL_RCC_OscConfig+0x5a>
 8001fae:	bf00      	nop
 8001fb0:	40023800 	.word	0x40023800
 8001fb4:	42470000 	.word	0x42470000

08001fb8 <HAL_RCC_GetSysClockFreq>:
 8001fb8:	4913      	ldr	r1, [pc, #76]	; (8002008 <HAL_RCC_GetSysClockFreq+0x50>)
 8001fba:	b508      	push	{r3, lr}
 8001fbc:	688b      	ldr	r3, [r1, #8]
 8001fbe:	f003 030c 	and.w	r3, r3, #12
 8001fc2:	2b04      	cmp	r3, #4
 8001fc4:	d01c      	beq.n	8002000 <HAL_RCC_GetSysClockFreq+0x48>
 8001fc6:	2b08      	cmp	r3, #8
 8001fc8:	d11c      	bne.n	8002004 <HAL_RCC_GetSysClockFreq+0x4c>
 8001fca:	684a      	ldr	r2, [r1, #4]
 8001fcc:	684b      	ldr	r3, [r1, #4]
 8001fce:	6849      	ldr	r1, [r1, #4]
 8001fd0:	f413 0380 	ands.w	r3, r3, #4194304	; 0x400000
 8001fd4:	bf14      	ite	ne
 8001fd6:	480d      	ldrne	r0, [pc, #52]	; (800200c <HAL_RCC_GetSysClockFreq+0x54>)
 8001fd8:	480d      	ldreq	r0, [pc, #52]	; (8002010 <HAL_RCC_GetSysClockFreq+0x58>)
 8001fda:	f3c1 1188 	ubfx	r1, r1, #6, #9
 8001fde:	bf18      	it	ne
 8001fe0:	2300      	movne	r3, #0
 8001fe2:	f002 023f 	and.w	r2, r2, #63	; 0x3f
 8001fe6:	fba1 0100 	umull	r0, r1, r1, r0
 8001fea:	f7fe f949 	bl	8000280 <__aeabi_uldivmod>
 8001fee:	4b06      	ldr	r3, [pc, #24]	; (8002008 <HAL_RCC_GetSysClockFreq+0x50>)
 8001ff0:	685b      	ldr	r3, [r3, #4]
 8001ff2:	f3c3 4301 	ubfx	r3, r3, #16, #2
 8001ff6:	3301      	adds	r3, #1
 8001ff8:	005b      	lsls	r3, r3, #1
 8001ffa:	fbb0 f0f3 	udiv	r0, r0, r3
 8001ffe:	bd08      	pop	{r3, pc}
 8002000:	4802      	ldr	r0, [pc, #8]	; (800200c <HAL_RCC_GetSysClockFreq+0x54>)
 8002002:	e7fc      	b.n	8001ffe <HAL_RCC_GetSysClockFreq+0x46>
 8002004:	4802      	ldr	r0, [pc, #8]	; (8002010 <HAL_RCC_GetSysClockFreq+0x58>)
 8002006:	e7fa      	b.n	8001ffe <HAL_RCC_GetSysClockFreq+0x46>
 8002008:	40023800 	.word	0x40023800
 800200c:	007a1200 	.word	0x007a1200
 8002010:	00f42400 	.word	0x00f42400

08002014 <HAL_RCC_ClockConfig>:
 8002014:	e92d 41f0 	stmdb	sp!, {r4, r5, r6, r7, r8, lr}
 8002018:	460d      	mov	r5, r1
 800201a:	4604      	mov	r4, r0
 800201c:	b910      	cbnz	r0, 8002024 <HAL_RCC_ClockConfig+0x10>
 800201e:	2001      	movs	r0, #1
 8002020:	e8bd 81f0 	ldmia.w	sp!, {r4, r5, r6, r7, r8, pc}
 8002024:	4b43      	ldr	r3, [pc, #268]	; (8002134 <HAL_RCC_ClockConfig+0x120>)
 8002026:	681a      	ldr	r2, [r3, #0]
 8002028:	f002 0207 	and.w	r2, r2, #7
 800202c:	428a      	cmp	r2, r1
 800202e:	d328      	bcc.n	8002082 <HAL_RCC_ClockConfig+0x6e>
 8002030:	6821      	ldr	r1, [r4, #0]
 8002032:	078f      	lsls	r7, r1, #30
 8002034:	d42d      	bmi.n	8002092 <HAL_RCC_ClockConfig+0x7e>
 8002036:	07c8      	lsls	r0, r1, #31
 8002038:	d440      	bmi.n	80020bc <HAL_RCC_ClockConfig+0xa8>
 800203a:	4b3e      	ldr	r3, [pc, #248]	; (8002134 <HAL_RCC_ClockConfig+0x120>)
 800203c:	681a      	ldr	r2, [r3, #0]
 800203e:	f002 0207 	and.w	r2, r2, #7
 8002042:	42aa      	cmp	r2, r5
 8002044:	d865      	bhi.n	8002112 <HAL_RCC_ClockConfig+0xfe>
 8002046:	6822      	ldr	r2, [r4, #0]
 8002048:	0751      	lsls	r1, r2, #29
 800204a:	d46b      	bmi.n	8002124 <HAL_RCC_ClockConfig+0x110>
 800204c:	0713      	lsls	r3, r2, #28
 800204e:	d507      	bpl.n	8002060 <HAL_RCC_ClockConfig+0x4c>
 8002050:	4a39      	ldr	r2, [pc, #228]	; (8002138 <HAL_RCC_ClockConfig+0x124>)
 8002052:	6921      	ldr	r1, [r4, #16]
 8002054:	6893      	ldr	r3, [r2, #8]
 8002056:	f423 4360 	bic.w	r3, r3, #57344	; 0xe000
 800205a:	ea43 03c1 	orr.w	r3, r3, r1, lsl #3
 800205e:	6093      	str	r3, [r2, #8]
 8002060:	f7ff ffaa 	bl	8001fb8 <HAL_RCC_GetSysClockFreq>
 8002064:	4b34      	ldr	r3, [pc, #208]	; (8002138 <HAL_RCC_ClockConfig+0x124>)
 8002066:	4a35      	ldr	r2, [pc, #212]	; (800213c <HAL_RCC_ClockConfig+0x128>)
 8002068:	689b      	ldr	r3, [r3, #8]
 800206a:	f3c3 1303 	ubfx	r3, r3, #4, #4
 800206e:	5cd3      	ldrb	r3, [r2, r3]
 8002070:	40d8      	lsrs	r0, r3
 8002072:	4b33      	ldr	r3, [pc, #204]	; (8002140 <HAL_RCC_ClockConfig+0x12c>)
 8002074:	6018      	str	r0, [r3, #0]
 8002076:	4b33      	ldr	r3, [pc, #204]	; (8002144 <HAL_RCC_ClockConfig+0x130>)
 8002078:	6818      	ldr	r0, [r3, #0]
 800207a:	f7fe ff83 	bl	8000f84 <HAL_InitTick>
 800207e:	2000      	movs	r0, #0
 8002080:	e7ce      	b.n	8002020 <HAL_RCC_ClockConfig+0xc>
 8002082:	b2ca      	uxtb	r2, r1
 8002084:	701a      	strb	r2, [r3, #0]
 8002086:	681b      	ldr	r3, [r3, #0]
 8002088:	f003 0307 	and.w	r3, r3, #7
 800208c:	428b      	cmp	r3, r1
 800208e:	d1c6      	bne.n	800201e <HAL_RCC_ClockConfig+0xa>
 8002090:	e7ce      	b.n	8002030 <HAL_RCC_ClockConfig+0x1c>
 8002092:	4b29      	ldr	r3, [pc, #164]	; (8002138 <HAL_RCC_ClockConfig+0x124>)
 8002094:	f011 0f04 	tst.w	r1, #4
 8002098:	bf1e      	ittt	ne
 800209a:	689a      	ldrne	r2, [r3, #8]
 800209c:	f442 52e0 	orrne.w	r2, r2, #7168	; 0x1c00
 80020a0:	609a      	strne	r2, [r3, #8]
 80020a2:	070e      	lsls	r6, r1, #28
 80020a4:	bf42      	ittt	mi
 80020a6:	689a      	ldrmi	r2, [r3, #8]
 80020a8:	f442 4260 	orrmi.w	r2, r2, #57344	; 0xe000
 80020ac:	609a      	strmi	r2, [r3, #8]
 80020ae:	689a      	ldr	r2, [r3, #8]
 80020b0:	68a0      	ldr	r0, [r4, #8]
 80020b2:	f022 02f0 	bic.w	r2, r2, #240	; 0xf0
 80020b6:	4302      	orrs	r2, r0
 80020b8:	609a      	str	r2, [r3, #8]
 80020ba:	e7bc      	b.n	8002036 <HAL_RCC_ClockConfig+0x22>
 80020bc:	6862      	ldr	r2, [r4, #4]
 80020be:	4b1e      	ldr	r3, [pc, #120]	; (8002138 <HAL_RCC_ClockConfig+0x124>)
 80020c0:	2a01      	cmp	r2, #1
 80020c2:	d11c      	bne.n	80020fe <HAL_RCC_ClockConfig+0xea>
 80020c4:	681b      	ldr	r3, [r3, #0]
 80020c6:	f413 3f00 	tst.w	r3, #131072	; 0x20000
 80020ca:	d0a8      	beq.n	800201e <HAL_RCC_ClockConfig+0xa>
 80020cc:	4e1a      	ldr	r6, [pc, #104]	; (8002138 <HAL_RCC_ClockConfig+0x124>)
 80020ce:	68b3      	ldr	r3, [r6, #8]
 80020d0:	f023 0303 	bic.w	r3, r3, #3
 80020d4:	4313      	orrs	r3, r2
 80020d6:	60b3      	str	r3, [r6, #8]
 80020d8:	f7fe ff9e 	bl	8001018 <HAL_GetTick>
 80020dc:	f241 3888 	movw	r8, #5000	; 0x1388
 80020e0:	4607      	mov	r7, r0
 80020e2:	68b3      	ldr	r3, [r6, #8]
 80020e4:	6862      	ldr	r2, [r4, #4]
 80020e6:	f003 030c 	and.w	r3, r3, #12
 80020ea:	ebb3 0f82 	cmp.w	r3, r2, lsl #2
 80020ee:	d0a4      	beq.n	800203a <HAL_RCC_ClockConfig+0x26>
 80020f0:	f7fe ff92 	bl	8001018 <HAL_GetTick>
 80020f4:	1bc0      	subs	r0, r0, r7
 80020f6:	4540      	cmp	r0, r8
 80020f8:	d9f3      	bls.n	80020e2 <HAL_RCC_ClockConfig+0xce>
 80020fa:	2003      	movs	r0, #3
 80020fc:	e790      	b.n	8002020 <HAL_RCC_ClockConfig+0xc>
 80020fe:	1e91      	subs	r1, r2, #2
 8002100:	2901      	cmp	r1, #1
 8002102:	681b      	ldr	r3, [r3, #0]
 8002104:	d802      	bhi.n	800210c <HAL_RCC_ClockConfig+0xf8>
 8002106:	f013 7f00 	tst.w	r3, #33554432	; 0x2000000
 800210a:	e7de      	b.n	80020ca <HAL_RCC_ClockConfig+0xb6>
 800210c:	f013 0f02 	tst.w	r3, #2
 8002110:	e7db      	b.n	80020ca <HAL_RCC_ClockConfig+0xb6>
 8002112:	b2ea      	uxtb	r2, r5
 8002114:	701a      	strb	r2, [r3, #0]
 8002116:	681b      	ldr	r3, [r3, #0]
 8002118:	f003 0307 	and.w	r3, r3, #7
 800211c:	42ab      	cmp	r3, r5
 800211e:	f47f af7e 	bne.w	800201e <HAL_RCC_ClockConfig+0xa>
 8002122:	e790      	b.n	8002046 <HAL_RCC_ClockConfig+0x32>
 8002124:	4904      	ldr	r1, [pc, #16]	; (8002138 <HAL_RCC_ClockConfig+0x124>)
 8002126:	68e0      	ldr	r0, [r4, #12]
 8002128:	688b      	ldr	r3, [r1, #8]
 800212a:	f423 53e0 	bic.w	r3, r3, #7168	; 0x1c00
 800212e:	4303      	orrs	r3, r0
 8002130:	608b      	str	r3, [r1, #8]
 8002132:	e78b      	b.n	800204c <HAL_RCC_ClockConfig+0x38>
 8002134:	40023c00 	.word	0x40023c00
 8002138:	40023800 	.word	0x40023800
 800213c:	0800653d 	.word	0x0800653d
 8002140:	20000000 	.word	0x20000000
 8002144:	20000008 	.word	0x20000008

08002148 <HAL_RCC_GetPCLK1Freq>:
 8002148:	4b04      	ldr	r3, [pc, #16]	; (800215c <HAL_RCC_GetPCLK1Freq+0x14>)
 800214a:	4a05      	ldr	r2, [pc, #20]	; (8002160 <HAL_RCC_GetPCLK1Freq+0x18>)
 800214c:	689b      	ldr	r3, [r3, #8]
 800214e:	f3c3 2382 	ubfx	r3, r3, #10, #3
 8002152:	5cd3      	ldrb	r3, [r2, r3]
 8002154:	4a03      	ldr	r2, [pc, #12]	; (8002164 <HAL_RCC_GetPCLK1Freq+0x1c>)
 8002156:	6810      	ldr	r0, [r2, #0]
 8002158:	40d8      	lsrs	r0, r3
 800215a:	4770      	bx	lr
 800215c:	40023800 	.word	0x40023800
 8002160:	0800654d 	.word	0x0800654d
 8002164:	20000000 	.word	0x20000000

08002168 <HAL_RCC_GetPCLK2Freq>:
 8002168:	4b04      	ldr	r3, [pc, #16]	; (800217c <HAL_RCC_GetPCLK2Freq+0x14>)
 800216a:	4a05      	ldr	r2, [pc, #20]	; (8002180 <HAL_RCC_GetPCLK2Freq+0x18>)
 800216c:	689b      	ldr	r3, [r3, #8]
 800216e:	f3c3 3342 	ubfx	r3, r3, #13, #3
 8002172:	5cd3      	ldrb	r3, [r2, r3]
 8002174:	4a03      	ldr	r2, [pc, #12]	; (8002184 <HAL_RCC_GetPCLK2Freq+0x1c>)
 8002176:	6810      	ldr	r0, [r2, #0]
 8002178:	40d8      	lsrs	r0, r3
 800217a:	4770      	bx	lr
 800217c:	40023800 	.word	0x40023800
 8002180:	0800654d 	.word	0x0800654d
 8002184:	20000000 	.word	0x20000000

08002188 <SD_DMATransmitCplt>:
 8002188:	6b83      	ldr	r3, [r0, #56]	; 0x38
 800218a:	681a      	ldr	r2, [r3, #0]
 800218c:	6bd3      	ldr	r3, [r2, #60]	; 0x3c
 800218e:	f443 7380 	orr.w	r3, r3, #256	; 0x100
 8002192:	63d3      	str	r3, [r2, #60]	; 0x3c
 8002194:	4770      	bx	lr

08002196 <SD_FindSCR.constprop.0>:
 8002196:	b5f0      	push	{r4, r5, r6, r7, lr}
 8002198:	b089      	sub	sp, #36	; 0x24
 800219a:	4605      	mov	r5, r0
 800219c:	460e      	mov	r6, r1
 800219e:	f7fe ff3b 	bl	8001018 <HAL_GetTick>
 80021a2:	2300      	movs	r3, #0
 80021a4:	4607      	mov	r7, r0
 80021a6:	2108      	movs	r1, #8
 80021a8:	6828      	ldr	r0, [r5, #0]
 80021aa:	e9cd 3300 	strd	r3, r3, [sp]
 80021ae:	f000 fde7 	bl	8002d80 <SDMMC_CmdBlockLength>
 80021b2:	4604      	mov	r4, r0
 80021b4:	b9d8      	cbnz	r0, 80021ee <SD_FindSCR.constprop.0+0x58>
 80021b6:	6d29      	ldr	r1, [r5, #80]	; 0x50
 80021b8:	6828      	ldr	r0, [r5, #0]
 80021ba:	0409      	lsls	r1, r1, #16
 80021bc:	f000 fe91 	bl	8002ee2 <SDMMC_CmdAppCommand>
 80021c0:	4604      	mov	r4, r0
 80021c2:	b9a0      	cbnz	r0, 80021ee <SD_FindSCR.constprop.0+0x58>
 80021c4:	f04f 32ff 	mov.w	r2, #4294967295
 80021c8:	2308      	movs	r3, #8
 80021ca:	e9cd 2302 	strd	r2, r3, [sp, #8]
 80021ce:	2130      	movs	r1, #48	; 0x30
 80021d0:	2302      	movs	r3, #2
 80021d2:	e9cd 1304 	strd	r1, r3, [sp, #16]
 80021d6:	9006      	str	r0, [sp, #24]
 80021d8:	2301      	movs	r3, #1
 80021da:	a902      	add	r1, sp, #8
 80021dc:	6828      	ldr	r0, [r5, #0]
 80021de:	9307      	str	r3, [sp, #28]
 80021e0:	f000 fd05 	bl	8002bee <SDIO_ConfigData>
 80021e4:	6828      	ldr	r0, [r5, #0]
 80021e6:	f000 feae 	bl	8002f46 <SDMMC_CmdSendSCR>
 80021ea:	4604      	mov	r4, r0
 80021ec:	b190      	cbz	r0, 8002214 <SD_FindSCR.constprop.0+0x7e>
 80021ee:	4620      	mov	r0, r4
 80021f0:	b009      	add	sp, #36	; 0x24
 80021f2:	bdf0      	pop	{r4, r5, r6, r7, pc}
 80021f4:	6b42      	ldr	r2, [r0, #52]	; 0x34
 80021f6:	0293      	lsls	r3, r2, #10
 80021f8:	d512      	bpl.n	8002220 <SD_FindSCR.constprop.0+0x8a>
 80021fa:	f000 fcd7 	bl	8002bac <SDIO_ReadFIFO>
 80021fe:	ab08      	add	r3, sp, #32
 8002200:	eb03 0384 	add.w	r3, r3, r4, lsl #2
 8002204:	3401      	adds	r4, #1
 8002206:	f843 0c20 	str.w	r0, [r3, #-32]
 800220a:	f7fe ff05 	bl	8001018 <HAL_GetTick>
 800220e:	1bc0      	subs	r0, r0, r7
 8002210:	3001      	adds	r0, #1
 8002212:	d023      	beq.n	800225c <SD_FindSCR.constprop.0+0xc6>
 8002214:	6828      	ldr	r0, [r5, #0]
 8002216:	6b42      	ldr	r2, [r0, #52]	; 0x34
 8002218:	f012 0f2a 	tst.w	r2, #42	; 0x2a
 800221c:	d0ea      	beq.n	80021f4 <SD_FindSCR.constprop.0+0x5e>
 800221e:	e002      	b.n	8002226 <SD_FindSCR.constprop.0+0x90>
 8002220:	6b42      	ldr	r2, [r0, #52]	; 0x34
 8002222:	0491      	lsls	r1, r2, #18
 8002224:	d4f1      	bmi.n	800220a <SD_FindSCR.constprop.0+0x74>
 8002226:	6b42      	ldr	r2, [r0, #52]	; 0x34
 8002228:	0712      	lsls	r2, r2, #28
 800222a:	d502      	bpl.n	8002232 <SD_FindSCR.constprop.0+0x9c>
 800222c:	2408      	movs	r4, #8
 800222e:	6384      	str	r4, [r0, #56]	; 0x38
 8002230:	e7dd      	b.n	80021ee <SD_FindSCR.constprop.0+0x58>
 8002232:	6b42      	ldr	r2, [r0, #52]	; 0x34
 8002234:	0793      	lsls	r3, r2, #30
 8002236:	d501      	bpl.n	800223c <SD_FindSCR.constprop.0+0xa6>
 8002238:	2402      	movs	r4, #2
 800223a:	e7f8      	b.n	800222e <SD_FindSCR.constprop.0+0x98>
 800223c:	6b44      	ldr	r4, [r0, #52]	; 0x34
 800223e:	f014 0420 	ands.w	r4, r4, #32
 8002242:	d001      	beq.n	8002248 <SD_FindSCR.constprop.0+0xb2>
 8002244:	2420      	movs	r4, #32
 8002246:	e7f2      	b.n	800222e <SD_FindSCR.constprop.0+0x98>
 8002248:	9b01      	ldr	r3, [sp, #4]
 800224a:	f240 523a 	movw	r2, #1338	; 0x53a
 800224e:	ba1b      	rev	r3, r3
 8002250:	6382      	str	r2, [r0, #56]	; 0x38
 8002252:	6033      	str	r3, [r6, #0]
 8002254:	9b00      	ldr	r3, [sp, #0]
 8002256:	ba1b      	rev	r3, r3
 8002258:	6073      	str	r3, [r6, #4]
 800225a:	e7c8      	b.n	80021ee <SD_FindSCR.constprop.0+0x58>
 800225c:	f04f 4400 	mov.w	r4, #2147483648	; 0x80000000
 8002260:	e7c5      	b.n	80021ee <SD_FindSCR.constprop.0+0x58>
	...

08002264 <HAL_SD_ReadBlocks_DMA>:
 8002264:	e92d 41f0 	stmdb	sp!, {r4, r5, r6, r7, r8, lr}
 8002268:	4615      	mov	r5, r2
 800226a:	b086      	sub	sp, #24
 800226c:	4604      	mov	r4, r0
 800226e:	461f      	mov	r7, r3
 8002270:	460a      	mov	r2, r1
 8002272:	b941      	cbnz	r1, 8002286 <HAL_SD_ReadBlocks_DMA+0x22>
 8002274:	6b83      	ldr	r3, [r0, #56]	; 0x38
 8002276:	f043 6300 	orr.w	r3, r3, #134217728	; 0x8000000
 800227a:	6383      	str	r3, [r0, #56]	; 0x38
 800227c:	2601      	movs	r6, #1
 800227e:	4630      	mov	r0, r6
 8002280:	b006      	add	sp, #24
 8002282:	e8bd 81f0 	ldmia.w	sp!, {r4, r5, r6, r7, r8, pc}
 8002286:	f890 3034 	ldrb.w	r3, [r0, #52]	; 0x34
 800228a:	2b01      	cmp	r3, #1
 800228c:	b2de      	uxtb	r6, r3
 800228e:	d173      	bne.n	8002378 <HAL_SD_ReadBlocks_DMA+0x114>
 8002290:	2100      	movs	r1, #0
 8002292:	6381      	str	r1, [r0, #56]	; 0x38
 8002294:	6dc0      	ldr	r0, [r0, #92]	; 0x5c
 8002296:	19eb      	adds	r3, r5, r7
 8002298:	4283      	cmp	r3, r0
 800229a:	d904      	bls.n	80022a6 <HAL_SD_ReadBlocks_DMA+0x42>
 800229c:	6ba3      	ldr	r3, [r4, #56]	; 0x38
 800229e:	f043 7300 	orr.w	r3, r3, #33554432	; 0x2000000
 80022a2:	63a3      	str	r3, [r4, #56]	; 0x38
 80022a4:	e7eb      	b.n	800227e <HAL_SD_ReadBlocks_DMA+0x1a>
 80022a6:	f8d4 c000 	ldr.w	ip, [r4]
 80022aa:	6c20      	ldr	r0, [r4, #64]	; 0x40
 80022ac:	2303      	movs	r3, #3
 80022ae:	f884 3034 	strb.w	r3, [r4, #52]	; 0x34
 80022b2:	f8cc 102c 	str.w	r1, [ip, #44]	; 0x2c
 80022b6:	f8dc 303c 	ldr.w	r3, [ip, #60]	; 0x3c
 80022ba:	f443 734a 	orr.w	r3, r3, #808	; 0x328
 80022be:	f043 0302 	orr.w	r3, r3, #2
 80022c2:	f8cc 303c 	str.w	r3, [ip, #60]	; 0x3c
 80022c6:	4b2e      	ldr	r3, [pc, #184]	; (8002380 <HAL_SD_ReadBlocks_DMA+0x11c>)
 80022c8:	63c3      	str	r3, [r0, #60]	; 0x3c
 80022ca:	4b2e      	ldr	r3, [pc, #184]	; (8002384 <HAL_SD_ReadBlocks_DMA+0x120>)
 80022cc:	6081      	str	r1, [r0, #8]
 80022ce:	e9c0 3113 	strd	r3, r1, [r0, #76]	; 0x4c
 80022d2:	6801      	ldr	r1, [r0, #0]
 80022d4:	680b      	ldr	r3, [r1, #0]
 80022d6:	ea4f 2847 	mov.w	r8, r7, lsl #9
 80022da:	f023 03c0 	bic.w	r3, r3, #192	; 0xc0
 80022de:	600b      	str	r3, [r1, #0]
 80022e0:	ea4f 0398 	mov.w	r3, r8, lsr #2
 80022e4:	f10c 0180 	add.w	r1, ip, #128	; 0x80
 80022e8:	f7fe ff08 	bl	80010fc <HAL_DMA_Start_IT>
 80022ec:	b168      	cbz	r0, 800230a <HAL_SD_ReadBlocks_DMA+0xa6>
 80022ee:	6823      	ldr	r3, [r4, #0]
 80022f0:	6bda      	ldr	r2, [r3, #60]	; 0x3c
 80022f2:	f422 7295 	bic.w	r2, r2, #298	; 0x12a
 80022f6:	63da      	str	r2, [r3, #60]	; 0x3c
 80022f8:	4a23      	ldr	r2, [pc, #140]	; (8002388 <HAL_SD_ReadBlocks_DMA+0x124>)
 80022fa:	639a      	str	r2, [r3, #56]	; 0x38
 80022fc:	6ba3      	ldr	r3, [r4, #56]	; 0x38
 80022fe:	f043 4380 	orr.w	r3, r3, #1073741824	; 0x40000000
 8002302:	63a3      	str	r3, [r4, #56]	; 0x38
 8002304:	f884 6034 	strb.w	r6, [r4, #52]	; 0x34
 8002308:	e7b9      	b.n	800227e <HAL_SD_ReadBlocks_DMA+0x1a>
 800230a:	4b20      	ldr	r3, [pc, #128]	; (800238c <HAL_SD_ReadBlocks_DMA+0x128>)
 800230c:	6820      	ldr	r0, [r4, #0]
 800230e:	f8c3 658c 	str.w	r6, [r3, #1420]	; 0x58c
 8002312:	6c63      	ldr	r3, [r4, #68]	; 0x44
 8002314:	2b01      	cmp	r3, #1
 8002316:	f04f 33ff 	mov.w	r3, #4294967295
 800231a:	e9cd 3800 	strd	r3, r8, [sp]
 800231e:	f04f 0290 	mov.w	r2, #144	; 0x90
 8002322:	f04f 0302 	mov.w	r3, #2
 8002326:	e9cd 2302 	strd	r2, r3, [sp, #8]
 800232a:	f04f 0100 	mov.w	r1, #0
 800232e:	f04f 0301 	mov.w	r3, #1
 8002332:	e9cd 1304 	strd	r1, r3, [sp, #16]
 8002336:	4669      	mov	r1, sp
 8002338:	bf18      	it	ne
 800233a:	026d      	lslne	r5, r5, #9
 800233c:	f000 fc57 	bl	8002bee <SDIO_ConfigData>
 8002340:	2f01      	cmp	r7, #1
 8002342:	d912      	bls.n	800236a <HAL_SD_ReadBlocks_DMA+0x106>
 8002344:	2382      	movs	r3, #130	; 0x82
 8002346:	6820      	ldr	r0, [r4, #0]
 8002348:	6323      	str	r3, [r4, #48]	; 0x30
 800234a:	4629      	mov	r1, r5
 800234c:	f000 fd4a 	bl	8002de4 <SDMMC_CmdReadMultiBlock>
 8002350:	b1a0      	cbz	r0, 800237c <HAL_SD_ReadBlocks_DMA+0x118>
 8002352:	6823      	ldr	r3, [r4, #0]
 8002354:	4a0c      	ldr	r2, [pc, #48]	; (8002388 <HAL_SD_ReadBlocks_DMA+0x124>)
 8002356:	639a      	str	r2, [r3, #56]	; 0x38
 8002358:	6ba3      	ldr	r3, [r4, #56]	; 0x38
 800235a:	4303      	orrs	r3, r0
 800235c:	63a3      	str	r3, [r4, #56]	; 0x38
 800235e:	2301      	movs	r3, #1
 8002360:	f884 3034 	strb.w	r3, [r4, #52]	; 0x34
 8002364:	2300      	movs	r3, #0
 8002366:	6323      	str	r3, [r4, #48]	; 0x30
 8002368:	e789      	b.n	800227e <HAL_SD_ReadBlocks_DMA+0x1a>
 800236a:	2381      	movs	r3, #129	; 0x81
 800236c:	6820      	ldr	r0, [r4, #0]
 800236e:	6323      	str	r3, [r4, #48]	; 0x30
 8002370:	4629      	mov	r1, r5
 8002372:	f000 fd1e 	bl	8002db2 <SDMMC_CmdReadSingleBlock>
 8002376:	e7eb      	b.n	8002350 <HAL_SD_ReadBlocks_DMA+0xec>
 8002378:	2602      	movs	r6, #2
 800237a:	e780      	b.n	800227e <HAL_SD_ReadBlocks_DMA+0x1a>
 800237c:	4606      	mov	r6, r0
 800237e:	e77e      	b.n	800227e <HAL_SD_ReadBlocks_DMA+0x1a>
 8002380:	080024b3 	.word	0x080024b3
 8002384:	080029fd 	.word	0x080029fd
 8002388:	004005ff 	.word	0x004005ff
 800238c:	42258000 	.word	0x42258000

08002390 <HAL_SD_WriteBlocks_DMA>:
 8002390:	e92d 43f0 	stmdb	sp!, {r4, r5, r6, r7, r8, r9, lr}
 8002394:	4604      	mov	r4, r0
 8002396:	b087      	sub	sp, #28
 8002398:	461e      	mov	r6, r3
 800239a:	4689      	mov	r9, r1
 800239c:	b941      	cbnz	r1, 80023b0 <HAL_SD_WriteBlocks_DMA+0x20>
 800239e:	6b83      	ldr	r3, [r0, #56]	; 0x38
 80023a0:	f043 6300 	orr.w	r3, r3, #134217728	; 0x8000000
 80023a4:	6383      	str	r3, [r0, #56]	; 0x38
 80023a6:	2701      	movs	r7, #1
 80023a8:	4638      	mov	r0, r7
 80023aa:	b007      	add	sp, #28
 80023ac:	e8bd 83f0 	ldmia.w	sp!, {r4, r5, r6, r7, r8, r9, pc}
 80023b0:	f890 3034 	ldrb.w	r3, [r0, #52]	; 0x34
 80023b4:	2b01      	cmp	r3, #1
 80023b6:	b2df      	uxtb	r7, r3
 80023b8:	d170      	bne.n	800249c <HAL_SD_WriteBlocks_DMA+0x10c>
 80023ba:	2100      	movs	r1, #0
 80023bc:	6381      	str	r1, [r0, #56]	; 0x38
 80023be:	6dc0      	ldr	r0, [r0, #92]	; 0x5c
 80023c0:	1993      	adds	r3, r2, r6
 80023c2:	4283      	cmp	r3, r0
 80023c4:	d904      	bls.n	80023d0 <HAL_SD_WriteBlocks_DMA+0x40>
 80023c6:	6ba3      	ldr	r3, [r4, #56]	; 0x38
 80023c8:	f043 7300 	orr.w	r3, r3, #33554432	; 0x2000000
 80023cc:	63a3      	str	r3, [r4, #56]	; 0x38
 80023ce:	e7eb      	b.n	80023a8 <HAL_SD_WriteBlocks_DMA+0x18>
 80023d0:	6820      	ldr	r0, [r4, #0]
 80023d2:	4d33      	ldr	r5, [pc, #204]	; (80024a0 <HAL_SD_WriteBlocks_DMA+0x110>)
 80023d4:	2303      	movs	r3, #3
 80023d6:	f884 3034 	strb.w	r3, [r4, #52]	; 0x34
 80023da:	62c1      	str	r1, [r0, #44]	; 0x2c
 80023dc:	6bc3      	ldr	r3, [r0, #60]	; 0x3c
 80023de:	f443 7306 	orr.w	r3, r3, #536	; 0x218
 80023e2:	f043 0302 	orr.w	r3, r3, #2
 80023e6:	63c3      	str	r3, [r0, #60]	; 0x3c
 80023e8:	6be3      	ldr	r3, [r4, #60]	; 0x3c
 80023ea:	63dd      	str	r5, [r3, #60]	; 0x3c
 80023ec:	4d2d      	ldr	r5, [pc, #180]	; (80024a4 <HAL_SD_WriteBlocks_DMA+0x114>)
 80023ee:	e9c3 5113 	strd	r5, r1, [r3, #76]	; 0x4c
 80023f2:	6c63      	ldr	r3, [r4, #68]	; 0x44
 80023f4:	2b01      	cmp	r3, #1
 80023f6:	bf18      	it	ne
 80023f8:	0252      	lslne	r2, r2, #9
 80023fa:	2e01      	cmp	r6, #1
 80023fc:	d912      	bls.n	8002424 <HAL_SD_WriteBlocks_DMA+0x94>
 80023fe:	23a0      	movs	r3, #160	; 0xa0
 8002400:	6323      	str	r3, [r4, #48]	; 0x30
 8002402:	4611      	mov	r1, r2
 8002404:	f000 fd20 	bl	8002e48 <SDMMC_CmdWriteMultiBlock>
 8002408:	6822      	ldr	r2, [r4, #0]
 800240a:	4605      	mov	r5, r0
 800240c:	b180      	cbz	r0, 8002430 <HAL_SD_WriteBlocks_DMA+0xa0>
 800240e:	4b26      	ldr	r3, [pc, #152]	; (80024a8 <HAL_SD_WriteBlocks_DMA+0x118>)
 8002410:	6393      	str	r3, [r2, #56]	; 0x38
 8002412:	6ba3      	ldr	r3, [r4, #56]	; 0x38
 8002414:	4303      	orrs	r3, r0
 8002416:	63a3      	str	r3, [r4, #56]	; 0x38
 8002418:	2301      	movs	r3, #1
 800241a:	f884 3034 	strb.w	r3, [r4, #52]	; 0x34
 800241e:	2300      	movs	r3, #0
 8002420:	6323      	str	r3, [r4, #48]	; 0x30
 8002422:	e7c1      	b.n	80023a8 <HAL_SD_WriteBlocks_DMA+0x18>
 8002424:	2390      	movs	r3, #144	; 0x90
 8002426:	6323      	str	r3, [r4, #48]	; 0x30
 8002428:	4611      	mov	r1, r2
 800242a:	f000 fcf4 	bl	8002e16 <SDMMC_CmdWriteSingleBlock>
 800242e:	e7eb      	b.n	8002408 <HAL_SD_WriteBlocks_DMA+0x78>
 8002430:	6be0      	ldr	r0, [r4, #60]	; 0x3c
 8002432:	4b1e      	ldr	r3, [pc, #120]	; (80024ac <HAL_SD_WriteBlocks_DMA+0x11c>)
 8002434:	6801      	ldr	r1, [r0, #0]
 8002436:	f04f 0801 	mov.w	r8, #1
 800243a:	f8c3 858c 	str.w	r8, [r3, #1420]	; 0x58c
 800243e:	2340      	movs	r3, #64	; 0x40
 8002440:	6083      	str	r3, [r0, #8]
 8002442:	680b      	ldr	r3, [r1, #0]
 8002444:	f023 03c0 	bic.w	r3, r3, #192	; 0xc0
 8002448:	f043 0340 	orr.w	r3, r3, #64	; 0x40
 800244c:	0276      	lsls	r6, r6, #9
 800244e:	600b      	str	r3, [r1, #0]
 8002450:	3280      	adds	r2, #128	; 0x80
 8002452:	08b3      	lsrs	r3, r6, #2
 8002454:	4649      	mov	r1, r9
 8002456:	f7fe fe51 	bl	80010fc <HAL_DMA_Start_IT>
 800245a:	b180      	cbz	r0, 800247e <HAL_SD_WriteBlocks_DMA+0xee>
 800245c:	6822      	ldr	r2, [r4, #0]
 800245e:	6bd3      	ldr	r3, [r2, #60]	; 0x3c
 8002460:	f423 7306 	bic.w	r3, r3, #536	; 0x218
 8002464:	f023 0302 	bic.w	r3, r3, #2
 8002468:	63d3      	str	r3, [r2, #60]	; 0x3c
 800246a:	4b0f      	ldr	r3, [pc, #60]	; (80024a8 <HAL_SD_WriteBlocks_DMA+0x118>)
 800246c:	6393      	str	r3, [r2, #56]	; 0x38
 800246e:	6ba3      	ldr	r3, [r4, #56]	; 0x38
 8002470:	f043 4380 	orr.w	r3, r3, #1073741824	; 0x40000000
 8002474:	63a3      	str	r3, [r4, #56]	; 0x38
 8002476:	f884 8034 	strb.w	r8, [r4, #52]	; 0x34
 800247a:	6325      	str	r5, [r4, #48]	; 0x30
 800247c:	e794      	b.n	80023a8 <HAL_SD_WriteBlocks_DMA+0x18>
 800247e:	f04f 33ff 	mov.w	r3, #4294967295
 8002482:	e9cd 3600 	strd	r3, r6, [sp]
 8002486:	6820      	ldr	r0, [r4, #0]
 8002488:	2390      	movs	r3, #144	; 0x90
 800248a:	4669      	mov	r1, sp
 800248c:	e9cd 3502 	strd	r3, r5, [sp, #8]
 8002490:	e9cd 5804 	strd	r5, r8, [sp, #16]
 8002494:	462f      	mov	r7, r5
 8002496:	f000 fbaa 	bl	8002bee <SDIO_ConfigData>
 800249a:	e785      	b.n	80023a8 <HAL_SD_WriteBlocks_DMA+0x18>
 800249c:	2702      	movs	r7, #2
 800249e:	e783      	b.n	80023a8 <HAL_SD_WriteBlocks_DMA+0x18>
 80024a0:	08002189 	.word	0x08002189
 80024a4:	080029fd 	.word	0x080029fd
 80024a8:	004005ff 	.word	0x004005ff
 80024ac:	42258000 	.word	0x42258000

080024b0 <HAL_SD_ErrorCallback>:
 80024b0:	4770      	bx	lr

080024b2 <SD_DMAReceiveCplt>:
 80024b2:	b510      	push	{r4, lr}
 80024b4:	6b84      	ldr	r4, [r0, #56]	; 0x38
 80024b6:	6b23      	ldr	r3, [r4, #48]	; 0x30
 80024b8:	6820      	ldr	r0, [r4, #0]
 80024ba:	2b82      	cmp	r3, #130	; 0x82
 80024bc:	d108      	bne.n	80024d0 <SD_DMAReceiveCplt+0x1e>
 80024be:	f000 fcdd 	bl	8002e7c <SDMMC_CmdStopTransfer>
 80024c2:	b128      	cbz	r0, 80024d0 <SD_DMAReceiveCplt+0x1e>
 80024c4:	6ba3      	ldr	r3, [r4, #56]	; 0x38
 80024c6:	4303      	orrs	r3, r0
 80024c8:	63a3      	str	r3, [r4, #56]	; 0x38
 80024ca:	4620      	mov	r0, r4
 80024cc:	f7ff fff0 	bl	80024b0 <HAL_SD_ErrorCallback>
 80024d0:	6823      	ldr	r3, [r4, #0]
 80024d2:	6ada      	ldr	r2, [r3, #44]	; 0x2c
 80024d4:	f022 0208 	bic.w	r2, r2, #8
 80024d8:	62da      	str	r2, [r3, #44]	; 0x2c
 80024da:	f240 523a 	movw	r2, #1338	; 0x53a
 80024de:	639a      	str	r2, [r3, #56]	; 0x38
 80024e0:	2301      	movs	r3, #1
 80024e2:	f884 3034 	strb.w	r3, [r4, #52]	; 0x34
 80024e6:	2300      	movs	r3, #0
 80024e8:	6323      	str	r3, [r4, #48]	; 0x30
 80024ea:	4620      	mov	r0, r4
 80024ec:	f000 fec4 	bl	8003278 <HAL_SD_RxCpltCallback>
 80024f0:	bd10      	pop	{r4, pc}
	...

080024f4 <HAL_SD_GetCardCSD>:
 80024f4:	6e43      	ldr	r3, [r0, #100]	; 0x64
 80024f6:	0f9a      	lsrs	r2, r3, #30
 80024f8:	700a      	strb	r2, [r1, #0]
 80024fa:	f3c3 6283 	ubfx	r2, r3, #26, #4
 80024fe:	704a      	strb	r2, [r1, #1]
 8002500:	f3c3 6201 	ubfx	r2, r3, #24, #2
 8002504:	708a      	strb	r2, [r1, #2]
 8002506:	f3c3 4207 	ubfx	r2, r3, #16, #8
 800250a:	70ca      	strb	r2, [r1, #3]
 800250c:	f3c3 2207 	ubfx	r2, r3, #8, #8
 8002510:	b2db      	uxtb	r3, r3
 8002512:	710a      	strb	r2, [r1, #4]
 8002514:	714b      	strb	r3, [r1, #5]
 8002516:	6e83      	ldr	r3, [r0, #104]	; 0x68
 8002518:	0d1a      	lsrs	r2, r3, #20
 800251a:	80ca      	strh	r2, [r1, #6]
 800251c:	f3c3 4203 	ubfx	r2, r3, #16, #4
 8002520:	720a      	strb	r2, [r1, #8]
 8002522:	f3c3 32c0 	ubfx	r2, r3, #15, #1
 8002526:	724a      	strb	r2, [r1, #9]
 8002528:	f3c3 3280 	ubfx	r2, r3, #14, #1
 800252c:	728a      	strb	r2, [r1, #10]
 800252e:	f3c3 3240 	ubfx	r2, r3, #13, #1
 8002532:	72ca      	strb	r2, [r1, #11]
 8002534:	f3c3 3200 	ubfx	r2, r3, #12, #1
 8002538:	730a      	strb	r2, [r1, #12]
 800253a:	2200      	movs	r2, #0
 800253c:	734a      	strb	r2, [r1, #13]
 800253e:	6c42      	ldr	r2, [r0, #68]	; 0x44
 8002540:	b510      	push	{r4, lr}
 8002542:	2a00      	cmp	r2, #0
 8002544:	d16b      	bne.n	800261e <HAL_SD_GetCardCSD+0x12a>
 8002546:	6ec2      	ldr	r2, [r0, #108]	; 0x6c
 8002548:	f640 74fc 	movw	r4, #4092	; 0xffc
 800254c:	ea04 0383 	and.w	r3, r4, r3, lsl #2
 8002550:	ea43 7392 	orr.w	r3, r3, r2, lsr #30
 8002554:	610b      	str	r3, [r1, #16]
 8002556:	f3c2 63c2 	ubfx	r3, r2, #27, #3
 800255a:	750b      	strb	r3, [r1, #20]
 800255c:	f3c2 6302 	ubfx	r3, r2, #24, #3
 8002560:	754b      	strb	r3, [r1, #21]
 8002562:	f3c2 5342 	ubfx	r3, r2, #21, #3
 8002566:	758b      	strb	r3, [r1, #22]
 8002568:	f3c2 4382 	ubfx	r3, r2, #18, #3
 800256c:	f3c2 32c2 	ubfx	r2, r2, #15, #3
 8002570:	75cb      	strb	r3, [r1, #23]
 8002572:	760a      	strb	r2, [r1, #24]
 8002574:	690a      	ldr	r2, [r1, #16]
 8002576:	7e0b      	ldrb	r3, [r1, #24]
 8002578:	f003 0307 	and.w	r3, r3, #7
 800257c:	3302      	adds	r3, #2
 800257e:	3201      	adds	r2, #1
 8002580:	409a      	lsls	r2, r3
 8002582:	6542      	str	r2, [r0, #84]	; 0x54
 8002584:	7a0c      	ldrb	r4, [r1, #8]
 8002586:	2301      	movs	r3, #1
 8002588:	f004 040f 	and.w	r4, r4, #15
 800258c:	40a3      	lsls	r3, r4
 800258e:	6583      	str	r3, [r0, #88]	; 0x58
 8002590:	0a5b      	lsrs	r3, r3, #9
 8002592:	4353      	muls	r3, r2
 8002594:	65c3      	str	r3, [r0, #92]	; 0x5c
 8002596:	f44f 7300 	mov.w	r3, #512	; 0x200
 800259a:	6603      	str	r3, [r0, #96]	; 0x60
 800259c:	6ec3      	ldr	r3, [r0, #108]	; 0x6c
 800259e:	f3c3 3280 	ubfx	r2, r3, #14, #1
 80025a2:	764a      	strb	r2, [r1, #25]
 80025a4:	f3c3 12c6 	ubfx	r2, r3, #7, #7
 80025a8:	f003 037f 	and.w	r3, r3, #127	; 0x7f
 80025ac:	768a      	strb	r2, [r1, #26]
 80025ae:	76cb      	strb	r3, [r1, #27]
 80025b0:	6f03      	ldr	r3, [r0, #112]	; 0x70
 80025b2:	0fda      	lsrs	r2, r3, #31
 80025b4:	770a      	strb	r2, [r1, #28]
 80025b6:	f3c3 7241 	ubfx	r2, r3, #29, #2
 80025ba:	774a      	strb	r2, [r1, #29]
 80025bc:	f3c3 6282 	ubfx	r2, r3, #26, #3
 80025c0:	778a      	strb	r2, [r1, #30]
 80025c2:	f3c3 5283 	ubfx	r2, r3, #22, #4
 80025c6:	77ca      	strb	r2, [r1, #31]
 80025c8:	f3c3 5240 	ubfx	r2, r3, #21, #1
 80025cc:	f881 2020 	strb.w	r2, [r1, #32]
 80025d0:	2000      	movs	r0, #0
 80025d2:	f3c3 4200 	ubfx	r2, r3, #16, #1
 80025d6:	f881 0021 	strb.w	r0, [r1, #33]	; 0x21
 80025da:	f881 2022 	strb.w	r2, [r1, #34]	; 0x22
 80025de:	f3c3 32c0 	ubfx	r2, r3, #15, #1
 80025e2:	f881 2023 	strb.w	r2, [r1, #35]	; 0x23
 80025e6:	f3c3 3280 	ubfx	r2, r3, #14, #1
 80025ea:	f881 2024 	strb.w	r2, [r1, #36]	; 0x24
 80025ee:	f3c3 3240 	ubfx	r2, r3, #13, #1
 80025f2:	f881 2025 	strb.w	r2, [r1, #37]	; 0x25
 80025f6:	f3c3 3200 	ubfx	r2, r3, #12, #1
 80025fa:	f881 2026 	strb.w	r2, [r1, #38]	; 0x26
 80025fe:	f3c3 2281 	ubfx	r2, r3, #10, #2
 8002602:	f881 2027 	strb.w	r2, [r1, #39]	; 0x27
 8002606:	f3c3 2201 	ubfx	r2, r3, #8, #2
 800260a:	f3c3 0346 	ubfx	r3, r3, #1, #7
 800260e:	f881 2028 	strb.w	r2, [r1, #40]	; 0x28
 8002612:	f881 3029 	strb.w	r3, [r1, #41]	; 0x29
 8002616:	2301      	movs	r3, #1
 8002618:	f881 302a 	strb.w	r3, [r1, #42]	; 0x2a
 800261c:	e01c      	b.n	8002658 <HAL_SD_GetCardCSD+0x164>
 800261e:	2a01      	cmp	r2, #1
 8002620:	d10f      	bne.n	8002642 <HAL_SD_GetCardCSD+0x14e>
 8002622:	f8b0 206e 	ldrh.w	r2, [r0, #110]	; 0x6e
 8002626:	041b      	lsls	r3, r3, #16
 8002628:	f403 137c 	and.w	r3, r3, #4128768	; 0x3f0000
 800262c:	4313      	orrs	r3, r2
 800262e:	610b      	str	r3, [r1, #16]
 8002630:	690b      	ldr	r3, [r1, #16]
 8002632:	3301      	adds	r3, #1
 8002634:	029b      	lsls	r3, r3, #10
 8002636:	6543      	str	r3, [r0, #84]	; 0x54
 8002638:	65c3      	str	r3, [r0, #92]	; 0x5c
 800263a:	f44f 7300 	mov.w	r3, #512	; 0x200
 800263e:	6583      	str	r3, [r0, #88]	; 0x58
 8002640:	e7a9      	b.n	8002596 <HAL_SD_GetCardCSD+0xa2>
 8002642:	6803      	ldr	r3, [r0, #0]
 8002644:	4a05      	ldr	r2, [pc, #20]	; (800265c <HAL_SD_GetCardCSD+0x168>)
 8002646:	639a      	str	r2, [r3, #56]	; 0x38
 8002648:	6b83      	ldr	r3, [r0, #56]	; 0x38
 800264a:	f043 5380 	orr.w	r3, r3, #268435456	; 0x10000000
 800264e:	6383      	str	r3, [r0, #56]	; 0x38
 8002650:	2301      	movs	r3, #1
 8002652:	f880 3034 	strb.w	r3, [r0, #52]	; 0x34
 8002656:	4618      	mov	r0, r3
 8002658:	bd10      	pop	{r4, pc}
 800265a:	bf00      	nop
 800265c:	004005ff 	.word	0x004005ff

08002660 <HAL_SD_InitCard>:
 8002660:	e92d 41f0 	stmdb	sp!, {r4, r5, r6, r7, r8, lr}
 8002664:	2300      	movs	r3, #0
 8002666:	b098      	sub	sp, #96	; 0x60
 8002668:	e9cd 3309 	strd	r3, r3, [sp, #36]	; 0x24
 800266c:	e9cd 3307 	strd	r3, r3, [sp, #28]
 8002670:	930b      	str	r3, [sp, #44]	; 0x2c
 8002672:	2376      	movs	r3, #118	; 0x76
 8002674:	930c      	str	r3, [sp, #48]	; 0x30
 8002676:	ab0a      	add	r3, sp, #40	; 0x28
 8002678:	4604      	mov	r4, r0
 800267a:	e893 0007 	ldmia.w	r3, {r0, r1, r2}
 800267e:	e88d 0007 	stmia.w	sp, {r0, r1, r2}
 8002682:	ab07      	add	r3, sp, #28
 8002684:	cb0e      	ldmia	r3, {r1, r2, r3}
 8002686:	6820      	ldr	r0, [r4, #0]
 8002688:	f000 fa74 	bl	8002b74 <SDIO_Init>
 800268c:	4605      	mov	r5, r0
 800268e:	2800      	cmp	r0, #0
 8002690:	f040 80df 	bne.w	8002852 <HAL_SD_InitCard+0x1f2>
 8002694:	4f70      	ldr	r7, [pc, #448]	; (8002858 <HAL_SD_InitCard+0x1f8>)
 8002696:	2601      	movs	r6, #1
 8002698:	f8c7 00a0 	str.w	r0, [r7, #160]	; 0xa0
 800269c:	6820      	ldr	r0, [r4, #0]
 800269e:	f000 fa88 	bl	8002bb2 <SDIO_PowerState_ON>
 80026a2:	2002      	movs	r0, #2
 80026a4:	f8c7 60a0 	str.w	r6, [r7, #160]	; 0xa0
 80026a8:	f7fe fcbc 	bl	8001024 <HAL_Delay>
 80026ac:	6820      	ldr	r0, [r4, #0]
 80026ae:	9506      	str	r5, [sp, #24]
 80026b0:	f000 fab0 	bl	8002c14 <SDMMC_CmdGoIdleState>
 80026b4:	4605      	mov	r5, r0
 80026b6:	b940      	cbnz	r0, 80026ca <HAL_SD_InitCard+0x6a>
 80026b8:	6820      	ldr	r0, [r4, #0]
 80026ba:	f000 fd8b 	bl	80031d4 <SDMMC_CmdOperCond>
 80026be:	b170      	cbz	r0, 80026de <HAL_SD_InitCard+0x7e>
 80026c0:	6820      	ldr	r0, [r4, #0]
 80026c2:	64a5      	str	r5, [r4, #72]	; 0x48
 80026c4:	f000 faa6 	bl	8002c14 <SDMMC_CmdGoIdleState>
 80026c8:	b190      	cbz	r0, 80026f0 <HAL_SD_InitCard+0x90>
 80026ca:	2501      	movs	r5, #1
 80026cc:	f884 5034 	strb.w	r5, [r4, #52]	; 0x34
 80026d0:	6ba3      	ldr	r3, [r4, #56]	; 0x38
 80026d2:	4303      	orrs	r3, r0
 80026d4:	63a3      	str	r3, [r4, #56]	; 0x38
 80026d6:	4628      	mov	r0, r5
 80026d8:	b018      	add	sp, #96	; 0x60
 80026da:	e8bd 81f0 	ldmia.w	sp!, {r4, r5, r6, r7, r8, pc}
 80026de:	64a6      	str	r6, [r4, #72]	; 0x48
 80026e0:	6820      	ldr	r0, [r4, #0]
 80026e2:	2100      	movs	r1, #0
 80026e4:	f000 fbfd 	bl	8002ee2 <SDMMC_CmdAppCommand>
 80026e8:	b128      	cbz	r0, 80026f6 <HAL_SD_InitCard+0x96>
 80026ea:	f04f 5080 	mov.w	r0, #268435456	; 0x10000000
 80026ee:	e7ec      	b.n	80026ca <HAL_SD_InitCard+0x6a>
 80026f0:	6ca3      	ldr	r3, [r4, #72]	; 0x48
 80026f2:	2b01      	cmp	r3, #1
 80026f4:	d0f4      	beq.n	80026e0 <HAL_SD_InitCard+0x80>
 80026f6:	f8df 8168 	ldr.w	r8, [pc, #360]	; 8002860 <HAL_SD_InitCard+0x200>
 80026fa:	2600      	movs	r6, #0
 80026fc:	f64f 77fe 	movw	r7, #65534	; 0xfffe
 8002700:	e014      	b.n	800272c <HAL_SD_InitCard+0xcc>
 8002702:	6820      	ldr	r0, [r4, #0]
 8002704:	4631      	mov	r1, r6
 8002706:	f000 fbec 	bl	8002ee2 <SDMMC_CmdAppCommand>
 800270a:	2800      	cmp	r0, #0
 800270c:	d1dd      	bne.n	80026ca <HAL_SD_InitCard+0x6a>
 800270e:	6820      	ldr	r0, [r4, #0]
 8002710:	4641      	mov	r1, r8
 8002712:	f000 fcbd 	bl	8003090 <SDMMC_CmdAppOperCommand>
 8002716:	2800      	cmp	r0, #0
 8002718:	d1e7      	bne.n	80026ea <HAL_SD_InitCard+0x8a>
 800271a:	4631      	mov	r1, r6
 800271c:	6820      	ldr	r0, [r4, #0]
 800271e:	f000 fa63 	bl	8002be8 <SDIO_GetResponse>
 8002722:	9b06      	ldr	r3, [sp, #24]
 8002724:	3301      	adds	r3, #1
 8002726:	4605      	mov	r5, r0
 8002728:	0fc6      	lsrs	r6, r0, #31
 800272a:	9306      	str	r3, [sp, #24]
 800272c:	9b06      	ldr	r3, [sp, #24]
 800272e:	42bb      	cmp	r3, r7
 8002730:	d801      	bhi.n	8002736 <HAL_SD_InitCard+0xd6>
 8002732:	2e00      	cmp	r6, #0
 8002734:	d0e5      	beq.n	8002702 <HAL_SD_InitCard+0xa2>
 8002736:	9b06      	ldr	r3, [sp, #24]
 8002738:	42bb      	cmp	r3, r7
 800273a:	d80c      	bhi.n	8002756 <HAL_SD_InitCard+0xf6>
 800273c:	f3c5 7580 	ubfx	r5, r5, #30, #1
 8002740:	2301      	movs	r3, #1
 8002742:	6820      	ldr	r0, [r4, #0]
 8002744:	6465      	str	r5, [r4, #68]	; 0x44
 8002746:	f8ad 3016 	strh.w	r3, [sp, #22]
 800274a:	f000 fa36 	bl	8002bba <SDIO_GetPowerState>
 800274e:	b928      	cbnz	r0, 800275c <HAL_SD_InitCard+0xfc>
 8002750:	f04f 6080 	mov.w	r0, #67108864	; 0x4000000
 8002754:	e7b9      	b.n	80026ca <HAL_SD_InitCard+0x6a>
 8002756:	f04f 7080 	mov.w	r0, #16777216	; 0x1000000
 800275a:	e7b6      	b.n	80026ca <HAL_SD_InitCard+0x6a>
 800275c:	6c63      	ldr	r3, [r4, #68]	; 0x44
 800275e:	6820      	ldr	r0, [r4, #0]
 8002760:	2b03      	cmp	r3, #3
 8002762:	d042      	beq.n	80027ea <HAL_SD_InitCard+0x18a>
 8002764:	f000 fc48 	bl	8002ff8 <SDMMC_CmdSendCID>
 8002768:	2800      	cmp	r0, #0
 800276a:	d1ae      	bne.n	80026ca <HAL_SD_InitCard+0x6a>
 800276c:	4601      	mov	r1, r0
 800276e:	6820      	ldr	r0, [r4, #0]
 8002770:	f000 fa3a 	bl	8002be8 <SDIO_GetResponse>
 8002774:	2104      	movs	r1, #4
 8002776:	6760      	str	r0, [r4, #116]	; 0x74
 8002778:	6820      	ldr	r0, [r4, #0]
 800277a:	f000 fa35 	bl	8002be8 <SDIO_GetResponse>
 800277e:	2108      	movs	r1, #8
 8002780:	67a0      	str	r0, [r4, #120]	; 0x78
 8002782:	6820      	ldr	r0, [r4, #0]
 8002784:	f000 fa30 	bl	8002be8 <SDIO_GetResponse>
 8002788:	210c      	movs	r1, #12
 800278a:	67e0      	str	r0, [r4, #124]	; 0x7c
 800278c:	6820      	ldr	r0, [r4, #0]
 800278e:	f000 fa2b 	bl	8002be8 <SDIO_GetResponse>
 8002792:	6c63      	ldr	r3, [r4, #68]	; 0x44
 8002794:	f8c4 0080 	str.w	r0, [r4, #128]	; 0x80
 8002798:	2b03      	cmp	r3, #3
 800279a:	d026      	beq.n	80027ea <HAL_SD_InitCard+0x18a>
 800279c:	6820      	ldr	r0, [r4, #0]
 800279e:	f10d 0116 	add.w	r1, sp, #22
 80027a2:	f000 fcd1 	bl	8003148 <SDMMC_CmdSetRelAdd>
 80027a6:	2800      	cmp	r0, #0
 80027a8:	d18f      	bne.n	80026ca <HAL_SD_InitCard+0x6a>
 80027aa:	6c63      	ldr	r3, [r4, #68]	; 0x44
 80027ac:	6820      	ldr	r0, [r4, #0]
 80027ae:	2b03      	cmp	r3, #3
 80027b0:	d01b      	beq.n	80027ea <HAL_SD_InitCard+0x18a>
 80027b2:	f8bd 1016 	ldrh.w	r1, [sp, #22]
 80027b6:	6521      	str	r1, [r4, #80]	; 0x50
 80027b8:	0409      	lsls	r1, r1, #16
 80027ba:	f000 fc33 	bl	8003024 <SDMMC_CmdSendCSD>
 80027be:	2800      	cmp	r0, #0
 80027c0:	d183      	bne.n	80026ca <HAL_SD_InitCard+0x6a>
 80027c2:	4601      	mov	r1, r0
 80027c4:	6820      	ldr	r0, [r4, #0]
 80027c6:	f000 fa0f 	bl	8002be8 <SDIO_GetResponse>
 80027ca:	2104      	movs	r1, #4
 80027cc:	6660      	str	r0, [r4, #100]	; 0x64
 80027ce:	6820      	ldr	r0, [r4, #0]
 80027d0:	f000 fa0a 	bl	8002be8 <SDIO_GetResponse>
 80027d4:	2108      	movs	r1, #8
 80027d6:	66a0      	str	r0, [r4, #104]	; 0x68
 80027d8:	6820      	ldr	r0, [r4, #0]
 80027da:	f000 fa05 	bl	8002be8 <SDIO_GetResponse>
 80027de:	210c      	movs	r1, #12
 80027e0:	66e0      	str	r0, [r4, #108]	; 0x6c
 80027e2:	6820      	ldr	r0, [r4, #0]
 80027e4:	f000 fa00 	bl	8002be8 <SDIO_GetResponse>
 80027e8:	6720      	str	r0, [r4, #112]	; 0x70
 80027ea:	2104      	movs	r1, #4
 80027ec:	6820      	ldr	r0, [r4, #0]
 80027ee:	f000 f9fb 	bl	8002be8 <SDIO_GetResponse>
 80027f2:	0d00      	lsrs	r0, r0, #20
 80027f4:	64e0      	str	r0, [r4, #76]	; 0x4c
 80027f6:	a90d      	add	r1, sp, #52	; 0x34
 80027f8:	4620      	mov	r0, r4
 80027fa:	f7ff fe7b 	bl	80024f4 <HAL_SD_GetCardCSD>
 80027fe:	4605      	mov	r5, r0
 8002800:	2800      	cmp	r0, #0
 8002802:	f47f af72 	bne.w	80026ea <HAL_SD_InitCard+0x8a>
 8002806:	6d22      	ldr	r2, [r4, #80]	; 0x50
 8002808:	4603      	mov	r3, r0
 800280a:	0412      	lsls	r2, r2, #16
 800280c:	6820      	ldr	r0, [r4, #0]
 800280e:	f000 fb4f 	bl	8002eb0 <SDMMC_CmdSelDesel>
 8002812:	2800      	cmp	r0, #0
 8002814:	f47f af59 	bne.w	80026ca <HAL_SD_InitCard+0x6a>
 8002818:	f104 0310 	add.w	r3, r4, #16
 800281c:	e893 0007 	ldmia.w	r3, {r0, r1, r2}
 8002820:	e88d 0007 	stmia.w	sp, {r0, r1, r2}
 8002824:	1d23      	adds	r3, r4, #4
 8002826:	cb0e      	ldmia	r3, {r1, r2, r3}
 8002828:	6820      	ldr	r0, [r4, #0]
 800282a:	f000 f9a3 	bl	8002b74 <SDIO_Init>
 800282e:	6820      	ldr	r0, [r4, #0]
 8002830:	f44f 7100 	mov.w	r1, #512	; 0x200
 8002834:	f000 faa4 	bl	8002d80 <SDMMC_CmdBlockLength>
 8002838:	2800      	cmp	r0, #0
 800283a:	f43f af4c 	beq.w	80026d6 <HAL_SD_InitCard+0x76>
 800283e:	6823      	ldr	r3, [r4, #0]
 8002840:	4a06      	ldr	r2, [pc, #24]	; (800285c <HAL_SD_InitCard+0x1fc>)
 8002842:	639a      	str	r2, [r3, #56]	; 0x38
 8002844:	6ba3      	ldr	r3, [r4, #56]	; 0x38
 8002846:	2501      	movs	r5, #1
 8002848:	4318      	orrs	r0, r3
 800284a:	63a0      	str	r0, [r4, #56]	; 0x38
 800284c:	f884 5034 	strb.w	r5, [r4, #52]	; 0x34
 8002850:	e741      	b.n	80026d6 <HAL_SD_InitCard+0x76>
 8002852:	2501      	movs	r5, #1
 8002854:	e73f      	b.n	80026d6 <HAL_SD_InitCard+0x76>
 8002856:	bf00      	nop
 8002858:	42258000 	.word	0x42258000
 800285c:	004005ff 	.word	0x004005ff
 8002860:	c1100000 	.word	0xc1100000

08002864 <HAL_SD_Init>:
 8002864:	b510      	push	{r4, lr}
 8002866:	4604      	mov	r4, r0
 8002868:	b908      	cbnz	r0, 800286e <HAL_SD_Init+0xa>
 800286a:	2001      	movs	r0, #1
 800286c:	bd10      	pop	{r4, pc}
 800286e:	f890 3034 	ldrb.w	r3, [r0, #52]	; 0x34
 8002872:	f003 02ff 	and.w	r2, r3, #255	; 0xff
 8002876:	b913      	cbnz	r3, 800287e <HAL_SD_Init+0x1a>
 8002878:	7702      	strb	r2, [r0, #28]
 800287a:	f7fd ff6d 	bl	8000758 <HAL_SD_MspInit>
 800287e:	2303      	movs	r3, #3
 8002880:	f884 3034 	strb.w	r3, [r4, #52]	; 0x34
 8002884:	4620      	mov	r0, r4
 8002886:	f7ff feeb 	bl	8002660 <HAL_SD_InitCard>
 800288a:	2800      	cmp	r0, #0
 800288c:	d1ed      	bne.n	800286a <HAL_SD_Init+0x6>
 800288e:	2301      	movs	r3, #1
 8002890:	63a0      	str	r0, [r4, #56]	; 0x38
 8002892:	6320      	str	r0, [r4, #48]	; 0x30
 8002894:	f884 3034 	strb.w	r3, [r4, #52]	; 0x34
 8002898:	e7e8      	b.n	800286c <HAL_SD_Init+0x8>

0800289a <HAL_SD_GetCardInfo>:
 800289a:	6c43      	ldr	r3, [r0, #68]	; 0x44
 800289c:	600b      	str	r3, [r1, #0]
 800289e:	6c83      	ldr	r3, [r0, #72]	; 0x48
 80028a0:	604b      	str	r3, [r1, #4]
 80028a2:	6cc3      	ldr	r3, [r0, #76]	; 0x4c
 80028a4:	608b      	str	r3, [r1, #8]
 80028a6:	6d03      	ldr	r3, [r0, #80]	; 0x50
 80028a8:	60cb      	str	r3, [r1, #12]
 80028aa:	6d43      	ldr	r3, [r0, #84]	; 0x54
 80028ac:	610b      	str	r3, [r1, #16]
 80028ae:	6d83      	ldr	r3, [r0, #88]	; 0x58
 80028b0:	614b      	str	r3, [r1, #20]
 80028b2:	6dc3      	ldr	r3, [r0, #92]	; 0x5c
 80028b4:	618b      	str	r3, [r1, #24]
 80028b6:	6e03      	ldr	r3, [r0, #96]	; 0x60
 80028b8:	61cb      	str	r3, [r1, #28]
 80028ba:	2000      	movs	r0, #0
 80028bc:	4770      	bx	lr
	...

080028c0 <HAL_SD_ConfigWideBusOperation>:
 80028c0:	b5f0      	push	{r4, r5, r6, r7, lr}
 80028c2:	2303      	movs	r3, #3
 80028c4:	4604      	mov	r4, r0
 80028c6:	f880 3034 	strb.w	r3, [r0, #52]	; 0x34
 80028ca:	6c63      	ldr	r3, [r4, #68]	; 0x44
 80028cc:	6800      	ldr	r0, [r0, #0]
 80028ce:	2b03      	cmp	r3, #3
 80028d0:	b08b      	sub	sp, #44	; 0x2c
 80028d2:	460d      	mov	r5, r1
 80028d4:	d002      	beq.n	80028dc <HAL_SD_ConfigWideBusOperation+0x1c>
 80028d6:	f5b1 5f80 	cmp.w	r1, #4096	; 0x1000
 80028da:	d103      	bne.n	80028e4 <HAL_SD_ConfigWideBusOperation+0x24>
 80028dc:	6ba3      	ldr	r3, [r4, #56]	; 0x38
 80028de:	f043 5380 	orr.w	r3, r3, #268435456	; 0x10000000
 80028e2:	e01d      	b.n	8002920 <HAL_SD_ConfigWideBusOperation+0x60>
 80028e4:	f5b1 6f00 	cmp.w	r1, #2048	; 0x800
 80028e8:	d137      	bne.n	800295a <HAL_SD_ConfigWideBusOperation+0x9a>
 80028ea:	2100      	movs	r1, #0
 80028ec:	e9cd 1104 	strd	r1, r1, [sp, #16]
 80028f0:	f000 f97a 	bl	8002be8 <SDIO_GetResponse>
 80028f4:	0180      	lsls	r0, r0, #6
 80028f6:	d449      	bmi.n	800298c <HAL_SD_ConfigWideBusOperation+0xcc>
 80028f8:	a904      	add	r1, sp, #16
 80028fa:	4620      	mov	r0, r4
 80028fc:	f7ff fc4b 	bl	8002196 <SD_FindSCR.constprop.0>
 8002900:	b960      	cbnz	r0, 800291c <HAL_SD_ConfigWideBusOperation+0x5c>
 8002902:	9b05      	ldr	r3, [sp, #20]
 8002904:	0359      	lsls	r1, r3, #13
 8002906:	d544      	bpl.n	8002992 <HAL_SD_ConfigWideBusOperation+0xd2>
 8002908:	6d21      	ldr	r1, [r4, #80]	; 0x50
 800290a:	6820      	ldr	r0, [r4, #0]
 800290c:	0409      	lsls	r1, r1, #16
 800290e:	f000 fae8 	bl	8002ee2 <SDMMC_CmdAppCommand>
 8002912:	b918      	cbnz	r0, 800291c <HAL_SD_ConfigWideBusOperation+0x5c>
 8002914:	2102      	movs	r1, #2
 8002916:	6820      	ldr	r0, [r4, #0]
 8002918:	f000 fafc 	bl	8002f14 <SDMMC_CmdBusWidth>
 800291c:	6ba3      	ldr	r3, [r4, #56]	; 0x38
 800291e:	4303      	orrs	r3, r0
 8002920:	63a3      	str	r3, [r4, #56]	; 0x38
 8002922:	6ba6      	ldr	r6, [r4, #56]	; 0x38
 8002924:	6827      	ldr	r7, [r4, #0]
 8002926:	2e00      	cmp	r6, #0
 8002928:	d03a      	beq.n	80029a0 <HAL_SD_ConfigWideBusOperation+0xe0>
 800292a:	4b29      	ldr	r3, [pc, #164]	; (80029d0 <HAL_SD_ConfigWideBusOperation+0x110>)
 800292c:	63bb      	str	r3, [r7, #56]	; 0x38
 800292e:	2501      	movs	r5, #1
 8002930:	f884 5034 	strb.w	r5, [r4, #52]	; 0x34
 8002934:	6820      	ldr	r0, [r4, #0]
 8002936:	f44f 7100 	mov.w	r1, #512	; 0x200
 800293a:	f000 fa21 	bl	8002d80 <SDMMC_CmdBlockLength>
 800293e:	b130      	cbz	r0, 800294e <HAL_SD_ConfigWideBusOperation+0x8e>
 8002940:	6823      	ldr	r3, [r4, #0]
 8002942:	4a23      	ldr	r2, [pc, #140]	; (80029d0 <HAL_SD_ConfigWideBusOperation+0x110>)
 8002944:	639a      	str	r2, [r3, #56]	; 0x38
 8002946:	6ba3      	ldr	r3, [r4, #56]	; 0x38
 8002948:	4303      	orrs	r3, r0
 800294a:	63a3      	str	r3, [r4, #56]	; 0x38
 800294c:	2501      	movs	r5, #1
 800294e:	2301      	movs	r3, #1
 8002950:	4628      	mov	r0, r5
 8002952:	f884 3034 	strb.w	r3, [r4, #52]	; 0x34
 8002956:	b00b      	add	sp, #44	; 0x2c
 8002958:	bdf0      	pop	{r4, r5, r6, r7, pc}
 800295a:	b9e9      	cbnz	r1, 8002998 <HAL_SD_ConfigWideBusOperation+0xd8>
 800295c:	e9cd 1104 	strd	r1, r1, [sp, #16]
 8002960:	f000 f942 	bl	8002be8 <SDIO_GetResponse>
 8002964:	0182      	lsls	r2, r0, #6
 8002966:	d411      	bmi.n	800298c <HAL_SD_ConfigWideBusOperation+0xcc>
 8002968:	a904      	add	r1, sp, #16
 800296a:	4620      	mov	r0, r4
 800296c:	f7ff fc13 	bl	8002196 <SD_FindSCR.constprop.0>
 8002970:	2800      	cmp	r0, #0
 8002972:	d1d3      	bne.n	800291c <HAL_SD_ConfigWideBusOperation+0x5c>
 8002974:	9b05      	ldr	r3, [sp, #20]
 8002976:	03db      	lsls	r3, r3, #15
 8002978:	d50b      	bpl.n	8002992 <HAL_SD_ConfigWideBusOperation+0xd2>
 800297a:	6d21      	ldr	r1, [r4, #80]	; 0x50
 800297c:	6820      	ldr	r0, [r4, #0]
 800297e:	0409      	lsls	r1, r1, #16
 8002980:	f000 faaf 	bl	8002ee2 <SDMMC_CmdAppCommand>
 8002984:	2800      	cmp	r0, #0
 8002986:	d1c9      	bne.n	800291c <HAL_SD_ConfigWideBusOperation+0x5c>
 8002988:	4601      	mov	r1, r0
 800298a:	e7c4      	b.n	8002916 <HAL_SD_ConfigWideBusOperation+0x56>
 800298c:	f44f 6000 	mov.w	r0, #2048	; 0x800
 8002990:	e7c4      	b.n	800291c <HAL_SD_ConfigWideBusOperation+0x5c>
 8002992:	f04f 6080 	mov.w	r0, #67108864	; 0x4000000
 8002996:	e7c1      	b.n	800291c <HAL_SD_ConfigWideBusOperation+0x5c>
 8002998:	6ba3      	ldr	r3, [r4, #56]	; 0x38
 800299a:	f043 6300 	orr.w	r3, r3, #134217728	; 0x8000000
 800299e:	e7bf      	b.n	8002920 <HAL_SD_ConfigWideBusOperation+0x60>
 80029a0:	6863      	ldr	r3, [r4, #4]
 80029a2:	9304      	str	r3, [sp, #16]
 80029a4:	68a3      	ldr	r3, [r4, #8]
 80029a6:	9305      	str	r3, [sp, #20]
 80029a8:	68e3      	ldr	r3, [r4, #12]
 80029aa:	e9cd 3506 	strd	r3, r5, [sp, #24]
 80029ae:	6963      	ldr	r3, [r4, #20]
 80029b0:	9308      	str	r3, [sp, #32]
 80029b2:	69a3      	ldr	r3, [r4, #24]
 80029b4:	9309      	str	r3, [sp, #36]	; 0x24
 80029b6:	ab0a      	add	r3, sp, #40	; 0x28
 80029b8:	e913 0007 	ldmdb	r3, {r0, r1, r2}
 80029bc:	e88d 0007 	stmia.w	sp, {r0, r1, r2}
 80029c0:	ab04      	add	r3, sp, #16
 80029c2:	cb0e      	ldmia	r3, {r1, r2, r3}
 80029c4:	4638      	mov	r0, r7
 80029c6:	f000 f8d5 	bl	8002b74 <SDIO_Init>
 80029ca:	4635      	mov	r5, r6
 80029cc:	e7b2      	b.n	8002934 <HAL_SD_ConfigWideBusOperation+0x74>
 80029ce:	bf00      	nop
 80029d0:	004005ff 	.word	0x004005ff

080029d4 <HAL_SD_GetCardState>:
 80029d4:	6d01      	ldr	r1, [r0, #80]	; 0x50
 80029d6:	b510      	push	{r4, lr}
 80029d8:	0409      	lsls	r1, r1, #16
 80029da:	4604      	mov	r4, r0
 80029dc:	6800      	ldr	r0, [r0, #0]
 80029de:	f000 facb 	bl	8002f78 <SDMMC_CmdSendStatus>
 80029e2:	4601      	mov	r1, r0
 80029e4:	b928      	cbnz	r0, 80029f2 <HAL_SD_GetCardState+0x1e>
 80029e6:	6820      	ldr	r0, [r4, #0]
 80029e8:	f000 f8fe 	bl	8002be8 <SDIO_GetResponse>
 80029ec:	f3c0 2043 	ubfx	r0, r0, #9, #4
 80029f0:	bd10      	pop	{r4, pc}
 80029f2:	6ba3      	ldr	r3, [r4, #56]	; 0x38
 80029f4:	4303      	orrs	r3, r0
 80029f6:	63a3      	str	r3, [r4, #56]	; 0x38
 80029f8:	2000      	movs	r0, #0
 80029fa:	e7f7      	b.n	80029ec <HAL_SD_GetCardState+0x18>

080029fc <SD_DMAError>:
 80029fc:	b510      	push	{r4, lr}
 80029fe:	6b84      	ldr	r4, [r0, #56]	; 0x38
 8002a00:	f7fe fbb6 	bl	8001170 <HAL_DMA_GetError>
 8002a04:	2802      	cmp	r0, #2
 8002a06:	d026      	beq.n	8002a56 <SD_DMAError+0x5a>
 8002a08:	6c23      	ldr	r3, [r4, #64]	; 0x40
 8002a0a:	6d5a      	ldr	r2, [r3, #84]	; 0x54
 8002a0c:	6be3      	ldr	r3, [r4, #60]	; 0x3c
 8002a0e:	2a01      	cmp	r2, #1
 8002a10:	6d5b      	ldr	r3, [r3, #84]	; 0x54
 8002a12:	d001      	beq.n	8002a18 <SD_DMAError+0x1c>
 8002a14:	2b01      	cmp	r3, #1
 8002a16:	d11b      	bne.n	8002a50 <SD_DMAError+0x54>
 8002a18:	6823      	ldr	r3, [r4, #0]
 8002a1a:	4a0f      	ldr	r2, [pc, #60]	; (8002a58 <SD_DMAError+0x5c>)
 8002a1c:	639a      	str	r2, [r3, #56]	; 0x38
 8002a1e:	6bda      	ldr	r2, [r3, #60]	; 0x3c
 8002a20:	f422 729d 	bic.w	r2, r2, #314	; 0x13a
 8002a24:	63da      	str	r2, [r3, #60]	; 0x3c
 8002a26:	6ba3      	ldr	r3, [r4, #56]	; 0x38
 8002a28:	f043 4380 	orr.w	r3, r3, #1073741824	; 0x40000000
 8002a2c:	63a3      	str	r3, [r4, #56]	; 0x38
 8002a2e:	4620      	mov	r0, r4
 8002a30:	f7ff ffd0 	bl	80029d4 <HAL_SD_GetCardState>
 8002a34:	3805      	subs	r0, #5
 8002a36:	2801      	cmp	r0, #1
 8002a38:	d805      	bhi.n	8002a46 <SD_DMAError+0x4a>
 8002a3a:	6820      	ldr	r0, [r4, #0]
 8002a3c:	f000 fa1e 	bl	8002e7c <SDMMC_CmdStopTransfer>
 8002a40:	6ba3      	ldr	r3, [r4, #56]	; 0x38
 8002a42:	4318      	orrs	r0, r3
 8002a44:	63a0      	str	r0, [r4, #56]	; 0x38
 8002a46:	2301      	movs	r3, #1
 8002a48:	f884 3034 	strb.w	r3, [r4, #52]	; 0x34
 8002a4c:	2300      	movs	r3, #0
 8002a4e:	6323      	str	r3, [r4, #48]	; 0x30
 8002a50:	4620      	mov	r0, r4
 8002a52:	f7ff fd2d 	bl	80024b0 <HAL_SD_ErrorCallback>
 8002a56:	bd10      	pop	{r4, pc}
 8002a58:	004005ff 	.word	0x004005ff

08002a5c <UART_SetConfig>:
 8002a5c:	6802      	ldr	r2, [r0, #0]
 8002a5e:	68c1      	ldr	r1, [r0, #12]
 8002a60:	6913      	ldr	r3, [r2, #16]
 8002a62:	f423 5340 	bic.w	r3, r3, #12288	; 0x3000
 8002a66:	430b      	orrs	r3, r1
 8002a68:	b570      	push	{r4, r5, r6, lr}
 8002a6a:	6113      	str	r3, [r2, #16]
 8002a6c:	4605      	mov	r5, r0
 8002a6e:	6883      	ldr	r3, [r0, #8]
 8002a70:	6900      	ldr	r0, [r0, #16]
 8002a72:	68d1      	ldr	r1, [r2, #12]
 8002a74:	4303      	orrs	r3, r0
 8002a76:	6968      	ldr	r0, [r5, #20]
 8002a78:	4303      	orrs	r3, r0
 8002a7a:	69e8      	ldr	r0, [r5, #28]
 8002a7c:	f421 4116 	bic.w	r1, r1, #38400	; 0x9600
 8002a80:	f021 010c 	bic.w	r1, r1, #12
 8002a84:	4303      	orrs	r3, r0
 8002a86:	430b      	orrs	r3, r1
 8002a88:	60d3      	str	r3, [r2, #12]
 8002a8a:	6953      	ldr	r3, [r2, #20]
 8002a8c:	69a9      	ldr	r1, [r5, #24]
 8002a8e:	f423 7340 	bic.w	r3, r3, #768	; 0x300
 8002a92:	430b      	orrs	r3, r1
 8002a94:	6153      	str	r3, [r2, #20]
 8002a96:	4b1f      	ldr	r3, [pc, #124]	; (8002b14 <UART_SetConfig+0xb8>)
 8002a98:	429a      	cmp	r2, r3
 8002a9a:	d003      	beq.n	8002aa4 <UART_SetConfig+0x48>
 8002a9c:	f503 6380 	add.w	r3, r3, #1024	; 0x400
 8002aa0:	429a      	cmp	r2, r3
 8002aa2:	d123      	bne.n	8002aec <UART_SetConfig+0x90>
 8002aa4:	f7ff fb60 	bl	8002168 <HAL_RCC_GetPCLK2Freq>
 8002aa8:	69eb      	ldr	r3, [r5, #28]
 8002aaa:	2119      	movs	r1, #25
 8002aac:	f5b3 4f00 	cmp.w	r3, #32768	; 0x8000
 8002ab0:	e9d5 4600 	ldrd	r4, r6, [r5]
 8002ab4:	fba0 0101 	umull	r0, r1, r0, r1
 8002ab8:	d11b      	bne.n	8002af2 <UART_SetConfig+0x96>
 8002aba:	19b2      	adds	r2, r6, r6
 8002abc:	f04f 0300 	mov.w	r3, #0
 8002ac0:	415b      	adcs	r3, r3
 8002ac2:	f7fd fbdd 	bl	8000280 <__aeabi_uldivmod>
 8002ac6:	2264      	movs	r2, #100	; 0x64
 8002ac8:	fbb0 f1f2 	udiv	r1, r0, r2
 8002acc:	fb02 0311 	mls	r3, r2, r1, r0
 8002ad0:	00db      	lsls	r3, r3, #3
 8002ad2:	3332      	adds	r3, #50	; 0x32
 8002ad4:	fbb3 f3f2 	udiv	r3, r3, r2
 8002ad8:	f003 0207 	and.w	r2, r3, #7
 8002adc:	005b      	lsls	r3, r3, #1
 8002ade:	eb02 1201 	add.w	r2, r2, r1, lsl #4
 8002ae2:	f403 73f8 	and.w	r3, r3, #496	; 0x1f0
 8002ae6:	4413      	add	r3, r2
 8002ae8:	60a3      	str	r3, [r4, #8]
 8002aea:	bd70      	pop	{r4, r5, r6, pc}
 8002aec:	f7ff fb2c 	bl	8002148 <HAL_RCC_GetPCLK1Freq>
 8002af0:	e7da      	b.n	8002aa8 <UART_SetConfig+0x4c>
 8002af2:	00b2      	lsls	r2, r6, #2
 8002af4:	0fb3      	lsrs	r3, r6, #30
 8002af6:	f7fd fbc3 	bl	8000280 <__aeabi_uldivmod>
 8002afa:	2264      	movs	r2, #100	; 0x64
 8002afc:	fbb0 f1f2 	udiv	r1, r0, r2
 8002b00:	fb02 0311 	mls	r3, r2, r1, r0
 8002b04:	011b      	lsls	r3, r3, #4
 8002b06:	3332      	adds	r3, #50	; 0x32
 8002b08:	fbb3 f3f2 	udiv	r3, r3, r2
 8002b0c:	eb03 1301 	add.w	r3, r3, r1, lsl #4
 8002b10:	e7ea      	b.n	8002ae8 <UART_SetConfig+0x8c>
 8002b12:	bf00      	nop
 8002b14:	40011000 	.word	0x40011000

08002b18 <HAL_UART_Init>:
 8002b18:	b510      	push	{r4, lr}
 8002b1a:	4604      	mov	r4, r0
 8002b1c:	b340      	cbz	r0, 8002b70 <HAL_UART_Init+0x58>
 8002b1e:	f890 303d 	ldrb.w	r3, [r0, #61]	; 0x3d
 8002b22:	f003 02ff 	and.w	r2, r3, #255	; 0xff
 8002b26:	b91b      	cbnz	r3, 8002b30 <HAL_UART_Init+0x18>
 8002b28:	f880 203c 	strb.w	r2, [r0, #60]	; 0x3c
 8002b2c:	f7fd fe62 	bl	80007f4 <HAL_UART_MspInit>
 8002b30:	6822      	ldr	r2, [r4, #0]
 8002b32:	2324      	movs	r3, #36	; 0x24
 8002b34:	f884 303d 	strb.w	r3, [r4, #61]	; 0x3d
 8002b38:	68d3      	ldr	r3, [r2, #12]
 8002b3a:	f423 5300 	bic.w	r3, r3, #8192	; 0x2000
 8002b3e:	60d3      	str	r3, [r2, #12]
 8002b40:	4620      	mov	r0, r4
 8002b42:	f7ff ff8b 	bl	8002a5c <UART_SetConfig>
 8002b46:	6823      	ldr	r3, [r4, #0]
 8002b48:	691a      	ldr	r2, [r3, #16]
 8002b4a:	f422 4290 	bic.w	r2, r2, #18432	; 0x4800
 8002b4e:	611a      	str	r2, [r3, #16]
 8002b50:	695a      	ldr	r2, [r3, #20]
 8002b52:	f022 022a 	bic.w	r2, r2, #42	; 0x2a
 8002b56:	615a      	str	r2, [r3, #20]
 8002b58:	68da      	ldr	r2, [r3, #12]
 8002b5a:	f442 5200 	orr.w	r2, r2, #8192	; 0x2000
 8002b5e:	60da      	str	r2, [r3, #12]
 8002b60:	2000      	movs	r0, #0
 8002b62:	2320      	movs	r3, #32
 8002b64:	6420      	str	r0, [r4, #64]	; 0x40
 8002b66:	f884 303d 	strb.w	r3, [r4, #61]	; 0x3d
 8002b6a:	f884 303e 	strb.w	r3, [r4, #62]	; 0x3e
 8002b6e:	bd10      	pop	{r4, pc}
 8002b70:	2001      	movs	r0, #1
 8002b72:	e7fc      	b.n	8002b6e <HAL_UART_Init+0x56>

08002b74 <SDIO_Init>:
 8002b74:	b084      	sub	sp, #16
 8002b76:	b510      	push	{r4, lr}
 8002b78:	ac03      	add	r4, sp, #12
 8002b7a:	e884 000e 	stmia.w	r4, {r1, r2, r3}
 8002b7e:	460b      	mov	r3, r1
 8002b80:	9904      	ldr	r1, [sp, #16]
 8002b82:	6842      	ldr	r2, [r0, #4]
 8002b84:	430b      	orrs	r3, r1
 8002b86:	9905      	ldr	r1, [sp, #20]
 8002b88:	430b      	orrs	r3, r1
 8002b8a:	9906      	ldr	r1, [sp, #24]
 8002b8c:	430b      	orrs	r3, r1
 8002b8e:	9907      	ldr	r1, [sp, #28]
 8002b90:	430b      	orrs	r3, r1
 8002b92:	9908      	ldr	r1, [sp, #32]
 8002b94:	e8bd 4010 	ldmia.w	sp!, {r4, lr}
 8002b98:	f422 42fd 	bic.w	r2, r2, #32384	; 0x7e80
 8002b9c:	430b      	orrs	r3, r1
 8002b9e:	f022 027f 	bic.w	r2, r2, #127	; 0x7f
 8002ba2:	4313      	orrs	r3, r2
 8002ba4:	6043      	str	r3, [r0, #4]
 8002ba6:	b004      	add	sp, #16
 8002ba8:	2000      	movs	r0, #0
 8002baa:	4770      	bx	lr

08002bac <SDIO_ReadFIFO>:
 8002bac:	f8d0 0080 	ldr.w	r0, [r0, #128]	; 0x80
 8002bb0:	4770      	bx	lr

08002bb2 <SDIO_PowerState_ON>:
 8002bb2:	2303      	movs	r3, #3
 8002bb4:	6003      	str	r3, [r0, #0]
 8002bb6:	2000      	movs	r0, #0
 8002bb8:	4770      	bx	lr

08002bba <SDIO_GetPowerState>:
 8002bba:	6800      	ldr	r0, [r0, #0]
 8002bbc:	f000 0003 	and.w	r0, r0, #3
 8002bc0:	4770      	bx	lr

08002bc2 <SDIO_SendCommand>:
 8002bc2:	680b      	ldr	r3, [r1, #0]
 8002bc4:	b510      	push	{r4, lr}
 8002bc6:	6083      	str	r3, [r0, #8]
 8002bc8:	e9d1 3401 	ldrd	r3, r4, [r1, #4]
 8002bcc:	68c2      	ldr	r2, [r0, #12]
 8002bce:	4323      	orrs	r3, r4
 8002bd0:	68cc      	ldr	r4, [r1, #12]
 8002bd2:	6909      	ldr	r1, [r1, #16]
 8002bd4:	4323      	orrs	r3, r4
 8002bd6:	f422 627f 	bic.w	r2, r2, #4080	; 0xff0
 8002bda:	430b      	orrs	r3, r1
 8002bdc:	f022 020f 	bic.w	r2, r2, #15
 8002be0:	4313      	orrs	r3, r2
 8002be2:	60c3      	str	r3, [r0, #12]
 8002be4:	2000      	movs	r0, #0
 8002be6:	bd10      	pop	{r4, pc}

08002be8 <SDIO_GetResponse>:
 8002be8:	3014      	adds	r0, #20
 8002bea:	5840      	ldr	r0, [r0, r1]
 8002bec:	4770      	bx	lr

08002bee <SDIO_ConfigData>:
 8002bee:	680b      	ldr	r3, [r1, #0]
 8002bf0:	b510      	push	{r4, lr}
 8002bf2:	6243      	str	r3, [r0, #36]	; 0x24
 8002bf4:	684b      	ldr	r3, [r1, #4]
 8002bf6:	6283      	str	r3, [r0, #40]	; 0x28
 8002bf8:	e9d1 3402 	ldrd	r3, r4, [r1, #8]
 8002bfc:	4323      	orrs	r3, r4
 8002bfe:	690c      	ldr	r4, [r1, #16]
 8002c00:	6ac2      	ldr	r2, [r0, #44]	; 0x2c
 8002c02:	6949      	ldr	r1, [r1, #20]
 8002c04:	4323      	orrs	r3, r4
 8002c06:	430b      	orrs	r3, r1
 8002c08:	f022 02f7 	bic.w	r2, r2, #247	; 0xf7
 8002c0c:	4313      	orrs	r3, r2
 8002c0e:	62c3      	str	r3, [r0, #44]	; 0x2c
 8002c10:	2000      	movs	r0, #0
 8002c12:	bd10      	pop	{r4, pc}

08002c14 <SDMMC_CmdGoIdleState>:
 8002c14:	b510      	push	{r4, lr}
 8002c16:	2300      	movs	r3, #0
 8002c18:	b086      	sub	sp, #24
 8002c1a:	e9cd 3301 	strd	r3, r3, [sp, #4]
 8002c1e:	e9cd 3303 	strd	r3, r3, [sp, #12]
 8002c22:	a901      	add	r1, sp, #4
 8002c24:	f44f 6380 	mov.w	r3, #1024	; 0x400
 8002c28:	9305      	str	r3, [sp, #20]
 8002c2a:	4604      	mov	r4, r0
 8002c2c:	f7ff ffc9 	bl	8002bc2 <SDIO_SendCommand>
 8002c30:	4b0a      	ldr	r3, [pc, #40]	; (8002c5c <SDMMC_CmdGoIdleState+0x48>)
 8002c32:	f44f 52fa 	mov.w	r2, #8000	; 0x1f40
 8002c36:	681b      	ldr	r3, [r3, #0]
 8002c38:	fbb3 f3f2 	udiv	r3, r3, r2
 8002c3c:	f241 3288 	movw	r2, #5000	; 0x1388
 8002c40:	4353      	muls	r3, r2
 8002c42:	3b01      	subs	r3, #1
 8002c44:	d307      	bcc.n	8002c56 <SDMMC_CmdGoIdleState+0x42>
 8002c46:	6b62      	ldr	r2, [r4, #52]	; 0x34
 8002c48:	0612      	lsls	r2, r2, #24
 8002c4a:	d5fa      	bpl.n	8002c42 <SDMMC_CmdGoIdleState+0x2e>
 8002c4c:	23c5      	movs	r3, #197	; 0xc5
 8002c4e:	63a3      	str	r3, [r4, #56]	; 0x38
 8002c50:	2000      	movs	r0, #0
 8002c52:	b006      	add	sp, #24
 8002c54:	bd10      	pop	{r4, pc}
 8002c56:	f04f 4000 	mov.w	r0, #2147483648	; 0x80000000
 8002c5a:	e7fa      	b.n	8002c52 <SDMMC_CmdGoIdleState+0x3e>
 8002c5c:	20000000 	.word	0x20000000

08002c60 <SDMMC_GetCmdResp1>:
 8002c60:	4b45      	ldr	r3, [pc, #276]	; (8002d78 <SDMMC_GetCmdResp1+0x118>)
 8002c62:	b510      	push	{r4, lr}
 8002c64:	681b      	ldr	r3, [r3, #0]
 8002c66:	4604      	mov	r4, r0
 8002c68:	f44f 50fa 	mov.w	r0, #8000	; 0x1f40
 8002c6c:	fbb3 f3f0 	udiv	r3, r3, r0
 8002c70:	435a      	muls	r2, r3
 8002c72:	2a00      	cmp	r2, #0
 8002c74:	d049      	beq.n	8002d0a <SDMMC_GetCmdResp1+0xaa>
 8002c76:	6b63      	ldr	r3, [r4, #52]	; 0x34
 8002c78:	f013 0f45 	tst.w	r3, #69	; 0x45
 8002c7c:	d007      	beq.n	8002c8e <SDMMC_GetCmdResp1+0x2e>
 8002c7e:	051b      	lsls	r3, r3, #20
 8002c80:	d405      	bmi.n	8002c8e <SDMMC_GetCmdResp1+0x2e>
 8002c82:	6b63      	ldr	r3, [r4, #52]	; 0x34
 8002c84:	0758      	lsls	r0, r3, #29
 8002c86:	d504      	bpl.n	8002c92 <SDMMC_GetCmdResp1+0x32>
 8002c88:	2004      	movs	r0, #4
 8002c8a:	63a0      	str	r0, [r4, #56]	; 0x38
 8002c8c:	bd10      	pop	{r4, pc}
 8002c8e:	3a01      	subs	r2, #1
 8002c90:	e7ef      	b.n	8002c72 <SDMMC_GetCmdResp1+0x12>
 8002c92:	6b60      	ldr	r0, [r4, #52]	; 0x34
 8002c94:	f010 0001 	ands.w	r0, r0, #1
 8002c98:	d002      	beq.n	8002ca0 <SDMMC_GetCmdResp1+0x40>
 8002c9a:	2301      	movs	r3, #1
 8002c9c:	63a3      	str	r3, [r4, #56]	; 0x38
 8002c9e:	e7f5      	b.n	8002c8c <SDMMC_GetCmdResp1+0x2c>
 8002ca0:	23c5      	movs	r3, #197	; 0xc5
 8002ca2:	63a3      	str	r3, [r4, #56]	; 0x38
 8002ca4:	6923      	ldr	r3, [r4, #16]
 8002ca6:	b2db      	uxtb	r3, r3
 8002ca8:	4299      	cmp	r1, r3
 8002caa:	d131      	bne.n	8002d10 <SDMMC_GetCmdResp1+0xb0>
 8002cac:	6963      	ldr	r3, [r4, #20]
 8002cae:	4833      	ldr	r0, [pc, #204]	; (8002d7c <SDMMC_GetCmdResp1+0x11c>)
 8002cb0:	4018      	ands	r0, r3
 8002cb2:	2800      	cmp	r0, #0
 8002cb4:	d0ea      	beq.n	8002c8c <SDMMC_GetCmdResp1+0x2c>
 8002cb6:	2b00      	cmp	r3, #0
 8002cb8:	db2c      	blt.n	8002d14 <SDMMC_GetCmdResp1+0xb4>
 8002cba:	005a      	lsls	r2, r3, #1
 8002cbc:	d42d      	bmi.n	8002d1a <SDMMC_GetCmdResp1+0xba>
 8002cbe:	009c      	lsls	r4, r3, #2
 8002cc0:	d42d      	bmi.n	8002d1e <SDMMC_GetCmdResp1+0xbe>
 8002cc2:	00d9      	lsls	r1, r3, #3
 8002cc4:	d42d      	bmi.n	8002d22 <SDMMC_GetCmdResp1+0xc2>
 8002cc6:	011a      	lsls	r2, r3, #4
 8002cc8:	d42e      	bmi.n	8002d28 <SDMMC_GetCmdResp1+0xc8>
 8002cca:	015c      	lsls	r4, r3, #5
 8002ccc:	d42f      	bmi.n	8002d2e <SDMMC_GetCmdResp1+0xce>
 8002cce:	01d9      	lsls	r1, r3, #7
 8002cd0:	d430      	bmi.n	8002d34 <SDMMC_GetCmdResp1+0xd4>
 8002cd2:	021a      	lsls	r2, r3, #8
 8002cd4:	d431      	bmi.n	8002d3a <SDMMC_GetCmdResp1+0xda>
 8002cd6:	025c      	lsls	r4, r3, #9
 8002cd8:	d432      	bmi.n	8002d40 <SDMMC_GetCmdResp1+0xe0>
 8002cda:	0299      	lsls	r1, r3, #10
 8002cdc:	d433      	bmi.n	8002d46 <SDMMC_GetCmdResp1+0xe6>
 8002cde:	02da      	lsls	r2, r3, #11
 8002ce0:	d434      	bmi.n	8002d4c <SDMMC_GetCmdResp1+0xec>
 8002ce2:	035c      	lsls	r4, r3, #13
 8002ce4:	d435      	bmi.n	8002d52 <SDMMC_GetCmdResp1+0xf2>
 8002ce6:	0399      	lsls	r1, r3, #14
 8002ce8:	d436      	bmi.n	8002d58 <SDMMC_GetCmdResp1+0xf8>
 8002cea:	03da      	lsls	r2, r3, #15
 8002cec:	d437      	bmi.n	8002d5e <SDMMC_GetCmdResp1+0xfe>
 8002cee:	041c      	lsls	r4, r3, #16
 8002cf0:	d438      	bmi.n	8002d64 <SDMMC_GetCmdResp1+0x104>
 8002cf2:	0459      	lsls	r1, r3, #17
 8002cf4:	d439      	bmi.n	8002d6a <SDMMC_GetCmdResp1+0x10a>
 8002cf6:	049a      	lsls	r2, r3, #18
 8002cf8:	d43a      	bmi.n	8002d70 <SDMMC_GetCmdResp1+0x110>
 8002cfa:	f013 0f08 	tst.w	r3, #8
 8002cfe:	bf14      	ite	ne
 8002d00:	f44f 0000 	movne.w	r0, #8388608	; 0x800000
 8002d04:	f44f 3080 	moveq.w	r0, #65536	; 0x10000
 8002d08:	e7c0      	b.n	8002c8c <SDMMC_GetCmdResp1+0x2c>
 8002d0a:	f04f 4000 	mov.w	r0, #2147483648	; 0x80000000
 8002d0e:	e7bd      	b.n	8002c8c <SDMMC_GetCmdResp1+0x2c>
 8002d10:	2001      	movs	r0, #1
 8002d12:	e7bb      	b.n	8002c8c <SDMMC_GetCmdResp1+0x2c>
 8002d14:	f04f 7000 	mov.w	r0, #33554432	; 0x2000000
 8002d18:	e7b8      	b.n	8002c8c <SDMMC_GetCmdResp1+0x2c>
 8002d1a:	2040      	movs	r0, #64	; 0x40
 8002d1c:	e7b6      	b.n	8002c8c <SDMMC_GetCmdResp1+0x2c>
 8002d1e:	2080      	movs	r0, #128	; 0x80
 8002d20:	e7b4      	b.n	8002c8c <SDMMC_GetCmdResp1+0x2c>
 8002d22:	f44f 7080 	mov.w	r0, #256	; 0x100
 8002d26:	e7b1      	b.n	8002c8c <SDMMC_GetCmdResp1+0x2c>
 8002d28:	f44f 7000 	mov.w	r0, #512	; 0x200
 8002d2c:	e7ae      	b.n	8002c8c <SDMMC_GetCmdResp1+0x2c>
 8002d2e:	f44f 6080 	mov.w	r0, #1024	; 0x400
 8002d32:	e7ab      	b.n	8002c8c <SDMMC_GetCmdResp1+0x2c>
 8002d34:	f44f 6000 	mov.w	r0, #2048	; 0x800
 8002d38:	e7a8      	b.n	8002c8c <SDMMC_GetCmdResp1+0x2c>
 8002d3a:	f44f 5080 	mov.w	r0, #4096	; 0x1000
 8002d3e:	e7a5      	b.n	8002c8c <SDMMC_GetCmdResp1+0x2c>
 8002d40:	f44f 5000 	mov.w	r0, #8192	; 0x2000
 8002d44:	e7a2      	b.n	8002c8c <SDMMC_GetCmdResp1+0x2c>
 8002d46:	f44f 4080 	mov.w	r0, #16384	; 0x4000
 8002d4a:	e79f      	b.n	8002c8c <SDMMC_GetCmdResp1+0x2c>
 8002d4c:	f44f 4000 	mov.w	r0, #32768	; 0x8000
 8002d50:	e79c      	b.n	8002c8c <SDMMC_GetCmdResp1+0x2c>
 8002d52:	f44f 3000 	mov.w	r0, #131072	; 0x20000
 8002d56:	e799      	b.n	8002c8c <SDMMC_GetCmdResp1+0x2c>
 8002d58:	f44f 2080 	mov.w	r0, #262144	; 0x40000
 8002d5c:	e796      	b.n	8002c8c <SDMMC_GetCmdResp1+0x2c>
 8002d5e:	f44f 2000 	mov.w	r0, #524288	; 0x80000
 8002d62:	e793      	b.n	8002c8c <SDMMC_GetCmdResp1+0x2c>
 8002d64:	f44f 1080 	mov.w	r0, #1048576	; 0x100000
 8002d68:	e790      	b.n	8002c8c <SDMMC_GetCmdResp1+0x2c>
 8002d6a:	f44f 1000 	mov.w	r0, #2097152	; 0x200000
 8002d6e:	e78d      	b.n	8002c8c <SDMMC_GetCmdResp1+0x2c>
 8002d70:	f44f 0080 	mov.w	r0, #4194304	; 0x400000
 8002d74:	e78a      	b.n	8002c8c <SDMMC_GetCmdResp1+0x2c>
 8002d76:	bf00      	nop
 8002d78:	20000000 	.word	0x20000000
 8002d7c:	fdffe008 	.word	0xfdffe008

08002d80 <SDMMC_CmdBlockLength>:
 8002d80:	b530      	push	{r4, r5, lr}
 8002d82:	b087      	sub	sp, #28
 8002d84:	2510      	movs	r5, #16
 8002d86:	2340      	movs	r3, #64	; 0x40
 8002d88:	e9cd 5302 	strd	r5, r3, [sp, #8]
 8002d8c:	9101      	str	r1, [sp, #4]
 8002d8e:	2200      	movs	r2, #0
 8002d90:	f44f 6380 	mov.w	r3, #1024	; 0x400
 8002d94:	a901      	add	r1, sp, #4
 8002d96:	e9cd 2304 	strd	r2, r3, [sp, #16]
 8002d9a:	4604      	mov	r4, r0
 8002d9c:	f7ff ff11 	bl	8002bc2 <SDIO_SendCommand>
 8002da0:	f241 3288 	movw	r2, #5000	; 0x1388
 8002da4:	4629      	mov	r1, r5
 8002da6:	4620      	mov	r0, r4
 8002da8:	b007      	add	sp, #28
 8002daa:	e8bd 4030 	ldmia.w	sp!, {r4, r5, lr}
 8002dae:	f7ff bf57 	b.w	8002c60 <SDMMC_GetCmdResp1>

08002db2 <SDMMC_CmdReadSingleBlock>:
 8002db2:	b530      	push	{r4, r5, lr}
 8002db4:	b087      	sub	sp, #28
 8002db6:	2511      	movs	r5, #17
 8002db8:	2340      	movs	r3, #64	; 0x40
 8002dba:	e9cd 5302 	strd	r5, r3, [sp, #8]
 8002dbe:	9101      	str	r1, [sp, #4]
 8002dc0:	2200      	movs	r2, #0
 8002dc2:	f44f 6380 	mov.w	r3, #1024	; 0x400
 8002dc6:	a901      	add	r1, sp, #4
 8002dc8:	e9cd 2304 	strd	r2, r3, [sp, #16]
 8002dcc:	4604      	mov	r4, r0
 8002dce:	f7ff fef8 	bl	8002bc2 <SDIO_SendCommand>
 8002dd2:	f241 3288 	movw	r2, #5000	; 0x1388
 8002dd6:	4629      	mov	r1, r5
 8002dd8:	4620      	mov	r0, r4
 8002dda:	b007      	add	sp, #28
 8002ddc:	e8bd 4030 	ldmia.w	sp!, {r4, r5, lr}
 8002de0:	f7ff bf3e 	b.w	8002c60 <SDMMC_GetCmdResp1>

08002de4 <SDMMC_CmdReadMultiBlock>:
 8002de4:	b530      	push	{r4, r5, lr}
 8002de6:	b087      	sub	sp, #28
 8002de8:	2512      	movs	r5, #18
 8002dea:	2340      	movs	r3, #64	; 0x40
 8002dec:	e9cd 5302 	strd	r5, r3, [sp, #8]
 8002df0:	9101      	str	r1, [sp, #4]
 8002df2:	2200      	movs	r2, #0
 8002df4:	f44f 6380 	mov.w	r3, #1024	; 0x400
 8002df8:	a901      	add	r1, sp, #4
 8002dfa:	e9cd 2304 	strd	r2, r3, [sp, #16]
 8002dfe:	4604      	mov	r4, r0
 8002e00:	f7ff fedf 	bl	8002bc2 <SDIO_SendCommand>
 8002e04:	f241 3288 	movw	r2, #5000	; 0x1388
 8002e08:	4629      	mov	r1, r5
 8002e0a:	4620      	mov	r0, r4
 8002e0c:	b007      	add	sp, #28
 8002e0e:	e8bd 4030 	ldmia.w	sp!, {r4, r5, lr}
 8002e12:	f7ff bf25 	b.w	8002c60 <SDMMC_GetCmdResp1>

08002e16 <SDMMC_CmdWriteSingleBlock>:
 8002e16:	b530      	push	{r4, r5, lr}
 8002e18:	b087      	sub	sp, #28
 8002e1a:	2518      	movs	r5, #24
 8002e1c:	2340      	movs	r3, #64	; 0x40
 8002e1e:	e9cd 5302 	strd	r5, r3, [sp, #8]
 8002e22:	9101      	str	r1, [sp, #4]
 8002e24:	2200      	movs	r2, #0
 8002e26:	f44f 6380 	mov.w	r3, #1024	; 0x400
 8002e2a:	a901      	add	r1, sp, #4
 8002e2c:	e9cd 2304 	strd	r2, r3, [sp, #16]
 8002e30:	4604      	mov	r4, r0
 8002e32:	f7ff fec6 	bl	8002bc2 <SDIO_SendCommand>
 8002e36:	f241 3288 	movw	r2, #5000	; 0x1388
 8002e3a:	4629      	mov	r1, r5
 8002e3c:	4620      	mov	r0, r4
 8002e3e:	b007      	add	sp, #28
 8002e40:	e8bd 4030 	ldmia.w	sp!, {r4, r5, lr}
 8002e44:	f7ff bf0c 	b.w	8002c60 <SDMMC_GetCmdResp1>

08002e48 <SDMMC_CmdWriteMultiBlock>:
 8002e48:	b530      	push	{r4, r5, lr}
 8002e4a:	b087      	sub	sp, #28
 8002e4c:	2519      	movs	r5, #25
 8002e4e:	2340      	movs	r3, #64	; 0x40
 8002e50:	e9cd 5302 	strd	r5, r3, [sp, #8]
 8002e54:	9101      	str	r1, [sp, #4]
 8002e56:	2200      	movs	r2, #0
 8002e58:	f44f 6380 	mov.w	r3, #1024	; 0x400
 8002e5c:	a901      	add	r1, sp, #4
 8002e5e:	e9cd 2304 	strd	r2, r3, [sp, #16]
 8002e62:	4604      	mov	r4, r0
 8002e64:	f7ff fead 	bl	8002bc2 <SDIO_SendCommand>
 8002e68:	f241 3288 	movw	r2, #5000	; 0x1388
 8002e6c:	4629      	mov	r1, r5
 8002e6e:	4620      	mov	r0, r4
 8002e70:	b007      	add	sp, #28
 8002e72:	e8bd 4030 	ldmia.w	sp!, {r4, r5, lr}
 8002e76:	f7ff bef3 	b.w	8002c60 <SDMMC_GetCmdResp1>
	...

08002e7c <SDMMC_CmdStopTransfer>:
 8002e7c:	b530      	push	{r4, r5, lr}
 8002e7e:	2300      	movs	r3, #0
 8002e80:	b087      	sub	sp, #28
 8002e82:	250c      	movs	r5, #12
 8002e84:	2240      	movs	r2, #64	; 0x40
 8002e86:	e9cd 2303 	strd	r2, r3, [sp, #12]
 8002e8a:	e9cd 3501 	strd	r3, r5, [sp, #4]
 8002e8e:	a901      	add	r1, sp, #4
 8002e90:	f44f 6380 	mov.w	r3, #1024	; 0x400
 8002e94:	4604      	mov	r4, r0
 8002e96:	9305      	str	r3, [sp, #20]
 8002e98:	f7ff fe93 	bl	8002bc2 <SDIO_SendCommand>
 8002e9c:	4a03      	ldr	r2, [pc, #12]	; (8002eac <SDMMC_CmdStopTransfer+0x30>)
 8002e9e:	4629      	mov	r1, r5
 8002ea0:	4620      	mov	r0, r4
 8002ea2:	b007      	add	sp, #28
 8002ea4:	e8bd 4030 	ldmia.w	sp!, {r4, r5, lr}
 8002ea8:	f7ff beda 	b.w	8002c60 <SDMMC_GetCmdResp1>
 8002eac:	05f5e100 	.word	0x05f5e100

08002eb0 <SDMMC_CmdSelDesel>:
 8002eb0:	b530      	push	{r4, r5, lr}
 8002eb2:	b087      	sub	sp, #28
 8002eb4:	2507      	movs	r5, #7
 8002eb6:	2340      	movs	r3, #64	; 0x40
 8002eb8:	e9cd 5302 	strd	r5, r3, [sp, #8]
 8002ebc:	9201      	str	r2, [sp, #4]
 8002ebe:	f44f 6380 	mov.w	r3, #1024	; 0x400
 8002ec2:	2200      	movs	r2, #0
 8002ec4:	a901      	add	r1, sp, #4
 8002ec6:	e9cd 2304 	strd	r2, r3, [sp, #16]
 8002eca:	4604      	mov	r4, r0
 8002ecc:	f7ff fe79 	bl	8002bc2 <SDIO_SendCommand>
 8002ed0:	f241 3288 	movw	r2, #5000	; 0x1388
 8002ed4:	4629      	mov	r1, r5
 8002ed6:	4620      	mov	r0, r4
 8002ed8:	b007      	add	sp, #28
 8002eda:	e8bd 4030 	ldmia.w	sp!, {r4, r5, lr}
 8002ede:	f7ff bebf 	b.w	8002c60 <SDMMC_GetCmdResp1>

08002ee2 <SDMMC_CmdAppCommand>:
 8002ee2:	b530      	push	{r4, r5, lr}
 8002ee4:	b087      	sub	sp, #28
 8002ee6:	2537      	movs	r5, #55	; 0x37
 8002ee8:	2340      	movs	r3, #64	; 0x40
 8002eea:	e9cd 5302 	strd	r5, r3, [sp, #8]
 8002eee:	9101      	str	r1, [sp, #4]
 8002ef0:	2200      	movs	r2, #0
 8002ef2:	f44f 6380 	mov.w	r3, #1024	; 0x400
 8002ef6:	a901      	add	r1, sp, #4
 8002ef8:	e9cd 2304 	strd	r2, r3, [sp, #16]
 8002efc:	4604      	mov	r4, r0
 8002efe:	f7ff fe60 	bl	8002bc2 <SDIO_SendCommand>
 8002f02:	f241 3288 	movw	r2, #5000	; 0x1388
 8002f06:	4629      	mov	r1, r5
 8002f08:	4620      	mov	r0, r4
 8002f0a:	b007      	add	sp, #28
 8002f0c:	e8bd 4030 	ldmia.w	sp!, {r4, r5, lr}
 8002f10:	f7ff bea6 	b.w	8002c60 <SDMMC_GetCmdResp1>

08002f14 <SDMMC_CmdBusWidth>:
 8002f14:	b530      	push	{r4, r5, lr}
 8002f16:	b087      	sub	sp, #28
 8002f18:	2506      	movs	r5, #6
 8002f1a:	2340      	movs	r3, #64	; 0x40
 8002f1c:	e9cd 5302 	strd	r5, r3, [sp, #8]
 8002f20:	9101      	str	r1, [sp, #4]
 8002f22:	2200      	movs	r2, #0
 8002f24:	f44f 6380 	mov.w	r3, #1024	; 0x400
 8002f28:	a901      	add	r1, sp, #4
 8002f2a:	e9cd 2304 	strd	r2, r3, [sp, #16]
 8002f2e:	4604      	mov	r4, r0
 8002f30:	f7ff fe47 	bl	8002bc2 <SDIO_SendCommand>
 8002f34:	f241 3288 	movw	r2, #5000	; 0x1388
 8002f38:	4629      	mov	r1, r5
 8002f3a:	4620      	mov	r0, r4
 8002f3c:	b007      	add	sp, #28
 8002f3e:	e8bd 4030 	ldmia.w	sp!, {r4, r5, lr}
 8002f42:	f7ff be8d 	b.w	8002c60 <SDMMC_GetCmdResp1>

08002f46 <SDMMC_CmdSendSCR>:
 8002f46:	b530      	push	{r4, r5, lr}
 8002f48:	2300      	movs	r3, #0
 8002f4a:	b087      	sub	sp, #28
 8002f4c:	2533      	movs	r5, #51	; 0x33
 8002f4e:	2240      	movs	r2, #64	; 0x40
 8002f50:	e9cd 2303 	strd	r2, r3, [sp, #12]
 8002f54:	e9cd 3501 	strd	r3, r5, [sp, #4]
 8002f58:	a901      	add	r1, sp, #4
 8002f5a:	f44f 6380 	mov.w	r3, #1024	; 0x400
 8002f5e:	4604      	mov	r4, r0
 8002f60:	9305      	str	r3, [sp, #20]
 8002f62:	f7ff fe2e 	bl	8002bc2 <SDIO_SendCommand>
 8002f66:	f241 3288 	movw	r2, #5000	; 0x1388
 8002f6a:	4629      	mov	r1, r5
 8002f6c:	4620      	mov	r0, r4
 8002f6e:	b007      	add	sp, #28
 8002f70:	e8bd 4030 	ldmia.w	sp!, {r4, r5, lr}
 8002f74:	f7ff be74 	b.w	8002c60 <SDMMC_GetCmdResp1>

08002f78 <SDMMC_CmdSendStatus>:
 8002f78:	b530      	push	{r4, r5, lr}
 8002f7a:	b087      	sub	sp, #28
 8002f7c:	250d      	movs	r5, #13
 8002f7e:	2340      	movs	r3, #64	; 0x40
 8002f80:	e9cd 5302 	strd	r5, r3, [sp, #8]
 8002f84:	9101      	str	r1, [sp, #4]
 8002f86:	2200      	movs	r2, #0
 8002f88:	f44f 6380 	mov.w	r3, #1024	; 0x400
 8002f8c:	a901      	add	r1, sp, #4
 8002f8e:	e9cd 2304 	strd	r2, r3, [sp, #16]
 8002f92:	4604      	mov	r4, r0
 8002f94:	f7ff fe15 	bl	8002bc2 <SDIO_SendCommand>
 8002f98:	f241 3288 	movw	r2, #5000	; 0x1388
 8002f9c:	4629      	mov	r1, r5
 8002f9e:	4620      	mov	r0, r4
 8002fa0:	b007      	add	sp, #28
 8002fa2:	e8bd 4030 	ldmia.w	sp!, {r4, r5, lr}
 8002fa6:	f7ff be5b 	b.w	8002c60 <SDMMC_GetCmdResp1>
	...

08002fac <SDMMC_GetCmdResp2>:
 8002fac:	4b11      	ldr	r3, [pc, #68]	; (8002ff4 <SDMMC_GetCmdResp2+0x48>)
 8002fae:	f44f 52fa 	mov.w	r2, #8000	; 0x1f40
 8002fb2:	681b      	ldr	r3, [r3, #0]
 8002fb4:	fbb3 f3f2 	udiv	r3, r3, r2
 8002fb8:	f241 3288 	movw	r2, #5000	; 0x1388
 8002fbc:	4353      	muls	r3, r2
 8002fbe:	3b01      	subs	r3, #1
 8002fc0:	d314      	bcc.n	8002fec <SDMMC_GetCmdResp2+0x40>
 8002fc2:	6b42      	ldr	r2, [r0, #52]	; 0x34
 8002fc4:	f012 0f45 	tst.w	r2, #69	; 0x45
 8002fc8:	d0f9      	beq.n	8002fbe <SDMMC_GetCmdResp2+0x12>
 8002fca:	0512      	lsls	r2, r2, #20
 8002fcc:	d4f7      	bmi.n	8002fbe <SDMMC_GetCmdResp2+0x12>
 8002fce:	6b43      	ldr	r3, [r0, #52]	; 0x34
 8002fd0:	075b      	lsls	r3, r3, #29
 8002fd2:	d503      	bpl.n	8002fdc <SDMMC_GetCmdResp2+0x30>
 8002fd4:	2304      	movs	r3, #4
 8002fd6:	6383      	str	r3, [r0, #56]	; 0x38
 8002fd8:	4618      	mov	r0, r3
 8002fda:	4770      	bx	lr
 8002fdc:	6b43      	ldr	r3, [r0, #52]	; 0x34
 8002fde:	f013 0301 	ands.w	r3, r3, #1
 8002fe2:	bf14      	ite	ne
 8002fe4:	2201      	movne	r2, #1
 8002fe6:	22c5      	moveq	r2, #197	; 0xc5
 8002fe8:	6382      	str	r2, [r0, #56]	; 0x38
 8002fea:	e7f5      	b.n	8002fd8 <SDMMC_GetCmdResp2+0x2c>
 8002fec:	f04f 4300 	mov.w	r3, #2147483648	; 0x80000000
 8002ff0:	e7f2      	b.n	8002fd8 <SDMMC_GetCmdResp2+0x2c>
 8002ff2:	bf00      	nop
 8002ff4:	20000000 	.word	0x20000000

08002ff8 <SDMMC_CmdSendCID>:
 8002ff8:	b510      	push	{r4, lr}
 8002ffa:	2300      	movs	r3, #0
 8002ffc:	b086      	sub	sp, #24
 8002ffe:	2202      	movs	r2, #2
 8003000:	e9cd 3201 	strd	r3, r2, [sp, #4]
 8003004:	22c0      	movs	r2, #192	; 0xc0
 8003006:	e9cd 2303 	strd	r2, r3, [sp, #12]
 800300a:	a901      	add	r1, sp, #4
 800300c:	f44f 6380 	mov.w	r3, #1024	; 0x400
 8003010:	4604      	mov	r4, r0
 8003012:	9305      	str	r3, [sp, #20]
 8003014:	f7ff fdd5 	bl	8002bc2 <SDIO_SendCommand>
 8003018:	4620      	mov	r0, r4
 800301a:	b006      	add	sp, #24
 800301c:	e8bd 4010 	ldmia.w	sp!, {r4, lr}
 8003020:	f7ff bfc4 	b.w	8002fac <SDMMC_GetCmdResp2>

08003024 <SDMMC_CmdSendCSD>:
 8003024:	b510      	push	{r4, lr}
 8003026:	b086      	sub	sp, #24
 8003028:	2209      	movs	r2, #9
 800302a:	23c0      	movs	r3, #192	; 0xc0
 800302c:	e9cd 2302 	strd	r2, r3, [sp, #8]
 8003030:	9101      	str	r1, [sp, #4]
 8003032:	f44f 6380 	mov.w	r3, #1024	; 0x400
 8003036:	2100      	movs	r1, #0
 8003038:	e9cd 1304 	strd	r1, r3, [sp, #16]
 800303c:	a901      	add	r1, sp, #4
 800303e:	4604      	mov	r4, r0
 8003040:	f7ff fdbf 	bl	8002bc2 <SDIO_SendCommand>
 8003044:	4620      	mov	r0, r4
 8003046:	b006      	add	sp, #24
 8003048:	e8bd 4010 	ldmia.w	sp!, {r4, lr}
 800304c:	f7ff bfae 	b.w	8002fac <SDMMC_GetCmdResp2>

08003050 <SDMMC_GetCmdResp3>:
 8003050:	4b0e      	ldr	r3, [pc, #56]	; (800308c <SDMMC_GetCmdResp3+0x3c>)
 8003052:	f44f 52fa 	mov.w	r2, #8000	; 0x1f40
 8003056:	681b      	ldr	r3, [r3, #0]
 8003058:	fbb3 f3f2 	udiv	r3, r3, r2
 800305c:	f241 3288 	movw	r2, #5000	; 0x1388
 8003060:	4353      	muls	r3, r2
 8003062:	3b01      	subs	r3, #1
 8003064:	d30f      	bcc.n	8003086 <SDMMC_GetCmdResp3+0x36>
 8003066:	6b42      	ldr	r2, [r0, #52]	; 0x34
 8003068:	f012 0f45 	tst.w	r2, #69	; 0x45
 800306c:	d0f9      	beq.n	8003062 <SDMMC_GetCmdResp3+0x12>
 800306e:	0512      	lsls	r2, r2, #20
 8003070:	d4f7      	bmi.n	8003062 <SDMMC_GetCmdResp3+0x12>
 8003072:	6b43      	ldr	r3, [r0, #52]	; 0x34
 8003074:	f013 0304 	ands.w	r3, r3, #4
 8003078:	bf15      	itete	ne
 800307a:	2304      	movne	r3, #4
 800307c:	22c5      	moveq	r2, #197	; 0xc5
 800307e:	6383      	strne	r3, [r0, #56]	; 0x38
 8003080:	6382      	streq	r2, [r0, #56]	; 0x38
 8003082:	4618      	mov	r0, r3
 8003084:	4770      	bx	lr
 8003086:	f04f 4300 	mov.w	r3, #2147483648	; 0x80000000
 800308a:	e7fa      	b.n	8003082 <SDMMC_GetCmdResp3+0x32>
 800308c:	20000000 	.word	0x20000000

08003090 <SDMMC_CmdAppOperCommand>:
 8003090:	b510      	push	{r4, lr}
 8003092:	f041 4100 	orr.w	r1, r1, #2147483648	; 0x80000000
 8003096:	b086      	sub	sp, #24
 8003098:	2229      	movs	r2, #41	; 0x29
 800309a:	f441 1180 	orr.w	r1, r1, #1048576	; 0x100000
 800309e:	2340      	movs	r3, #64	; 0x40
 80030a0:	e9cd 2302 	strd	r2, r3, [sp, #8]
 80030a4:	9101      	str	r1, [sp, #4]
 80030a6:	f44f 6380 	mov.w	r3, #1024	; 0x400
 80030aa:	2100      	movs	r1, #0
 80030ac:	e9cd 1304 	strd	r1, r3, [sp, #16]
 80030b0:	a901      	add	r1, sp, #4
 80030b2:	4604      	mov	r4, r0
 80030b4:	f7ff fd85 	bl	8002bc2 <SDIO_SendCommand>
 80030b8:	4620      	mov	r0, r4
 80030ba:	b006      	add	sp, #24
 80030bc:	e8bd 4010 	ldmia.w	sp!, {r4, lr}
 80030c0:	f7ff bfc6 	b.w	8003050 <SDMMC_GetCmdResp3>

080030c4 <SDMMC_GetCmdResp6>:
 80030c4:	4b1f      	ldr	r3, [pc, #124]	; (8003144 <SDMMC_GetCmdResp6+0x80>)
 80030c6:	b510      	push	{r4, lr}
 80030c8:	681b      	ldr	r3, [r3, #0]
 80030ca:	4604      	mov	r4, r0
 80030cc:	f44f 50fa 	mov.w	r0, #8000	; 0x1f40
 80030d0:	fbb3 f3f0 	udiv	r3, r3, r0
 80030d4:	f241 3088 	movw	r0, #5000	; 0x1388
 80030d8:	4343      	muls	r3, r0
 80030da:	3b01      	subs	r3, #1
 80030dc:	d329      	bcc.n	8003132 <SDMMC_GetCmdResp6+0x6e>
 80030de:	6b60      	ldr	r0, [r4, #52]	; 0x34
 80030e0:	f010 0f45 	tst.w	r0, #69	; 0x45
 80030e4:	d0f9      	beq.n	80030da <SDMMC_GetCmdResp6+0x16>
 80030e6:	0500      	lsls	r0, r0, #20
 80030e8:	d4f7      	bmi.n	80030da <SDMMC_GetCmdResp6+0x16>
 80030ea:	6b63      	ldr	r3, [r4, #52]	; 0x34
 80030ec:	0758      	lsls	r0, r3, #29
 80030ee:	d502      	bpl.n	80030f6 <SDMMC_GetCmdResp6+0x32>
 80030f0:	2004      	movs	r0, #4
 80030f2:	63a0      	str	r0, [r4, #56]	; 0x38
 80030f4:	bd10      	pop	{r4, pc}
 80030f6:	6b60      	ldr	r0, [r4, #52]	; 0x34
 80030f8:	f010 0001 	ands.w	r0, r0, #1
 80030fc:	d002      	beq.n	8003104 <SDMMC_GetCmdResp6+0x40>
 80030fe:	2301      	movs	r3, #1
 8003100:	63a3      	str	r3, [r4, #56]	; 0x38
 8003102:	e7f7      	b.n	80030f4 <SDMMC_GetCmdResp6+0x30>
 8003104:	6923      	ldr	r3, [r4, #16]
 8003106:	b2db      	uxtb	r3, r3
 8003108:	4299      	cmp	r1, r3
 800310a:	d115      	bne.n	8003138 <SDMMC_GetCmdResp6+0x74>
 800310c:	23c5      	movs	r3, #197	; 0xc5
 800310e:	63a3      	str	r3, [r4, #56]	; 0x38
 8003110:	6963      	ldr	r3, [r4, #20]
 8003112:	f413 4060 	ands.w	r0, r3, #57344	; 0xe000
 8003116:	d102      	bne.n	800311e <SDMMC_GetCmdResp6+0x5a>
 8003118:	0c1b      	lsrs	r3, r3, #16
 800311a:	8013      	strh	r3, [r2, #0]
 800311c:	e7ea      	b.n	80030f4 <SDMMC_GetCmdResp6+0x30>
 800311e:	045a      	lsls	r2, r3, #17
 8003120:	d40c      	bmi.n	800313c <SDMMC_GetCmdResp6+0x78>
 8003122:	f413 4f00 	tst.w	r3, #32768	; 0x8000
 8003126:	bf14      	ite	ne
 8003128:	f44f 5080 	movne.w	r0, #4096	; 0x1000
 800312c:	f44f 3080 	moveq.w	r0, #65536	; 0x10000
 8003130:	e7e0      	b.n	80030f4 <SDMMC_GetCmdResp6+0x30>
 8003132:	f04f 4000 	mov.w	r0, #2147483648	; 0x80000000
 8003136:	e7dd      	b.n	80030f4 <SDMMC_GetCmdResp6+0x30>
 8003138:	2001      	movs	r0, #1
 800313a:	e7db      	b.n	80030f4 <SDMMC_GetCmdResp6+0x30>
 800313c:	f44f 5000 	mov.w	r0, #8192	; 0x2000
 8003140:	e7d8      	b.n	80030f4 <SDMMC_GetCmdResp6+0x30>
 8003142:	bf00      	nop
 8003144:	20000000 	.word	0x20000000

08003148 <SDMMC_CmdSetRelAdd>:
 8003148:	b530      	push	{r4, r5, lr}
 800314a:	b089      	sub	sp, #36	; 0x24
 800314c:	2300      	movs	r3, #0
 800314e:	9101      	str	r1, [sp, #4]
 8003150:	2503      	movs	r5, #3
 8003152:	2140      	movs	r1, #64	; 0x40
 8003154:	e9cd 1305 	strd	r1, r3, [sp, #20]
 8003158:	e9cd 3503 	strd	r3, r5, [sp, #12]
 800315c:	a903      	add	r1, sp, #12
 800315e:	f44f 6380 	mov.w	r3, #1024	; 0x400
 8003162:	4604      	mov	r4, r0
 8003164:	9307      	str	r3, [sp, #28]
 8003166:	f7ff fd2c 	bl	8002bc2 <SDIO_SendCommand>
 800316a:	9a01      	ldr	r2, [sp, #4]
 800316c:	4629      	mov	r1, r5
 800316e:	4620      	mov	r0, r4
 8003170:	b009      	add	sp, #36	; 0x24
 8003172:	e8bd 4030 	ldmia.w	sp!, {r4, r5, lr}
 8003176:	f7ff bfa5 	b.w	80030c4 <SDMMC_GetCmdResp6>
	...

0800317c <SDMMC_GetCmdResp7>:
 800317c:	4b14      	ldr	r3, [pc, #80]	; (80031d0 <SDMMC_GetCmdResp7+0x54>)
 800317e:	f44f 51fa 	mov.w	r1, #8000	; 0x1f40
 8003182:	681b      	ldr	r3, [r3, #0]
 8003184:	fbb3 f3f1 	udiv	r3, r3, r1
 8003188:	f241 3188 	movw	r1, #5000	; 0x1388
 800318c:	4602      	mov	r2, r0
 800318e:	434b      	muls	r3, r1
 8003190:	3b01      	subs	r3, #1
 8003192:	d319      	bcc.n	80031c8 <SDMMC_GetCmdResp7+0x4c>
 8003194:	6b51      	ldr	r1, [r2, #52]	; 0x34
 8003196:	f011 0f45 	tst.w	r1, #69	; 0x45
 800319a:	d0f9      	beq.n	8003190 <SDMMC_GetCmdResp7+0x14>
 800319c:	0509      	lsls	r1, r1, #20
 800319e:	d4f7      	bmi.n	8003190 <SDMMC_GetCmdResp7+0x14>
 80031a0:	6b53      	ldr	r3, [r2, #52]	; 0x34
 80031a2:	075b      	lsls	r3, r3, #29
 80031a4:	d502      	bpl.n	80031ac <SDMMC_GetCmdResp7+0x30>
 80031a6:	2004      	movs	r0, #4
 80031a8:	6390      	str	r0, [r2, #56]	; 0x38
 80031aa:	4770      	bx	lr
 80031ac:	6b51      	ldr	r1, [r2, #52]	; 0x34
 80031ae:	f011 0101 	ands.w	r1, r1, #1
 80031b2:	d003      	beq.n	80031bc <SDMMC_GetCmdResp7+0x40>
 80031b4:	2301      	movs	r3, #1
 80031b6:	6393      	str	r3, [r2, #56]	; 0x38
 80031b8:	4608      	mov	r0, r1
 80031ba:	4770      	bx	lr
 80031bc:	6b50      	ldr	r0, [r2, #52]	; 0x34
 80031be:	f010 0040 	ands.w	r0, r0, #64	; 0x40
 80031c2:	d003      	beq.n	80031cc <SDMMC_GetCmdResp7+0x50>
 80031c4:	2340      	movs	r3, #64	; 0x40
 80031c6:	e7f6      	b.n	80031b6 <SDMMC_GetCmdResp7+0x3a>
 80031c8:	f04f 4000 	mov.w	r0, #2147483648	; 0x80000000
 80031cc:	4770      	bx	lr
 80031ce:	bf00      	nop
 80031d0:	20000000 	.word	0x20000000

080031d4 <SDMMC_CmdOperCond>:
 80031d4:	b510      	push	{r4, lr}
 80031d6:	f44f 72d5 	mov.w	r2, #426	; 0x1aa
 80031da:	b086      	sub	sp, #24
 80031dc:	2308      	movs	r3, #8
 80031de:	e9cd 2301 	strd	r2, r3, [sp, #4]
 80031e2:	2140      	movs	r1, #64	; 0x40
 80031e4:	2300      	movs	r3, #0
 80031e6:	e9cd 1303 	strd	r1, r3, [sp, #12]
 80031ea:	f44f 6380 	mov.w	r3, #1024	; 0x400
 80031ee:	a901      	add	r1, sp, #4
 80031f0:	4604      	mov	r4, r0
 80031f2:	9305      	str	r3, [sp, #20]
 80031f4:	f7ff fce5 	bl	8002bc2 <SDIO_SendCommand>
 80031f8:	4620      	mov	r0, r4
 80031fa:	b006      	add	sp, #24
 80031fc:	e8bd 4010 	ldmia.w	sp!, {r4, lr}
 8003200:	f7ff bfbc 	b.w	800317c <SDMMC_GetCmdResp7>

08003204 <MX_FATFS_Init>:
 8003204:	b508      	push	{r3, lr}
 8003206:	4903      	ldr	r1, [pc, #12]	; (8003214 <MX_FATFS_Init+0x10>)
 8003208:	4803      	ldr	r0, [pc, #12]	; (8003218 <MX_FATFS_Init+0x14>)
 800320a:	f000 f96b 	bl	80034e4 <FATFS_LinkDriver>
 800320e:	4b03      	ldr	r3, [pc, #12]	; (800321c <MX_FATFS_Init+0x18>)
 8003210:	7018      	strb	r0, [r3, #0]
 8003212:	bd08      	pop	{r3, pc}
 8003214:	2000021c 	.word	0x2000021c
 8003218:	080067e8 	.word	0x080067e8
 800321c:	20000220 	.word	0x20000220

08003220 <BSP_SD_ReadBlocks_DMA>:
 8003220:	b508      	push	{r3, lr}
 8003222:	4613      	mov	r3, r2
 8003224:	460a      	mov	r2, r1
 8003226:	4601      	mov	r1, r0
 8003228:	4803      	ldr	r0, [pc, #12]	; (8003238 <BSP_SD_ReadBlocks_DMA+0x18>)
 800322a:	f7ff f81b 	bl	8002264 <HAL_SD_ReadBlocks_DMA>
 800322e:	3800      	subs	r0, #0
 8003230:	bf18      	it	ne
 8003232:	2001      	movne	r0, #1
 8003234:	bd08      	pop	{r3, pc}
 8003236:	bf00      	nop
 8003238:	2000008c 	.word	0x2000008c

0800323c <BSP_SD_WriteBlocks_DMA>:
 800323c:	b508      	push	{r3, lr}
 800323e:	4613      	mov	r3, r2
 8003240:	460a      	mov	r2, r1
 8003242:	4601      	mov	r1, r0
 8003244:	4803      	ldr	r0, [pc, #12]	; (8003254 <BSP_SD_WriteBlocks_DMA+0x18>)
 8003246:	f7ff f8a3 	bl	8002390 <HAL_SD_WriteBlocks_DMA>
 800324a:	3800      	subs	r0, #0
 800324c:	bf18      	it	ne
 800324e:	2001      	movne	r0, #1
 8003250:	bd08      	pop	{r3, pc}
 8003252:	bf00      	nop
 8003254:	2000008c 	.word	0x2000008c

08003258 <BSP_SD_GetCardState>:
 8003258:	b508      	push	{r3, lr}
 800325a:	4803      	ldr	r0, [pc, #12]	; (8003268 <BSP_SD_GetCardState+0x10>)
 800325c:	f7ff fbba 	bl	80029d4 <HAL_SD_GetCardState>
 8003260:	3804      	subs	r0, #4
 8003262:	bf18      	it	ne
 8003264:	2001      	movne	r0, #1
 8003266:	bd08      	pop	{r3, pc}
 8003268:	2000008c 	.word	0x2000008c

0800326c <BSP_SD_GetCardInfo>:
 800326c:	4601      	mov	r1, r0
 800326e:	4801      	ldr	r0, [pc, #4]	; (8003274 <BSP_SD_GetCardInfo+0x8>)
 8003270:	f7ff bb13 	b.w	800289a <HAL_SD_GetCardInfo>
 8003274:	2000008c 	.word	0x2000008c

08003278 <HAL_SD_RxCpltCallback>:
 8003278:	b508      	push	{r3, lr}
 800327a:	f000 f901 	bl	8003480 <BSP_SD_ReadCpltCallback>
 800327e:	bd08      	pop	{r3, pc}

08003280 <BSP_SD_IsDetected>:
 8003280:	b082      	sub	sp, #8
 8003282:	2301      	movs	r3, #1
 8003284:	f88d 3007 	strb.w	r3, [sp, #7]
 8003288:	f89d 0007 	ldrb.w	r0, [sp, #7]
 800328c:	b002      	add	sp, #8
 800328e:	4770      	bx	lr

08003290 <BSP_SD_Init>:
 8003290:	b508      	push	{r3, lr}
 8003292:	f7ff fff5 	bl	8003280 <BSP_SD_IsDetected>
 8003296:	2801      	cmp	r0, #1
 8003298:	d10c      	bne.n	80032b4 <BSP_SD_Init+0x24>
 800329a:	4807      	ldr	r0, [pc, #28]	; (80032b8 <BSP_SD_Init+0x28>)
 800329c:	f7ff fae2 	bl	8002864 <HAL_SD_Init>
 80032a0:	b938      	cbnz	r0, 80032b2 <BSP_SD_Init+0x22>
 80032a2:	4805      	ldr	r0, [pc, #20]	; (80032b8 <BSP_SD_Init+0x28>)
 80032a4:	f44f 6100 	mov.w	r1, #2048	; 0x800
 80032a8:	f7ff fb0a 	bl	80028c0 <HAL_SD_ConfigWideBusOperation>
 80032ac:	3800      	subs	r0, #0
 80032ae:	bf18      	it	ne
 80032b0:	2001      	movne	r0, #1
 80032b2:	bd08      	pop	{r3, pc}
 80032b4:	2001      	movs	r0, #1
 80032b6:	e7fc      	b.n	80032b2 <BSP_SD_Init+0x22>
 80032b8:	2000008c 	.word	0x2000008c

080032bc <SD_ioctl>:
 80032bc:	b530      	push	{r4, r5, lr}
 80032be:	4b13      	ldr	r3, [pc, #76]	; (800330c <SD_ioctl+0x50>)
 80032c0:	781c      	ldrb	r4, [r3, #0]
 80032c2:	f014 0401 	ands.w	r4, r4, #1
 80032c6:	b089      	sub	sp, #36	; 0x24
 80032c8:	4615      	mov	r5, r2
 80032ca:	d11b      	bne.n	8003304 <SD_ioctl+0x48>
 80032cc:	2903      	cmp	r1, #3
 80032ce:	d803      	bhi.n	80032d8 <SD_ioctl+0x1c>
 80032d0:	e8df f001 	tbb	[pc, r1]
 80032d4:	120c061a 	.word	0x120c061a
 80032d8:	2404      	movs	r4, #4
 80032da:	4620      	mov	r0, r4
 80032dc:	b009      	add	sp, #36	; 0x24
 80032de:	bd30      	pop	{r4, r5, pc}
 80032e0:	4668      	mov	r0, sp
 80032e2:	f7ff ffc3 	bl	800326c <BSP_SD_GetCardInfo>
 80032e6:	9b06      	ldr	r3, [sp, #24]
 80032e8:	602b      	str	r3, [r5, #0]
 80032ea:	e7f6      	b.n	80032da <SD_ioctl+0x1e>
 80032ec:	4668      	mov	r0, sp
 80032ee:	f7ff ffbd 	bl	800326c <BSP_SD_GetCardInfo>
 80032f2:	9b07      	ldr	r3, [sp, #28]
 80032f4:	802b      	strh	r3, [r5, #0]
 80032f6:	e7f0      	b.n	80032da <SD_ioctl+0x1e>
 80032f8:	4668      	mov	r0, sp
 80032fa:	f7ff ffb7 	bl	800326c <BSP_SD_GetCardInfo>
 80032fe:	9b07      	ldr	r3, [sp, #28]
 8003300:	0a5b      	lsrs	r3, r3, #9
 8003302:	e7f1      	b.n	80032e8 <SD_ioctl+0x2c>
 8003304:	2403      	movs	r4, #3
 8003306:	e7e8      	b.n	80032da <SD_ioctl+0x1e>
 8003308:	460c      	mov	r4, r1
 800330a:	e7e6      	b.n	80032da <SD_ioctl+0x1e>
 800330c:	2000000c 	.word	0x2000000c

08003310 <SD_status>:
 8003310:	b510      	push	{r4, lr}
 8003312:	4c06      	ldr	r4, [pc, #24]	; (800332c <SD_status+0x1c>)
 8003314:	2301      	movs	r3, #1
 8003316:	7023      	strb	r3, [r4, #0]
 8003318:	f7ff ff9e 	bl	8003258 <BSP_SD_GetCardState>
 800331c:	b918      	cbnz	r0, 8003326 <SD_status+0x16>
 800331e:	7823      	ldrb	r3, [r4, #0]
 8003320:	f003 03fe 	and.w	r3, r3, #254	; 0xfe
 8003324:	7023      	strb	r3, [r4, #0]
 8003326:	7820      	ldrb	r0, [r4, #0]
 8003328:	bd10      	pop	{r4, pc}
 800332a:	bf00      	nop
 800332c:	2000000c 	.word	0x2000000c

08003330 <SD_CheckStatusWithTimeout.constprop.0>:
 8003330:	b538      	push	{r3, r4, r5, lr}
 8003332:	f000 f917 	bl	8003564 <osKernelGetTickCount>
 8003336:	f247 552f 	movw	r5, #29999	; 0x752f
 800333a:	4604      	mov	r4, r0
 800333c:	f000 f912 	bl	8003564 <osKernelGetTickCount>
 8003340:	1b03      	subs	r3, r0, r4
 8003342:	42ab      	cmp	r3, r5
 8003344:	d902      	bls.n	800334c <SD_CheckStatusWithTimeout.constprop.0+0x1c>
 8003346:	f04f 30ff 	mov.w	r0, #4294967295
 800334a:	e003      	b.n	8003354 <SD_CheckStatusWithTimeout.constprop.0+0x24>
 800334c:	f7ff ff84 	bl	8003258 <BSP_SD_GetCardState>
 8003350:	2800      	cmp	r0, #0
 8003352:	d1f3      	bne.n	800333c <SD_CheckStatusWithTimeout.constprop.0+0xc>
 8003354:	bd38      	pop	{r3, r4, r5, pc}
	...

08003358 <SD_write>:
 8003358:	b530      	push	{r4, r5, lr}
 800335a:	b085      	sub	sp, #20
 800335c:	460c      	mov	r4, r1
 800335e:	9201      	str	r2, [sp, #4]
 8003360:	9300      	str	r3, [sp, #0]
 8003362:	f7ff ffe5 	bl	8003330 <SD_CheckStatusWithTimeout.constprop.0>
 8003366:	2800      	cmp	r0, #0
 8003368:	e9dd 2100 	ldrd	r2, r1, [sp]
 800336c:	da02      	bge.n	8003374 <SD_write+0x1c>
 800336e:	2001      	movs	r0, #1
 8003370:	b005      	add	sp, #20
 8003372:	bd30      	pop	{r4, r5, pc}
 8003374:	4620      	mov	r0, r4
 8003376:	f7ff ff61 	bl	800323c <BSP_SD_WriteBlocks_DMA>
 800337a:	4602      	mov	r2, r0
 800337c:	2800      	cmp	r0, #0
 800337e:	d1f6      	bne.n	800336e <SD_write+0x16>
 8003380:	480e      	ldr	r0, [pc, #56]	; (80033bc <SD_write+0x64>)
 8003382:	f247 5330 	movw	r3, #30000	; 0x7530
 8003386:	6800      	ldr	r0, [r0, #0]
 8003388:	f10d 010e 	add.w	r1, sp, #14
 800338c:	f000 f9af 	bl	80036ee <osMessageQueueGet>
 8003390:	2800      	cmp	r0, #0
 8003392:	d1ec      	bne.n	800336e <SD_write+0x16>
 8003394:	f8bd 300e 	ldrh.w	r3, [sp, #14]
 8003398:	2b02      	cmp	r3, #2
 800339a:	d1e8      	bne.n	800336e <SD_write+0x16>
 800339c:	f000 f8e2 	bl	8003564 <osKernelGetTickCount>
 80033a0:	f247 552f 	movw	r5, #29999	; 0x752f
 80033a4:	4604      	mov	r4, r0
 80033a6:	f000 f8dd 	bl	8003564 <osKernelGetTickCount>
 80033aa:	1b03      	subs	r3, r0, r4
 80033ac:	42ab      	cmp	r3, r5
 80033ae:	d8de      	bhi.n	800336e <SD_write+0x16>
 80033b0:	f7ff ff52 	bl	8003258 <BSP_SD_GetCardState>
 80033b4:	2800      	cmp	r0, #0
 80033b6:	d1f6      	bne.n	80033a6 <SD_write+0x4e>
 80033b8:	e7da      	b.n	8003370 <SD_write+0x18>
 80033ba:	bf00      	nop
 80033bc:	20000224 	.word	0x20000224

080033c0 <SD_read>:
 80033c0:	b530      	push	{r4, r5, lr}
 80033c2:	b085      	sub	sp, #20
 80033c4:	460c      	mov	r4, r1
 80033c6:	9201      	str	r2, [sp, #4]
 80033c8:	9300      	str	r3, [sp, #0]
 80033ca:	f7ff ffb1 	bl	8003330 <SD_CheckStatusWithTimeout.constprop.0>
 80033ce:	2800      	cmp	r0, #0
 80033d0:	e9dd 2100 	ldrd	r2, r1, [sp]
 80033d4:	da02      	bge.n	80033dc <SD_read+0x1c>
 80033d6:	2001      	movs	r0, #1
 80033d8:	b005      	add	sp, #20
 80033da:	bd30      	pop	{r4, r5, pc}
 80033dc:	4620      	mov	r0, r4
 80033de:	f7ff ff1f 	bl	8003220 <BSP_SD_ReadBlocks_DMA>
 80033e2:	4602      	mov	r2, r0
 80033e4:	2800      	cmp	r0, #0
 80033e6:	d1f6      	bne.n	80033d6 <SD_read+0x16>
 80033e8:	480e      	ldr	r0, [pc, #56]	; (8003424 <SD_read+0x64>)
 80033ea:	f247 5330 	movw	r3, #30000	; 0x7530
 80033ee:	6800      	ldr	r0, [r0, #0]
 80033f0:	f10d 010e 	add.w	r1, sp, #14
 80033f4:	f000 f97b 	bl	80036ee <osMessageQueueGet>
 80033f8:	2800      	cmp	r0, #0
 80033fa:	d1ec      	bne.n	80033d6 <SD_read+0x16>
 80033fc:	f8bd 300e 	ldrh.w	r3, [sp, #14]
 8003400:	2b01      	cmp	r3, #1
 8003402:	d1e8      	bne.n	80033d6 <SD_read+0x16>
 8003404:	f000 f8ae 	bl	8003564 <osKernelGetTickCount>
 8003408:	f247 552f 	movw	r5, #29999	; 0x752f
 800340c:	4604      	mov	r4, r0
 800340e:	f000 f8a9 	bl	8003564 <osKernelGetTickCount>
 8003412:	1b03      	subs	r3, r0, r4
 8003414:	42ab      	cmp	r3, r5
 8003416:	d8de      	bhi.n	80033d6 <SD_read+0x16>
 8003418:	f7ff ff1e 	bl	8003258 <BSP_SD_GetCardState>
 800341c:	2800      	cmp	r0, #0
 800341e:	d1f6      	bne.n	800340e <SD_read+0x4e>
 8003420:	e7da      	b.n	80033d8 <SD_read+0x18>
 8003422:	bf00      	nop
 8003424:	20000224 	.word	0x20000224

08003428 <SD_initialize>:
 8003428:	b538      	push	{r3, r4, r5, lr}
 800342a:	4c13      	ldr	r4, [pc, #76]	; (8003478 <SD_initialize+0x50>)
 800342c:	2501      	movs	r5, #1
 800342e:	7025      	strb	r5, [r4, #0]
 8003430:	f000 f86e 	bl	8003510 <osKernelGetState>
 8003434:	2802      	cmp	r0, #2
 8003436:	d11d      	bne.n	8003474 <SD_initialize+0x4c>
 8003438:	f7ff ff2a 	bl	8003290 <BSP_SD_Init>
 800343c:	b950      	cbnz	r0, 8003454 <SD_initialize+0x2c>
 800343e:	7025      	strb	r5, [r4, #0]
 8003440:	f7ff ff0a 	bl	8003258 <BSP_SD_GetCardState>
 8003444:	b918      	cbnz	r0, 800344e <SD_initialize+0x26>
 8003446:	7823      	ldrb	r3, [r4, #0]
 8003448:	f003 03fe 	and.w	r3, r3, #254	; 0xfe
 800344c:	7023      	strb	r3, [r4, #0]
 800344e:	7823      	ldrb	r3, [r4, #0]
 8003450:	b2db      	uxtb	r3, r3
 8003452:	7023      	strb	r3, [r4, #0]
 8003454:	7823      	ldrb	r3, [r4, #0]
 8003456:	2b01      	cmp	r3, #1
 8003458:	d00c      	beq.n	8003474 <SD_initialize+0x4c>
 800345a:	4d08      	ldr	r5, [pc, #32]	; (800347c <SD_initialize+0x54>)
 800345c:	682a      	ldr	r2, [r5, #0]
 800345e:	b94a      	cbnz	r2, 8003474 <SD_initialize+0x4c>
 8003460:	2102      	movs	r1, #2
 8003462:	200a      	movs	r0, #10
 8003464:	f000 f8d8 	bl	8003618 <osMessageQueueNew>
 8003468:	6028      	str	r0, [r5, #0]
 800346a:	b918      	cbnz	r0, 8003474 <SD_initialize+0x4c>
 800346c:	7823      	ldrb	r3, [r4, #0]
 800346e:	f043 0301 	orr.w	r3, r3, #1
 8003472:	7023      	strb	r3, [r4, #0]
 8003474:	7820      	ldrb	r0, [r4, #0]
 8003476:	bd38      	pop	{r3, r4, r5, pc}
 8003478:	2000000c 	.word	0x2000000c
 800347c:	20000224 	.word	0x20000224

08003480 <BSP_SD_ReadCpltCallback>:
 8003480:	b507      	push	{r0, r1, r2, lr}
 8003482:	2301      	movs	r3, #1
 8003484:	4806      	ldr	r0, [pc, #24]	; (80034a0 <BSP_SD_ReadCpltCallback+0x20>)
 8003486:	f8ad 3006 	strh.w	r3, [sp, #6]
 800348a:	2300      	movs	r3, #0
 800348c:	461a      	mov	r2, r3
 800348e:	f10d 0106 	add.w	r1, sp, #6
 8003492:	6800      	ldr	r0, [r0, #0]
 8003494:	f000 f8fb 	bl	800368e <osMessageQueuePut>
 8003498:	b003      	add	sp, #12
 800349a:	f85d fb04 	ldr.w	pc, [sp], #4
 800349e:	bf00      	nop
 80034a0:	20000224 	.word	0x20000224

080034a4 <FATFS_LinkDriverEx>:
 80034a4:	b530      	push	{r4, r5, lr}
 80034a6:	4b0e      	ldr	r3, [pc, #56]	; (80034e0 <FATFS_LinkDriverEx+0x3c>)
 80034a8:	7a5d      	ldrb	r5, [r3, #9]
 80034aa:	f005 04ff 	and.w	r4, r5, #255	; 0xff
 80034ae:	b9ad      	cbnz	r5, 80034dc <FATFS_LinkDriverEx+0x38>
 80034b0:	7a5d      	ldrb	r5, [r3, #9]
 80034b2:	555c      	strb	r4, [r3, r5]
 80034b4:	7a5d      	ldrb	r5, [r3, #9]
 80034b6:	eb03 0585 	add.w	r5, r3, r5, lsl #2
 80034ba:	6068      	str	r0, [r5, #4]
 80034bc:	7a58      	ldrb	r0, [r3, #9]
 80034be:	4418      	add	r0, r3
 80034c0:	7202      	strb	r2, [r0, #8]
 80034c2:	7a5a      	ldrb	r2, [r3, #9]
 80034c4:	1c50      	adds	r0, r2, #1
 80034c6:	b2c0      	uxtb	r0, r0
 80034c8:	7258      	strb	r0, [r3, #9]
 80034ca:	233a      	movs	r3, #58	; 0x3a
 80034cc:	3230      	adds	r2, #48	; 0x30
 80034ce:	704b      	strb	r3, [r1, #1]
 80034d0:	232f      	movs	r3, #47	; 0x2f
 80034d2:	700a      	strb	r2, [r1, #0]
 80034d4:	708b      	strb	r3, [r1, #2]
 80034d6:	70cc      	strb	r4, [r1, #3]
 80034d8:	4620      	mov	r0, r4
 80034da:	bd30      	pop	{r4, r5, pc}
 80034dc:	2401      	movs	r4, #1
 80034de:	e7fb      	b.n	80034d8 <FATFS_LinkDriverEx+0x34>
 80034e0:	20000228 	.word	0x20000228

080034e4 <FATFS_LinkDriver>:
 80034e4:	2200      	movs	r2, #0
 80034e6:	f7ff bfdd 	b.w	80034a4 <FATFS_LinkDriverEx>
	...

080034ec <osKernelInitialize>:
 80034ec:	f3ef 8305 	mrs	r3, IPSR
 80034f0:	b92b      	cbnz	r3, 80034fe <osKernelInitialize+0x12>
 80034f2:	4b06      	ldr	r3, [pc, #24]	; (800350c <osKernelInitialize+0x20>)
 80034f4:	6818      	ldr	r0, [r3, #0]
 80034f6:	b928      	cbnz	r0, 8003504 <osKernelInitialize+0x18>
 80034f8:	2201      	movs	r2, #1
 80034fa:	601a      	str	r2, [r3, #0]
 80034fc:	4770      	bx	lr
 80034fe:	f06f 0005 	mvn.w	r0, #5
 8003502:	4770      	bx	lr
 8003504:	f04f 30ff 	mov.w	r0, #4294967295
 8003508:	4770      	bx	lr
 800350a:	bf00      	nop
 800350c:	20000490 	.word	0x20000490

08003510 <osKernelGetState>:
 8003510:	b508      	push	{r3, lr}
 8003512:	f001 f945 	bl	80047a0 <xTaskGetSchedulerState>
 8003516:	b138      	cbz	r0, 8003528 <osKernelGetState+0x18>
 8003518:	2802      	cmp	r0, #2
 800351a:	d004      	beq.n	8003526 <osKernelGetState+0x16>
 800351c:	4b03      	ldr	r3, [pc, #12]	; (800352c <osKernelGetState+0x1c>)
 800351e:	6818      	ldr	r0, [r3, #0]
 8003520:	1e43      	subs	r3, r0, #1
 8003522:	4258      	negs	r0, r3
 8003524:	4158      	adcs	r0, r3
 8003526:	bd08      	pop	{r3, pc}
 8003528:	2003      	movs	r0, #3
 800352a:	e7fc      	b.n	8003526 <osKernelGetState+0x16>
 800352c:	20000490 	.word	0x20000490

08003530 <osKernelStart>:
 8003530:	b510      	push	{r4, lr}
 8003532:	f3ef 8405 	mrs	r4, IPSR
 8003536:	b95c      	cbnz	r4, 8003550 <osKernelStart+0x20>
 8003538:	4b08      	ldr	r3, [pc, #32]	; (800355c <osKernelStart+0x2c>)
 800353a:	681a      	ldr	r2, [r3, #0]
 800353c:	2a01      	cmp	r2, #1
 800353e:	d10a      	bne.n	8003556 <osKernelStart+0x26>
 8003540:	4a07      	ldr	r2, [pc, #28]	; (8003560 <osKernelStart+0x30>)
 8003542:	77d4      	strb	r4, [r2, #31]
 8003544:	2202      	movs	r2, #2
 8003546:	601a      	str	r2, [r3, #0]
 8003548:	f000 fe9c 	bl	8004284 <vTaskStartScheduler>
 800354c:	4620      	mov	r0, r4
 800354e:	bd10      	pop	{r4, pc}
 8003550:	f06f 0005 	mvn.w	r0, #5
 8003554:	e7fb      	b.n	800354e <osKernelStart+0x1e>
 8003556:	f04f 30ff 	mov.w	r0, #4294967295
 800355a:	e7f8      	b.n	800354e <osKernelStart+0x1e>
 800355c:	20000490 	.word	0x20000490
 8003560:	e000ed00 	.word	0xe000ed00

08003564 <osKernelGetTickCount>:
 8003564:	f3ef 8305 	mrs	r3, IPSR
 8003568:	b10b      	cbz	r3, 800356e <osKernelGetTickCount+0xa>
 800356a:	f000 bedf 	b.w	800432c <xTaskGetTickCountFromISR>
 800356e:	f000 bed7 	b.w	8004320 <xTaskGetTickCount>

08003572 <osThreadNew>:
 8003572:	b5f0      	push	{r4, r5, r6, r7, lr}
 8003574:	b087      	sub	sp, #28
 8003576:	460b      	mov	r3, r1
 8003578:	2100      	movs	r1, #0
 800357a:	9105      	str	r1, [sp, #20]
 800357c:	f3ef 8405 	mrs	r4, IPSR
 8003580:	b9cc      	cbnz	r4, 80035b6 <osThreadNew+0x44>
 8003582:	b1c0      	cbz	r0, 80035b6 <osThreadNew+0x44>
 8003584:	b36a      	cbz	r2, 80035e2 <osThreadNew+0x70>
 8003586:	6995      	ldr	r5, [r2, #24]
 8003588:	428d      	cmp	r5, r1
 800358a:	bf08      	it	eq
 800358c:	2518      	moveq	r5, #24
 800358e:	1e69      	subs	r1, r5, #1
 8003590:	2937      	cmp	r1, #55	; 0x37
 8003592:	46ac      	mov	ip, r5
 8003594:	d82a      	bhi.n	80035ec <osThreadNew+0x7a>
 8003596:	6851      	ldr	r1, [r2, #4]
 8003598:	07c9      	lsls	r1, r1, #31
 800359a:	d427      	bmi.n	80035ec <osThreadNew+0x7a>
 800359c:	6956      	ldr	r6, [r2, #20]
 800359e:	b16e      	cbz	r6, 80035bc <osThreadNew+0x4a>
 80035a0:	08b4      	lsrs	r4, r6, #2
 80035a2:	e9d2 7e02 	ldrd	r7, lr, [r2, #8]
 80035a6:	6811      	ldr	r1, [r2, #0]
 80035a8:	b157      	cbz	r7, 80035c0 <osThreadNew+0x4e>
 80035aa:	f1be 0f5b 	cmp.w	lr, #91	; 0x5b
 80035ae:	d902      	bls.n	80035b6 <osThreadNew+0x44>
 80035b0:	6912      	ldr	r2, [r2, #16]
 80035b2:	b102      	cbz	r2, 80035b6 <osThreadNew+0x44>
 80035b4:	b9e6      	cbnz	r6, 80035f0 <osThreadNew+0x7e>
 80035b6:	9805      	ldr	r0, [sp, #20]
 80035b8:	b007      	add	sp, #28
 80035ba:	bdf0      	pop	{r4, r5, r6, r7, pc}
 80035bc:	2480      	movs	r4, #128	; 0x80
 80035be:	e7f0      	b.n	80035a2 <osThreadNew+0x30>
 80035c0:	f1be 0f00 	cmp.w	lr, #0
 80035c4:	d1f7      	bne.n	80035b6 <osThreadNew+0x44>
 80035c6:	6912      	ldr	r2, [r2, #16]
 80035c8:	2a00      	cmp	r2, #0
 80035ca:	d1f4      	bne.n	80035b6 <osThreadNew+0x44>
 80035cc:	aa05      	add	r2, sp, #20
 80035ce:	e9cd c200 	strd	ip, r2, [sp]
 80035d2:	b2a2      	uxth	r2, r4
 80035d4:	f000 fe29 	bl	800422a <xTaskCreate>
 80035d8:	2801      	cmp	r0, #1
 80035da:	bf1c      	itt	ne
 80035dc:	2300      	movne	r3, #0
 80035de:	9305      	strne	r3, [sp, #20]
 80035e0:	e7e9      	b.n	80035b6 <osThreadNew+0x44>
 80035e2:	4611      	mov	r1, r2
 80035e4:	f04f 0c18 	mov.w	ip, #24
 80035e8:	2480      	movs	r4, #128	; 0x80
 80035ea:	e7ef      	b.n	80035cc <osThreadNew+0x5a>
 80035ec:	4620      	mov	r0, r4
 80035ee:	e7e3      	b.n	80035b8 <osThreadNew+0x46>
 80035f0:	e9cd 2701 	strd	r2, r7, [sp, #4]
 80035f4:	9500      	str	r5, [sp, #0]
 80035f6:	4622      	mov	r2, r4
 80035f8:	f000 fddf 	bl	80041ba <xTaskCreateStatic>
 80035fc:	9005      	str	r0, [sp, #20]
 80035fe:	e7da      	b.n	80035b6 <osThreadNew+0x44>

08003600 <osDelay>:
 8003600:	b510      	push	{r4, lr}
 8003602:	f3ef 8405 	mrs	r4, IPSR
 8003606:	b924      	cbnz	r4, 8003612 <osDelay+0x12>
 8003608:	b110      	cbz	r0, 8003610 <osDelay+0x10>
 800360a:	f000 ffa1 	bl	8004550 <vTaskDelay>
 800360e:	4620      	mov	r0, r4
 8003610:	bd10      	pop	{r4, pc}
 8003612:	f06f 0005 	mvn.w	r0, #5
 8003616:	e7fb      	b.n	8003610 <osDelay+0x10>

08003618 <osMessageQueueNew>:
 8003618:	b5f7      	push	{r0, r1, r2, r4, r5, r6, r7, lr}
 800361a:	4605      	mov	r5, r0
 800361c:	460e      	mov	r6, r1
 800361e:	4614      	mov	r4, r2
 8003620:	f3ef 8705 	mrs	r7, IPSR
 8003624:	b11f      	cbz	r7, 800362e <osMessageQueueNew+0x16>
 8003626:	2500      	movs	r5, #0
 8003628:	4628      	mov	r0, r5
 800362a:	b003      	add	sp, #12
 800362c:	bdf0      	pop	{r4, r5, r6, r7, pc}
 800362e:	2800      	cmp	r0, #0
 8003630:	d0f9      	beq.n	8003626 <osMessageQueueNew+0xe>
 8003632:	2900      	cmp	r1, #0
 8003634:	d0f7      	beq.n	8003626 <osMessageQueueNew+0xe>
 8003636:	b1da      	cbz	r2, 8003670 <osMessageQueueNew+0x58>
 8003638:	e9d2 3202 	ldrd	r3, r2, [r2, #8]
 800363c:	b183      	cbz	r3, 8003660 <osMessageQueueNew+0x48>
 800363e:	2a4f      	cmp	r2, #79	; 0x4f
 8003640:	d9f1      	bls.n	8003626 <osMessageQueueNew+0xe>
 8003642:	6922      	ldr	r2, [r4, #16]
 8003644:	2a00      	cmp	r2, #0
 8003646:	d0ee      	beq.n	8003626 <osMessageQueueNew+0xe>
 8003648:	6966      	ldr	r6, [r4, #20]
 800364a:	434d      	muls	r5, r1
 800364c:	42ae      	cmp	r6, r5
 800364e:	d3ea      	bcc.n	8003626 <osMessageQueueNew+0xe>
 8003650:	9700      	str	r7, [sp, #0]
 8003652:	f000 f9a1 	bl	8003998 <xQueueGenericCreateStatic>
 8003656:	4605      	mov	r5, r0
 8003658:	2800      	cmp	r0, #0
 800365a:	d0e4      	beq.n	8003626 <osMessageQueueNew+0xe>
 800365c:	6824      	ldr	r4, [r4, #0]
 800365e:	e011      	b.n	8003684 <osMessageQueueNew+0x6c>
 8003660:	2a00      	cmp	r2, #0
 8003662:	d1e0      	bne.n	8003626 <osMessageQueueNew+0xe>
 8003664:	6923      	ldr	r3, [r4, #16]
 8003666:	2b00      	cmp	r3, #0
 8003668:	d1dd      	bne.n	8003626 <osMessageQueueNew+0xe>
 800366a:	6963      	ldr	r3, [r4, #20]
 800366c:	2b00      	cmp	r3, #0
 800366e:	d1da      	bne.n	8003626 <osMessageQueueNew+0xe>
 8003670:	4628      	mov	r0, r5
 8003672:	2200      	movs	r2, #0
 8003674:	4631      	mov	r1, r6
 8003676:	f000 f9dd 	bl	8003a34 <xQueueGenericCreate>
 800367a:	4605      	mov	r5, r0
 800367c:	2800      	cmp	r0, #0
 800367e:	d0d2      	beq.n	8003626 <osMessageQueueNew+0xe>
 8003680:	2c00      	cmp	r4, #0
 8003682:	d1eb      	bne.n	800365c <osMessageQueueNew+0x44>
 8003684:	4621      	mov	r1, r4
 8003686:	4628      	mov	r0, r5
 8003688:	f000 fbfe 	bl	8003e88 <vQueueAddToRegistry>
 800368c:	e7cc      	b.n	8003628 <osMessageQueueNew+0x10>

0800368e <osMessageQueuePut>:
 800368e:	b573      	push	{r0, r1, r4, r5, r6, lr}
 8003690:	461c      	mov	r4, r3
 8003692:	f3ef 8605 	mrs	r6, IPSR
 8003696:	b1c6      	cbz	r6, 80036ca <osMessageQueuePut+0x3c>
 8003698:	b318      	cbz	r0, 80036e2 <osMessageQueuePut+0x54>
 800369a:	b311      	cbz	r1, 80036e2 <osMessageQueuePut+0x54>
 800369c:	bb0b      	cbnz	r3, 80036e2 <osMessageQueuePut+0x54>
 800369e:	aa01      	add	r2, sp, #4
 80036a0:	9301      	str	r3, [sp, #4]
 80036a2:	f000 faa1 	bl	8003be8 <xQueueGenericSendFromISR>
 80036a6:	2801      	cmp	r0, #1
 80036a8:	d118      	bne.n	80036dc <osMessageQueuePut+0x4e>
 80036aa:	9b01      	ldr	r3, [sp, #4]
 80036ac:	b913      	cbnz	r3, 80036b4 <osMessageQueuePut+0x26>
 80036ae:	2000      	movs	r0, #0
 80036b0:	b002      	add	sp, #8
 80036b2:	bd70      	pop	{r4, r5, r6, pc}
 80036b4:	f04f 23e0 	mov.w	r3, #3758153728	; 0xe000e000
 80036b8:	f04f 5280 	mov.w	r2, #268435456	; 0x10000000
 80036bc:	f8c3 2d04 	str.w	r2, [r3, #3332]	; 0xd04
 80036c0:	f3bf 8f4f 	dsb	sy
 80036c4:	f3bf 8f6f 	isb	sy
 80036c8:	e7f1      	b.n	80036ae <osMessageQueuePut+0x20>
 80036ca:	b150      	cbz	r0, 80036e2 <osMessageQueuePut+0x54>
 80036cc:	b149      	cbz	r1, 80036e2 <osMessageQueuePut+0x54>
 80036ce:	4633      	mov	r3, r6
 80036d0:	4622      	mov	r2, r4
 80036d2:	f000 f9d6 	bl	8003a82 <xQueueGenericSend>
 80036d6:	2801      	cmp	r0, #1
 80036d8:	d0e9      	beq.n	80036ae <osMessageQueuePut+0x20>
 80036da:	b92c      	cbnz	r4, 80036e8 <osMessageQueuePut+0x5a>
 80036dc:	f06f 0002 	mvn.w	r0, #2
 80036e0:	e7e6      	b.n	80036b0 <osMessageQueuePut+0x22>
 80036e2:	f06f 0003 	mvn.w	r0, #3
 80036e6:	e7e3      	b.n	80036b0 <osMessageQueuePut+0x22>
 80036e8:	f06f 0001 	mvn.w	r0, #1
 80036ec:	e7e0      	b.n	80036b0 <osMessageQueuePut+0x22>

080036ee <osMessageQueueGet>:
 80036ee:	b537      	push	{r0, r1, r2, r4, r5, lr}
 80036f0:	461c      	mov	r4, r3
 80036f2:	f3ef 8305 	mrs	r3, IPSR
 80036f6:	b1c3      	cbz	r3, 800372a <osMessageQueueGet+0x3c>
 80036f8:	b310      	cbz	r0, 8003740 <osMessageQueueGet+0x52>
 80036fa:	b309      	cbz	r1, 8003740 <osMessageQueueGet+0x52>
 80036fc:	bb04      	cbnz	r4, 8003740 <osMessageQueueGet+0x52>
 80036fe:	aa01      	add	r2, sp, #4
 8003700:	9401      	str	r4, [sp, #4]
 8003702:	f000 fb72 	bl	8003dea <xQueueReceiveFromISR>
 8003706:	2801      	cmp	r0, #1
 8003708:	d117      	bne.n	800373a <osMessageQueueGet+0x4c>
 800370a:	9b01      	ldr	r3, [sp, #4]
 800370c:	b913      	cbnz	r3, 8003714 <osMessageQueueGet+0x26>
 800370e:	2000      	movs	r0, #0
 8003710:	b003      	add	sp, #12
 8003712:	bd30      	pop	{r4, r5, pc}
 8003714:	f04f 23e0 	mov.w	r3, #3758153728	; 0xe000e000
 8003718:	f04f 5280 	mov.w	r2, #268435456	; 0x10000000
 800371c:	f8c3 2d04 	str.w	r2, [r3, #3332]	; 0xd04
 8003720:	f3bf 8f4f 	dsb	sy
 8003724:	f3bf 8f6f 	isb	sy
 8003728:	e7f1      	b.n	800370e <osMessageQueueGet+0x20>
 800372a:	b148      	cbz	r0, 8003740 <osMessageQueueGet+0x52>
 800372c:	b141      	cbz	r1, 8003740 <osMessageQueueGet+0x52>
 800372e:	4622      	mov	r2, r4
 8003730:	f000 fabc 	bl	8003cac <xQueueReceive>
 8003734:	2801      	cmp	r0, #1
 8003736:	d0ea      	beq.n	800370e <osMessageQueueGet+0x20>
 8003738:	b92c      	cbnz	r4, 8003746 <osMessageQueueGet+0x58>
 800373a:	f06f 0002 	mvn.w	r0, #2
 800373e:	e7e7      	b.n	8003710 <osMessageQueueGet+0x22>
 8003740:	f06f 0003 	mvn.w	r0, #3
 8003744:	e7e4      	b.n	8003710 <osMessageQueueGet+0x22>
 8003746:	f06f 0001 	mvn.w	r0, #1
 800374a:	e7e1      	b.n	8003710 <osMessageQueueGet+0x22>

0800374c <vApplicationGetIdleTaskMemory>:
 800374c:	4b03      	ldr	r3, [pc, #12]	; (800375c <vApplicationGetIdleTaskMemory+0x10>)
 800374e:	6003      	str	r3, [r0, #0]
 8003750:	4b03      	ldr	r3, [pc, #12]	; (8003760 <vApplicationGetIdleTaskMemory+0x14>)
 8003752:	600b      	str	r3, [r1, #0]
 8003754:	2380      	movs	r3, #128	; 0x80
 8003756:	6013      	str	r3, [r2, #0]
 8003758:	4770      	bx	lr
 800375a:	bf00      	nop
 800375c:	20000434 	.word	0x20000434
 8003760:	20000234 	.word	0x20000234

08003764 <vApplicationGetTimerTaskMemory>:
 8003764:	4b03      	ldr	r3, [pc, #12]	; (8003774 <vApplicationGetTimerTaskMemory+0x10>)
 8003766:	6003      	str	r3, [r0, #0]
 8003768:	4b03      	ldr	r3, [pc, #12]	; (8003778 <vApplicationGetTimerTaskMemory+0x14>)
 800376a:	600b      	str	r3, [r1, #0]
 800376c:	f44f 7380 	mov.w	r3, #256	; 0x100
 8003770:	6013      	str	r3, [r2, #0]
 8003772:	4770      	bx	lr
 8003774:	20000894 	.word	0x20000894
 8003778:	20000494 	.word	0x20000494

0800377c <vListInitialise>:
 800377c:	f100 0308 	add.w	r3, r0, #8
 8003780:	f04f 32ff 	mov.w	r2, #4294967295
 8003784:	e9c0 2302 	strd	r2, r3, [r0, #8]
 8003788:	6043      	str	r3, [r0, #4]
 800378a:	6103      	str	r3, [r0, #16]
 800378c:	2300      	movs	r3, #0
 800378e:	6003      	str	r3, [r0, #0]
 8003790:	4770      	bx	lr

08003792 <vListInitialiseItem>:
 8003792:	2300      	movs	r3, #0
 8003794:	6103      	str	r3, [r0, #16]
 8003796:	4770      	bx	lr

08003798 <vListInsertEnd>:
 8003798:	6843      	ldr	r3, [r0, #4]
 800379a:	604b      	str	r3, [r1, #4]
 800379c:	689a      	ldr	r2, [r3, #8]
 800379e:	608a      	str	r2, [r1, #8]
 80037a0:	689a      	ldr	r2, [r3, #8]
 80037a2:	6051      	str	r1, [r2, #4]
 80037a4:	6099      	str	r1, [r3, #8]
 80037a6:	6803      	ldr	r3, [r0, #0]
 80037a8:	6108      	str	r0, [r1, #16]
 80037aa:	3301      	adds	r3, #1
 80037ac:	6003      	str	r3, [r0, #0]
 80037ae:	4770      	bx	lr

080037b0 <vListInsert>:
 80037b0:	b530      	push	{r4, r5, lr}
 80037b2:	680c      	ldr	r4, [r1, #0]
 80037b4:	1c63      	adds	r3, r4, #1
 80037b6:	d10a      	bne.n	80037ce <vListInsert+0x1e>
 80037b8:	6903      	ldr	r3, [r0, #16]
 80037ba:	685a      	ldr	r2, [r3, #4]
 80037bc:	604a      	str	r2, [r1, #4]
 80037be:	6091      	str	r1, [r2, #8]
 80037c0:	608b      	str	r3, [r1, #8]
 80037c2:	6059      	str	r1, [r3, #4]
 80037c4:	6803      	ldr	r3, [r0, #0]
 80037c6:	6108      	str	r0, [r1, #16]
 80037c8:	3301      	adds	r3, #1
 80037ca:	6003      	str	r3, [r0, #0]
 80037cc:	bd30      	pop	{r4, r5, pc}
 80037ce:	f100 0208 	add.w	r2, r0, #8
 80037d2:	4613      	mov	r3, r2
 80037d4:	6852      	ldr	r2, [r2, #4]
 80037d6:	6815      	ldr	r5, [r2, #0]
 80037d8:	42a5      	cmp	r5, r4
 80037da:	d9fa      	bls.n	80037d2 <vListInsert+0x22>
 80037dc:	e7ed      	b.n	80037ba <vListInsert+0xa>

080037de <uxListRemove>:
 80037de:	e9d0 1201 	ldrd	r1, r2, [r0, #4]
 80037e2:	6903      	ldr	r3, [r0, #16]
 80037e4:	608a      	str	r2, [r1, #8]
 80037e6:	6051      	str	r1, [r2, #4]
 80037e8:	6859      	ldr	r1, [r3, #4]
 80037ea:	4281      	cmp	r1, r0
 80037ec:	bf08      	it	eq
 80037ee:	605a      	streq	r2, [r3, #4]
 80037f0:	2200      	movs	r2, #0
 80037f2:	6102      	str	r2, [r0, #16]
 80037f4:	681a      	ldr	r2, [r3, #0]
 80037f6:	3a01      	subs	r2, #1
 80037f8:	601a      	str	r2, [r3, #0]
 80037fa:	6818      	ldr	r0, [r3, #0]
 80037fc:	4770      	bx	lr

080037fe <prvIsQueueEmpty>:
 80037fe:	b510      	push	{r4, lr}
 8003800:	4604      	mov	r4, r0
 8003802:	f001 fa77 	bl	8004cf4 <vPortEnterCritical>
 8003806:	6ba4      	ldr	r4, [r4, #56]	; 0x38
 8003808:	f001 fa94 	bl	8004d34 <vPortExitCritical>
 800380c:	fab4 f084 	clz	r0, r4
 8003810:	0940      	lsrs	r0, r0, #5
 8003812:	bd10      	pop	{r4, pc}

08003814 <prvCopyDataToQueue>:
 8003814:	b5f8      	push	{r3, r4, r5, r6, r7, lr}
 8003816:	4615      	mov	r5, r2
 8003818:	6c02      	ldr	r2, [r0, #64]	; 0x40
 800381a:	6b86      	ldr	r6, [r0, #56]	; 0x38
 800381c:	4604      	mov	r4, r0
 800381e:	b952      	cbnz	r2, 8003836 <prvCopyDataToQueue+0x22>
 8003820:	6807      	ldr	r7, [r0, #0]
 8003822:	bb47      	cbnz	r7, 8003876 <prvCopyDataToQueue+0x62>
 8003824:	6880      	ldr	r0, [r0, #8]
 8003826:	f000 ffcb 	bl	80047c0 <xTaskPriorityDisinherit>
 800382a:	60a7      	str	r7, [r4, #8]
 800382c:	4605      	mov	r5, r0
 800382e:	3601      	adds	r6, #1
 8003830:	63a6      	str	r6, [r4, #56]	; 0x38
 8003832:	4628      	mov	r0, r5
 8003834:	bdf8      	pop	{r3, r4, r5, r6, r7, pc}
 8003836:	b965      	cbnz	r5, 8003852 <prvCopyDataToQueue+0x3e>
 8003838:	6840      	ldr	r0, [r0, #4]
 800383a:	f001 ff5a 	bl	80056f2 <memcpy>
 800383e:	6863      	ldr	r3, [r4, #4]
 8003840:	6c22      	ldr	r2, [r4, #64]	; 0x40
 8003842:	4413      	add	r3, r2
 8003844:	68a2      	ldr	r2, [r4, #8]
 8003846:	6063      	str	r3, [r4, #4]
 8003848:	4293      	cmp	r3, r2
 800384a:	d3f0      	bcc.n	800382e <prvCopyDataToQueue+0x1a>
 800384c:	6823      	ldr	r3, [r4, #0]
 800384e:	6063      	str	r3, [r4, #4]
 8003850:	e7ed      	b.n	800382e <prvCopyDataToQueue+0x1a>
 8003852:	68c0      	ldr	r0, [r0, #12]
 8003854:	f001 ff4d 	bl	80056f2 <memcpy>
 8003858:	6c22      	ldr	r2, [r4, #64]	; 0x40
 800385a:	68e3      	ldr	r3, [r4, #12]
 800385c:	4251      	negs	r1, r2
 800385e:	1a9b      	subs	r3, r3, r2
 8003860:	6822      	ldr	r2, [r4, #0]
 8003862:	60e3      	str	r3, [r4, #12]
 8003864:	4293      	cmp	r3, r2
 8003866:	bf3e      	ittt	cc
 8003868:	68a3      	ldrcc	r3, [r4, #8]
 800386a:	185b      	addcc	r3, r3, r1
 800386c:	60e3      	strcc	r3, [r4, #12]
 800386e:	2d02      	cmp	r5, #2
 8003870:	d101      	bne.n	8003876 <prvCopyDataToQueue+0x62>
 8003872:	b116      	cbz	r6, 800387a <prvCopyDataToQueue+0x66>
 8003874:	3e01      	subs	r6, #1
 8003876:	2500      	movs	r5, #0
 8003878:	e7d9      	b.n	800382e <prvCopyDataToQueue+0x1a>
 800387a:	4635      	mov	r5, r6
 800387c:	e7d7      	b.n	800382e <prvCopyDataToQueue+0x1a>

0800387e <prvCopyDataFromQueue>:
 800387e:	4603      	mov	r3, r0
 8003880:	b410      	push	{r4}
 8003882:	6c1a      	ldr	r2, [r3, #64]	; 0x40
 8003884:	4608      	mov	r0, r1
 8003886:	b16a      	cbz	r2, 80038a4 <prvCopyDataFromQueue+0x26>
 8003888:	68dc      	ldr	r4, [r3, #12]
 800388a:	6899      	ldr	r1, [r3, #8]
 800388c:	4414      	add	r4, r2
 800388e:	428c      	cmp	r4, r1
 8003890:	bf28      	it	cs
 8003892:	6819      	ldrcs	r1, [r3, #0]
 8003894:	60dc      	str	r4, [r3, #12]
 8003896:	bf28      	it	cs
 8003898:	60d9      	strcs	r1, [r3, #12]
 800389a:	68d9      	ldr	r1, [r3, #12]
 800389c:	f85d 4b04 	ldr.w	r4, [sp], #4
 80038a0:	f001 bf27 	b.w	80056f2 <memcpy>
 80038a4:	f85d 4b04 	ldr.w	r4, [sp], #4
 80038a8:	4770      	bx	lr

080038aa <prvUnlockQueue>:
 80038aa:	b570      	push	{r4, r5, r6, lr}
 80038ac:	4604      	mov	r4, r0
 80038ae:	f001 fa21 	bl	8004cf4 <vPortEnterCritical>
 80038b2:	f894 5045 	ldrb.w	r5, [r4, #69]	; 0x45
 80038b6:	f104 0624 	add.w	r6, r4, #36	; 0x24
 80038ba:	b26d      	sxtb	r5, r5
 80038bc:	2d00      	cmp	r5, #0
 80038be:	dc14      	bgt.n	80038ea <prvUnlockQueue+0x40>
 80038c0:	23ff      	movs	r3, #255	; 0xff
 80038c2:	f884 3045 	strb.w	r3, [r4, #69]	; 0x45
 80038c6:	f001 fa35 	bl	8004d34 <vPortExitCritical>
 80038ca:	f001 fa13 	bl	8004cf4 <vPortEnterCritical>
 80038ce:	f894 5044 	ldrb.w	r5, [r4, #68]	; 0x44
 80038d2:	f104 0610 	add.w	r6, r4, #16
 80038d6:	b26d      	sxtb	r5, r5
 80038d8:	2d00      	cmp	r5, #0
 80038da:	dc12      	bgt.n	8003902 <prvUnlockQueue+0x58>
 80038dc:	23ff      	movs	r3, #255	; 0xff
 80038de:	f884 3044 	strb.w	r3, [r4, #68]	; 0x44
 80038e2:	e8bd 4070 	ldmia.w	sp!, {r4, r5, r6, lr}
 80038e6:	f001 ba25 	b.w	8004d34 <vPortExitCritical>
 80038ea:	6a63      	ldr	r3, [r4, #36]	; 0x24
 80038ec:	2b00      	cmp	r3, #0
 80038ee:	d0e7      	beq.n	80038c0 <prvUnlockQueue+0x16>
 80038f0:	4630      	mov	r0, r6
 80038f2:	f000 fec3 	bl	800467c <xTaskRemoveFromEventList>
 80038f6:	b108      	cbz	r0, 80038fc <prvUnlockQueue+0x52>
 80038f8:	f000 ff4c 	bl	8004794 <vTaskMissedYield>
 80038fc:	3d01      	subs	r5, #1
 80038fe:	b26d      	sxtb	r5, r5
 8003900:	e7dc      	b.n	80038bc <prvUnlockQueue+0x12>
 8003902:	6923      	ldr	r3, [r4, #16]
 8003904:	2b00      	cmp	r3, #0
 8003906:	d0e9      	beq.n	80038dc <prvUnlockQueue+0x32>
 8003908:	4630      	mov	r0, r6
 800390a:	f000 feb7 	bl	800467c <xTaskRemoveFromEventList>
 800390e:	b108      	cbz	r0, 8003914 <prvUnlockQueue+0x6a>
 8003910:	f000 ff40 	bl	8004794 <vTaskMissedYield>
 8003914:	3d01      	subs	r5, #1
 8003916:	b26d      	sxtb	r5, r5
 8003918:	e7de      	b.n	80038d8 <prvUnlockQueue+0x2e>

0800391a <xQueueGenericReset>:
 800391a:	b538      	push	{r3, r4, r5, lr}
 800391c:	460d      	mov	r5, r1
 800391e:	4604      	mov	r4, r0
 8003920:	b940      	cbnz	r0, 8003934 <xQueueGenericReset+0x1a>
 8003922:	f04f 0350 	mov.w	r3, #80	; 0x50
 8003926:	f383 8811 	msr	BASEPRI, r3
 800392a:	f3bf 8f6f 	isb	sy
 800392e:	f3bf 8f4f 	dsb	sy
 8003932:	e7fe      	b.n	8003932 <xQueueGenericReset+0x18>
 8003934:	f001 f9de 	bl	8004cf4 <vPortEnterCritical>
 8003938:	e9d4 310f 	ldrd	r3, r1, [r4, #60]	; 0x3c
 800393c:	6822      	ldr	r2, [r4, #0]
 800393e:	6062      	str	r2, [r4, #4]
 8003940:	434b      	muls	r3, r1
 8003942:	18d0      	adds	r0, r2, r3
 8003944:	1a5b      	subs	r3, r3, r1
 8003946:	441a      	add	r2, r3
 8003948:	60a0      	str	r0, [r4, #8]
 800394a:	23ff      	movs	r3, #255	; 0xff
 800394c:	2000      	movs	r0, #0
 800394e:	63a0      	str	r0, [r4, #56]	; 0x38
 8003950:	60e2      	str	r2, [r4, #12]
 8003952:	f884 3044 	strb.w	r3, [r4, #68]	; 0x44
 8003956:	f884 3045 	strb.w	r3, [r4, #69]	; 0x45
 800395a:	b9a5      	cbnz	r5, 8003986 <xQueueGenericReset+0x6c>
 800395c:	6923      	ldr	r3, [r4, #16]
 800395e:	b173      	cbz	r3, 800397e <xQueueGenericReset+0x64>
 8003960:	f104 0010 	add.w	r0, r4, #16
 8003964:	f000 fe8a 	bl	800467c <xTaskRemoveFromEventList>
 8003968:	b148      	cbz	r0, 800397e <xQueueGenericReset+0x64>
 800396a:	f04f 23e0 	mov.w	r3, #3758153728	; 0xe000e000
 800396e:	f04f 5280 	mov.w	r2, #268435456	; 0x10000000
 8003972:	f8c3 2d04 	str.w	r2, [r3, #3332]	; 0xd04
 8003976:	f3bf 8f4f 	dsb	sy
 800397a:	f3bf 8f6f 	isb	sy
 800397e:	f001 f9d9 	bl	8004d34 <vPortExitCritical>
 8003982:	2001      	movs	r0, #1
 8003984:	bd38      	pop	{r3, r4, r5, pc}
 8003986:	f104 0010 	add.w	r0, r4, #16
 800398a:	f7ff fef7 	bl	800377c <vListInitialise>
 800398e:	f104 0024 	add.w	r0, r4, #36	; 0x24
 8003992:	f7ff fef3 	bl	800377c <vListInitialise>
 8003996:	e7f2      	b.n	800397e <xQueueGenericReset+0x64>

08003998 <xQueueGenericCreateStatic>:
 8003998:	b513      	push	{r0, r1, r4, lr}
 800399a:	461c      	mov	r4, r3
 800399c:	b940      	cbnz	r0, 80039b0 <xQueueGenericCreateStatic+0x18>
 800399e:	f04f 0350 	mov.w	r3, #80	; 0x50
 80039a2:	f383 8811 	msr	BASEPRI, r3
 80039a6:	f3bf 8f6f 	isb	sy
 80039aa:	f3bf 8f4f 	dsb	sy
 80039ae:	e7fe      	b.n	80039ae <xQueueGenericCreateStatic+0x16>
 80039b0:	b943      	cbnz	r3, 80039c4 <xQueueGenericCreateStatic+0x2c>
 80039b2:	f04f 0350 	mov.w	r3, #80	; 0x50
 80039b6:	f383 8811 	msr	BASEPRI, r3
 80039ba:	f3bf 8f6f 	isb	sy
 80039be:	f3bf 8f4f 	dsb	sy
 80039c2:	e7fe      	b.n	80039c2 <xQueueGenericCreateStatic+0x2a>
 80039c4:	b14a      	cbz	r2, 80039da <xQueueGenericCreateStatic+0x42>
 80039c6:	b991      	cbnz	r1, 80039ee <xQueueGenericCreateStatic+0x56>
 80039c8:	f04f 0350 	mov.w	r3, #80	; 0x50
 80039cc:	f383 8811 	msr	BASEPRI, r3
 80039d0:	f3bf 8f6f 	isb	sy
 80039d4:	f3bf 8f4f 	dsb	sy
 80039d8:	e7fe      	b.n	80039d8 <xQueueGenericCreateStatic+0x40>
 80039da:	b141      	cbz	r1, 80039ee <xQueueGenericCreateStatic+0x56>
 80039dc:	f04f 0350 	mov.w	r3, #80	; 0x50
 80039e0:	f383 8811 	msr	BASEPRI, r3
 80039e4:	f3bf 8f6f 	isb	sy
 80039e8:	f3bf 8f4f 	dsb	sy
 80039ec:	e7fe      	b.n	80039ec <xQueueGenericCreateStatic+0x54>
 80039ee:	2350      	movs	r3, #80	; 0x50
 80039f0:	9301      	str	r3, [sp, #4]
 80039f2:	9b01      	ldr	r3, [sp, #4]
 80039f4:	2b50      	cmp	r3, #80	; 0x50
 80039f6:	d008      	beq.n	8003a0a <xQueueGenericCreateStatic+0x72>
 80039f8:	f04f 0350 	mov.w	r3, #80	; 0x50
 80039fc:	f383 8811 	msr	BASEPRI, r3
 8003a00:	f3bf 8f6f 	isb	sy
 8003a04:	f3bf 8f4f 	dsb	sy
 8003a08:	e7fe      	b.n	8003a08 <xQueueGenericCreateStatic+0x70>
 8003a0a:	2900      	cmp	r1, #0
 8003a0c:	bf08      	it	eq
 8003a0e:	4622      	moveq	r2, r4
 8003a10:	9b01      	ldr	r3, [sp, #4]
 8003a12:	6022      	str	r2, [r4, #0]
 8003a14:	2301      	movs	r3, #1
 8003a16:	e9c4 010f 	strd	r0, r1, [r4, #60]	; 0x3c
 8003a1a:	f884 3046 	strb.w	r3, [r4, #70]	; 0x46
 8003a1e:	4619      	mov	r1, r3
 8003a20:	4620      	mov	r0, r4
 8003a22:	f7ff ff7a 	bl	800391a <xQueueGenericReset>
 8003a26:	f89d 3010 	ldrb.w	r3, [sp, #16]
 8003a2a:	f884 304c 	strb.w	r3, [r4, #76]	; 0x4c
 8003a2e:	4620      	mov	r0, r4
 8003a30:	b002      	add	sp, #8
 8003a32:	bd10      	pop	{r4, pc}

08003a34 <xQueueGenericCreate>:
 8003a34:	b5f8      	push	{r3, r4, r5, r6, r7, lr}
 8003a36:	460d      	mov	r5, r1
 8003a38:	4617      	mov	r7, r2
 8003a3a:	4606      	mov	r6, r0
 8003a3c:	b940      	cbnz	r0, 8003a50 <xQueueGenericCreate+0x1c>
 8003a3e:	f04f 0350 	mov.w	r3, #80	; 0x50
 8003a42:	f383 8811 	msr	BASEPRI, r3
 8003a46:	f3bf 8f6f 	isb	sy
 8003a4a:	f3bf 8f4f 	dsb	sy
 8003a4e:	e7fe      	b.n	8003a4e <xQueueGenericCreate+0x1a>
 8003a50:	4348      	muls	r0, r1
 8003a52:	3050      	adds	r0, #80	; 0x50
 8003a54:	f001 fab8 	bl	8004fc8 <pvPortMalloc>
 8003a58:	4604      	mov	r4, r0
 8003a5a:	b170      	cbz	r0, 8003a7a <xQueueGenericCreate+0x46>
 8003a5c:	2300      	movs	r3, #0
 8003a5e:	f880 3046 	strb.w	r3, [r0, #70]	; 0x46
 8003a62:	b165      	cbz	r5, 8003a7e <xQueueGenericCreate+0x4a>
 8003a64:	f100 0350 	add.w	r3, r0, #80	; 0x50
 8003a68:	e9c4 650f 	strd	r6, r5, [r4, #60]	; 0x3c
 8003a6c:	6023      	str	r3, [r4, #0]
 8003a6e:	2101      	movs	r1, #1
 8003a70:	4620      	mov	r0, r4
 8003a72:	f7ff ff52 	bl	800391a <xQueueGenericReset>
 8003a76:	f884 704c 	strb.w	r7, [r4, #76]	; 0x4c
 8003a7a:	4620      	mov	r0, r4
 8003a7c:	bdf8      	pop	{r3, r4, r5, r6, r7, pc}
 8003a7e:	4603      	mov	r3, r0
 8003a80:	e7f2      	b.n	8003a68 <xQueueGenericCreate+0x34>

08003a82 <xQueueGenericSend>:
 8003a82:	e92d 43f0 	stmdb	sp!, {r4, r5, r6, r7, r8, r9, lr}
 8003a86:	b085      	sub	sp, #20
 8003a88:	4688      	mov	r8, r1
 8003a8a:	9201      	str	r2, [sp, #4]
 8003a8c:	461f      	mov	r7, r3
 8003a8e:	4604      	mov	r4, r0
 8003a90:	b940      	cbnz	r0, 8003aa4 <xQueueGenericSend+0x22>
 8003a92:	f04f 0350 	mov.w	r3, #80	; 0x50
 8003a96:	f383 8811 	msr	BASEPRI, r3
 8003a9a:	f3bf 8f6f 	isb	sy
 8003a9e:	f3bf 8f4f 	dsb	sy
 8003aa2:	e7fe      	b.n	8003aa2 <xQueueGenericSend+0x20>
 8003aa4:	b951      	cbnz	r1, 8003abc <xQueueGenericSend+0x3a>
 8003aa6:	6c03      	ldr	r3, [r0, #64]	; 0x40
 8003aa8:	b143      	cbz	r3, 8003abc <xQueueGenericSend+0x3a>
 8003aaa:	f04f 0350 	mov.w	r3, #80	; 0x50
 8003aae:	f383 8811 	msr	BASEPRI, r3
 8003ab2:	f3bf 8f6f 	isb	sy
 8003ab6:	f3bf 8f4f 	dsb	sy
 8003aba:	e7fe      	b.n	8003aba <xQueueGenericSend+0x38>
 8003abc:	2f02      	cmp	r7, #2
 8003abe:	d10b      	bne.n	8003ad8 <xQueueGenericSend+0x56>
 8003ac0:	6be3      	ldr	r3, [r4, #60]	; 0x3c
 8003ac2:	2b01      	cmp	r3, #1
 8003ac4:	d008      	beq.n	8003ad8 <xQueueGenericSend+0x56>
 8003ac6:	f04f 0350 	mov.w	r3, #80	; 0x50
 8003aca:	f383 8811 	msr	BASEPRI, r3
 8003ace:	f3bf 8f6f 	isb	sy
 8003ad2:	f3bf 8f4f 	dsb	sy
 8003ad6:	e7fe      	b.n	8003ad6 <xQueueGenericSend+0x54>
 8003ad8:	f000 fe62 	bl	80047a0 <xTaskGetSchedulerState>
 8003adc:	4606      	mov	r6, r0
 8003ade:	b950      	cbnz	r0, 8003af6 <xQueueGenericSend+0x74>
 8003ae0:	9b01      	ldr	r3, [sp, #4]
 8003ae2:	b14b      	cbz	r3, 8003af8 <xQueueGenericSend+0x76>
 8003ae4:	f04f 0350 	mov.w	r3, #80	; 0x50
 8003ae8:	f383 8811 	msr	BASEPRI, r3
 8003aec:	f3bf 8f6f 	isb	sy
 8003af0:	f3bf 8f4f 	dsb	sy
 8003af4:	e7fe      	b.n	8003af4 <xQueueGenericSend+0x72>
 8003af6:	2600      	movs	r6, #0
 8003af8:	f04f 0900 	mov.w	r9, #0
 8003afc:	e037      	b.n	8003b6e <xQueueGenericSend+0xec>
 8003afe:	9d01      	ldr	r5, [sp, #4]
 8003b00:	b91d      	cbnz	r5, 8003b0a <xQueueGenericSend+0x88>
 8003b02:	f001 f917 	bl	8004d34 <vPortExitCritical>
 8003b06:	2000      	movs	r0, #0
 8003b08:	e052      	b.n	8003bb0 <xQueueGenericSend+0x12e>
 8003b0a:	b916      	cbnz	r6, 8003b12 <xQueueGenericSend+0x90>
 8003b0c:	a802      	add	r0, sp, #8
 8003b0e:	f000 fdf9 	bl	8004704 <vTaskInternalSetTimeOutState>
 8003b12:	f001 f90f 	bl	8004d34 <vPortExitCritical>
 8003b16:	f000 fbfb 	bl	8004310 <vTaskSuspendAll>
 8003b1a:	f001 f8eb 	bl	8004cf4 <vPortEnterCritical>
 8003b1e:	f894 3044 	ldrb.w	r3, [r4, #68]	; 0x44
 8003b22:	2bff      	cmp	r3, #255	; 0xff
 8003b24:	bf08      	it	eq
 8003b26:	f884 9044 	strbeq.w	r9, [r4, #68]	; 0x44
 8003b2a:	f894 3045 	ldrb.w	r3, [r4, #69]	; 0x45
 8003b2e:	2bff      	cmp	r3, #255	; 0xff
 8003b30:	bf08      	it	eq
 8003b32:	f884 9045 	strbeq.w	r9, [r4, #69]	; 0x45
 8003b36:	f001 f8fd 	bl	8004d34 <vPortExitCritical>
 8003b3a:	a901      	add	r1, sp, #4
 8003b3c:	a802      	add	r0, sp, #8
 8003b3e:	f000 fded 	bl	800471c <xTaskCheckForTimeOut>
 8003b42:	2800      	cmp	r0, #0
 8003b44:	d14a      	bne.n	8003bdc <xQueueGenericSend+0x15a>
 8003b46:	f001 f8d5 	bl	8004cf4 <vPortEnterCritical>
 8003b4a:	6ba2      	ldr	r2, [r4, #56]	; 0x38
 8003b4c:	6be3      	ldr	r3, [r4, #60]	; 0x3c
 8003b4e:	429a      	cmp	r2, r3
 8003b50:	d131      	bne.n	8003bb6 <xQueueGenericSend+0x134>
 8003b52:	f001 f8ef 	bl	8004d34 <vPortExitCritical>
 8003b56:	9901      	ldr	r1, [sp, #4]
 8003b58:	f104 0010 	add.w	r0, r4, #16
 8003b5c:	f000 fd56 	bl	800460c <vTaskPlaceOnEventList>
 8003b60:	4620      	mov	r0, r4
 8003b62:	f7ff fea2 	bl	80038aa <prvUnlockQueue>
 8003b66:	f000 fc7f 	bl	8004468 <xTaskResumeAll>
 8003b6a:	b360      	cbz	r0, 8003bc6 <xQueueGenericSend+0x144>
 8003b6c:	2601      	movs	r6, #1
 8003b6e:	f001 f8c1 	bl	8004cf4 <vPortEnterCritical>
 8003b72:	6ba2      	ldr	r2, [r4, #56]	; 0x38
 8003b74:	6be3      	ldr	r3, [r4, #60]	; 0x3c
 8003b76:	429a      	cmp	r2, r3
 8003b78:	d301      	bcc.n	8003b7e <xQueueGenericSend+0xfc>
 8003b7a:	2f02      	cmp	r7, #2
 8003b7c:	d1bf      	bne.n	8003afe <xQueueGenericSend+0x7c>
 8003b7e:	463a      	mov	r2, r7
 8003b80:	4641      	mov	r1, r8
 8003b82:	4620      	mov	r0, r4
 8003b84:	f7ff fe46 	bl	8003814 <prvCopyDataToQueue>
 8003b88:	6a63      	ldr	r3, [r4, #36]	; 0x24
 8003b8a:	b11b      	cbz	r3, 8003b94 <xQueueGenericSend+0x112>
 8003b8c:	f104 0024 	add.w	r0, r4, #36	; 0x24
 8003b90:	f000 fd74 	bl	800467c <xTaskRemoveFromEventList>
 8003b94:	b148      	cbz	r0, 8003baa <xQueueGenericSend+0x128>
 8003b96:	f04f 23e0 	mov.w	r3, #3758153728	; 0xe000e000
 8003b9a:	f04f 5280 	mov.w	r2, #268435456	; 0x10000000
 8003b9e:	f8c3 2d04 	str.w	r2, [r3, #3332]	; 0xd04
 8003ba2:	f3bf 8f4f 	dsb	sy
 8003ba6:	f3bf 8f6f 	isb	sy
 8003baa:	f001 f8c3 	bl	8004d34 <vPortExitCritical>
 8003bae:	2001      	movs	r0, #1
 8003bb0:	b005      	add	sp, #20
 8003bb2:	e8bd 83f0 	ldmia.w	sp!, {r4, r5, r6, r7, r8, r9, pc}
 8003bb6:	f001 f8bd 	bl	8004d34 <vPortExitCritical>
 8003bba:	4620      	mov	r0, r4
 8003bbc:	f7ff fe75 	bl	80038aa <prvUnlockQueue>
 8003bc0:	f000 fc52 	bl	8004468 <xTaskResumeAll>
 8003bc4:	e7d2      	b.n	8003b6c <xQueueGenericSend+0xea>
 8003bc6:	f04f 23e0 	mov.w	r3, #3758153728	; 0xe000e000
 8003bca:	f04f 5280 	mov.w	r2, #268435456	; 0x10000000
 8003bce:	f8c3 2d04 	str.w	r2, [r3, #3332]	; 0xd04
 8003bd2:	f3bf 8f4f 	dsb	sy
 8003bd6:	f3bf 8f6f 	isb	sy
 8003bda:	e7c7      	b.n	8003b6c <xQueueGenericSend+0xea>
 8003bdc:	4620      	mov	r0, r4
 8003bde:	f7ff fe64 	bl	80038aa <prvUnlockQueue>
 8003be2:	f000 fc41 	bl	8004468 <xTaskResumeAll>
 8003be6:	e78e      	b.n	8003b06 <xQueueGenericSend+0x84>

08003be8 <xQueueGenericSendFromISR>:
 8003be8:	e92d 43f8 	stmdb	sp!, {r3, r4, r5, r6, r7, r8, r9, lr}
 8003bec:	4689      	mov	r9, r1
 8003bee:	4690      	mov	r8, r2
 8003bf0:	461f      	mov	r7, r3
 8003bf2:	4604      	mov	r4, r0
 8003bf4:	b940      	cbnz	r0, 8003c08 <xQueueGenericSendFromISR+0x20>
 8003bf6:	f04f 0350 	mov.w	r3, #80	; 0x50
 8003bfa:	f383 8811 	msr	BASEPRI, r3
 8003bfe:	f3bf 8f6f 	isb	sy
 8003c02:	f3bf 8f4f 	dsb	sy
 8003c06:	e7fe      	b.n	8003c06 <xQueueGenericSendFromISR+0x1e>
 8003c08:	b951      	cbnz	r1, 8003c20 <xQueueGenericSendFromISR+0x38>
 8003c0a:	6c03      	ldr	r3, [r0, #64]	; 0x40
 8003c0c:	b143      	cbz	r3, 8003c20 <xQueueGenericSendFromISR+0x38>
 8003c0e:	f04f 0350 	mov.w	r3, #80	; 0x50
 8003c12:	f383 8811 	msr	BASEPRI, r3
 8003c16:	f3bf 8f6f 	isb	sy
 8003c1a:	f3bf 8f4f 	dsb	sy
 8003c1e:	e7fe      	b.n	8003c1e <xQueueGenericSendFromISR+0x36>
 8003c20:	2f02      	cmp	r7, #2
 8003c22:	d10b      	bne.n	8003c3c <xQueueGenericSendFromISR+0x54>
 8003c24:	6be3      	ldr	r3, [r4, #60]	; 0x3c
 8003c26:	2b01      	cmp	r3, #1
 8003c28:	d008      	beq.n	8003c3c <xQueueGenericSendFromISR+0x54>
 8003c2a:	f04f 0350 	mov.w	r3, #80	; 0x50
 8003c2e:	f383 8811 	msr	BASEPRI, r3
 8003c32:	f3bf 8f6f 	isb	sy
 8003c36:	f3bf 8f4f 	dsb	sy
 8003c3a:	e7fe      	b.n	8003c3a <xQueueGenericSendFromISR+0x52>
 8003c3c:	f001 f970 	bl	8004f20 <vPortValidateInterruptPriority>
 8003c40:	f3ef 8611 	mrs	r6, BASEPRI
 8003c44:	f04f 0350 	mov.w	r3, #80	; 0x50
 8003c48:	f383 8811 	msr	BASEPRI, r3
 8003c4c:	f3bf 8f6f 	isb	sy
 8003c50:	f3bf 8f4f 	dsb	sy
 8003c54:	6ba2      	ldr	r2, [r4, #56]	; 0x38
 8003c56:	6be3      	ldr	r3, [r4, #60]	; 0x3c
 8003c58:	429a      	cmp	r2, r3
 8003c5a:	d301      	bcc.n	8003c60 <xQueueGenericSendFromISR+0x78>
 8003c5c:	2f02      	cmp	r7, #2
 8003c5e:	d123      	bne.n	8003ca8 <xQueueGenericSendFromISR+0xc0>
 8003c60:	f894 5045 	ldrb.w	r5, [r4, #69]	; 0x45
 8003c64:	6ba3      	ldr	r3, [r4, #56]	; 0x38
 8003c66:	b26d      	sxtb	r5, r5
 8003c68:	463a      	mov	r2, r7
 8003c6a:	4649      	mov	r1, r9
 8003c6c:	4620      	mov	r0, r4
 8003c6e:	f7ff fdd1 	bl	8003814 <prvCopyDataToQueue>
 8003c72:	1c6b      	adds	r3, r5, #1
 8003c74:	d113      	bne.n	8003c9e <xQueueGenericSendFromISR+0xb6>
 8003c76:	6a63      	ldr	r3, [r4, #36]	; 0x24
 8003c78:	b90b      	cbnz	r3, 8003c7e <xQueueGenericSendFromISR+0x96>
 8003c7a:	2001      	movs	r0, #1
 8003c7c:	e00b      	b.n	8003c96 <xQueueGenericSendFromISR+0xae>
 8003c7e:	f104 0024 	add.w	r0, r4, #36	; 0x24
 8003c82:	f000 fcfb 	bl	800467c <xTaskRemoveFromEventList>
 8003c86:	2800      	cmp	r0, #0
 8003c88:	d0f7      	beq.n	8003c7a <xQueueGenericSendFromISR+0x92>
 8003c8a:	f1b8 0f00 	cmp.w	r8, #0
 8003c8e:	d0f4      	beq.n	8003c7a <xQueueGenericSendFromISR+0x92>
 8003c90:	2001      	movs	r0, #1
 8003c92:	f8c8 0000 	str.w	r0, [r8]
 8003c96:	f386 8811 	msr	BASEPRI, r6
 8003c9a:	e8bd 83f8 	ldmia.w	sp!, {r3, r4, r5, r6, r7, r8, r9, pc}
 8003c9e:	3501      	adds	r5, #1
 8003ca0:	b26d      	sxtb	r5, r5
 8003ca2:	f884 5045 	strb.w	r5, [r4, #69]	; 0x45
 8003ca6:	e7e8      	b.n	8003c7a <xQueueGenericSendFromISR+0x92>
 8003ca8:	2000      	movs	r0, #0
 8003caa:	e7f4      	b.n	8003c96 <xQueueGenericSendFromISR+0xae>

08003cac <xQueueReceive>:
 8003cac:	e92d 41ff 	stmdb	sp!, {r0, r1, r2, r3, r4, r5, r6, r7, r8, lr}
 8003cb0:	460f      	mov	r7, r1
 8003cb2:	9201      	str	r2, [sp, #4]
 8003cb4:	4604      	mov	r4, r0
 8003cb6:	b940      	cbnz	r0, 8003cca <xQueueReceive+0x1e>
 8003cb8:	f04f 0350 	mov.w	r3, #80	; 0x50
 8003cbc:	f383 8811 	msr	BASEPRI, r3
 8003cc0:	f3bf 8f6f 	isb	sy
 8003cc4:	f3bf 8f4f 	dsb	sy
 8003cc8:	e7fe      	b.n	8003cc8 <xQueueReceive+0x1c>
 8003cca:	b951      	cbnz	r1, 8003ce2 <xQueueReceive+0x36>
 8003ccc:	6c03      	ldr	r3, [r0, #64]	; 0x40
 8003cce:	b143      	cbz	r3, 8003ce2 <xQueueReceive+0x36>
 8003cd0:	f04f 0350 	mov.w	r3, #80	; 0x50
 8003cd4:	f383 8811 	msr	BASEPRI, r3
 8003cd8:	f3bf 8f6f 	isb	sy
 8003cdc:	f3bf 8f4f 	dsb	sy
 8003ce0:	e7fe      	b.n	8003ce0 <xQueueReceive+0x34>
 8003ce2:	f000 fd5d 	bl	80047a0 <xTaskGetSchedulerState>
 8003ce6:	4606      	mov	r6, r0
 8003ce8:	b950      	cbnz	r0, 8003d00 <xQueueReceive+0x54>
 8003cea:	9b01      	ldr	r3, [sp, #4]
 8003cec:	b14b      	cbz	r3, 8003d02 <xQueueReceive+0x56>
 8003cee:	f04f 0350 	mov.w	r3, #80	; 0x50
 8003cf2:	f383 8811 	msr	BASEPRI, r3
 8003cf6:	f3bf 8f6f 	isb	sy
 8003cfa:	f3bf 8f4f 	dsb	sy
 8003cfe:	e7fe      	b.n	8003cfe <xQueueReceive+0x52>
 8003d00:	2600      	movs	r6, #0
 8003d02:	f04f 0800 	mov.w	r8, #0
 8003d06:	e03d      	b.n	8003d84 <xQueueReceive+0xd8>
 8003d08:	9d01      	ldr	r5, [sp, #4]
 8003d0a:	b91d      	cbnz	r5, 8003d14 <xQueueReceive+0x68>
 8003d0c:	f001 f812 	bl	8004d34 <vPortExitCritical>
 8003d10:	2000      	movs	r0, #0
 8003d12:	e056      	b.n	8003dc2 <xQueueReceive+0x116>
 8003d14:	b916      	cbnz	r6, 8003d1c <xQueueReceive+0x70>
 8003d16:	a802      	add	r0, sp, #8
 8003d18:	f000 fcf4 	bl	8004704 <vTaskInternalSetTimeOutState>
 8003d1c:	f001 f80a 	bl	8004d34 <vPortExitCritical>
 8003d20:	f000 faf6 	bl	8004310 <vTaskSuspendAll>
 8003d24:	f000 ffe6 	bl	8004cf4 <vPortEnterCritical>
 8003d28:	f894 3044 	ldrb.w	r3, [r4, #68]	; 0x44
 8003d2c:	2bff      	cmp	r3, #255	; 0xff
 8003d2e:	bf08      	it	eq
 8003d30:	f884 8044 	strbeq.w	r8, [r4, #68]	; 0x44
 8003d34:	f894 3045 	ldrb.w	r3, [r4, #69]	; 0x45
 8003d38:	2bff      	cmp	r3, #255	; 0xff
 8003d3a:	bf08      	it	eq
 8003d3c:	f884 8045 	strbeq.w	r8, [r4, #69]	; 0x45
 8003d40:	f000 fff8 	bl	8004d34 <vPortExitCritical>
 8003d44:	a901      	add	r1, sp, #4
 8003d46:	a802      	add	r0, sp, #8
 8003d48:	f000 fce8 	bl	800471c <xTaskCheckForTimeOut>
 8003d4c:	2800      	cmp	r0, #0
 8003d4e:	d141      	bne.n	8003dd4 <xQueueReceive+0x128>
 8003d50:	4620      	mov	r0, r4
 8003d52:	f7ff fd54 	bl	80037fe <prvIsQueueEmpty>
 8003d56:	b3b8      	cbz	r0, 8003dc8 <xQueueReceive+0x11c>
 8003d58:	9901      	ldr	r1, [sp, #4]
 8003d5a:	f104 0024 	add.w	r0, r4, #36	; 0x24
 8003d5e:	f000 fc55 	bl	800460c <vTaskPlaceOnEventList>
 8003d62:	4620      	mov	r0, r4
 8003d64:	f7ff fda1 	bl	80038aa <prvUnlockQueue>
 8003d68:	f000 fb7e 	bl	8004468 <xTaskResumeAll>
 8003d6c:	b948      	cbnz	r0, 8003d82 <xQueueReceive+0xd6>
 8003d6e:	f04f 23e0 	mov.w	r3, #3758153728	; 0xe000e000
 8003d72:	f04f 5280 	mov.w	r2, #268435456	; 0x10000000
 8003d76:	f8c3 2d04 	str.w	r2, [r3, #3332]	; 0xd04
 8003d7a:	f3bf 8f4f 	dsb	sy
 8003d7e:	f3bf 8f6f 	isb	sy
 8003d82:	2601      	movs	r6, #1
 8003d84:	f000 ffb6 	bl	8004cf4 <vPortEnterCritical>
 8003d88:	6ba5      	ldr	r5, [r4, #56]	; 0x38
 8003d8a:	2d00      	cmp	r5, #0
 8003d8c:	d0bc      	beq.n	8003d08 <xQueueReceive+0x5c>
 8003d8e:	4639      	mov	r1, r7
 8003d90:	4620      	mov	r0, r4
 8003d92:	3d01      	subs	r5, #1
 8003d94:	f7ff fd73 	bl	800387e <prvCopyDataFromQueue>
 8003d98:	63a5      	str	r5, [r4, #56]	; 0x38
 8003d9a:	6923      	ldr	r3, [r4, #16]
 8003d9c:	b173      	cbz	r3, 8003dbc <xQueueReceive+0x110>
 8003d9e:	f104 0010 	add.w	r0, r4, #16
 8003da2:	f000 fc6b 	bl	800467c <xTaskRemoveFromEventList>
 8003da6:	b148      	cbz	r0, 8003dbc <xQueueReceive+0x110>
 8003da8:	f04f 23e0 	mov.w	r3, #3758153728	; 0xe000e000
 8003dac:	f04f 5280 	mov.w	r2, #268435456	; 0x10000000
 8003db0:	f8c3 2d04 	str.w	r2, [r3, #3332]	; 0xd04
 8003db4:	f3bf 8f4f 	dsb	sy
 8003db8:	f3bf 8f6f 	isb	sy
 8003dbc:	f000 ffba 	bl	8004d34 <vPortExitCritical>
 8003dc0:	2001      	movs	r0, #1
 8003dc2:	b004      	add	sp, #16
 8003dc4:	e8bd 81f0 	ldmia.w	sp!, {r4, r5, r6, r7, r8, pc}
 8003dc8:	4620      	mov	r0, r4
 8003dca:	f7ff fd6e 	bl	80038aa <prvUnlockQueue>
 8003dce:	f000 fb4b 	bl	8004468 <xTaskResumeAll>
 8003dd2:	e7d6      	b.n	8003d82 <xQueueReceive+0xd6>
 8003dd4:	4620      	mov	r0, r4
 8003dd6:	f7ff fd68 	bl	80038aa <prvUnlockQueue>
 8003dda:	f000 fb45 	bl	8004468 <xTaskResumeAll>
 8003dde:	4620      	mov	r0, r4
 8003de0:	f7ff fd0d 	bl	80037fe <prvIsQueueEmpty>
 8003de4:	2800      	cmp	r0, #0
 8003de6:	d0cc      	beq.n	8003d82 <xQueueReceive+0xd6>
 8003de8:	e792      	b.n	8003d10 <xQueueReceive+0x64>

08003dea <xQueueReceiveFromISR>:
 8003dea:	e92d 43f8 	stmdb	sp!, {r3, r4, r5, r6, r7, r8, r9, lr}
 8003dee:	4689      	mov	r9, r1
 8003df0:	4690      	mov	r8, r2
 8003df2:	4605      	mov	r5, r0
 8003df4:	b940      	cbnz	r0, 8003e08 <xQueueReceiveFromISR+0x1e>
 8003df6:	f04f 0350 	mov.w	r3, #80	; 0x50
 8003dfa:	f383 8811 	msr	BASEPRI, r3
 8003dfe:	f3bf 8f6f 	isb	sy
 8003e02:	f3bf 8f4f 	dsb	sy
 8003e06:	e7fe      	b.n	8003e06 <xQueueReceiveFromISR+0x1c>
 8003e08:	b951      	cbnz	r1, 8003e20 <xQueueReceiveFromISR+0x36>
 8003e0a:	6c03      	ldr	r3, [r0, #64]	; 0x40
 8003e0c:	b143      	cbz	r3, 8003e20 <xQueueReceiveFromISR+0x36>
 8003e0e:	f04f 0350 	mov.w	r3, #80	; 0x50
 8003e12:	f383 8811 	msr	BASEPRI, r3
 8003e16:	f3bf 8f6f 	isb	sy
 8003e1a:	f3bf 8f4f 	dsb	sy
 8003e1e:	e7fe      	b.n	8003e1e <xQueueReceiveFromISR+0x34>
 8003e20:	f001 f87e 	bl	8004f20 <vPortValidateInterruptPriority>
 8003e24:	f3ef 8711 	mrs	r7, BASEPRI
 8003e28:	f04f 0350 	mov.w	r3, #80	; 0x50
 8003e2c:	f383 8811 	msr	BASEPRI, r3
 8003e30:	f3bf 8f6f 	isb	sy
 8003e34:	f3bf 8f4f 	dsb	sy
 8003e38:	6bac      	ldr	r4, [r5, #56]	; 0x38
 8003e3a:	b31c      	cbz	r4, 8003e84 <xQueueReceiveFromISR+0x9a>
 8003e3c:	f895 6044 	ldrb.w	r6, [r5, #68]	; 0x44
 8003e40:	4649      	mov	r1, r9
 8003e42:	b276      	sxtb	r6, r6
 8003e44:	4628      	mov	r0, r5
 8003e46:	f7ff fd1a 	bl	800387e <prvCopyDataFromQueue>
 8003e4a:	3c01      	subs	r4, #1
 8003e4c:	1c73      	adds	r3, r6, #1
 8003e4e:	63ac      	str	r4, [r5, #56]	; 0x38
 8003e50:	d113      	bne.n	8003e7a <xQueueReceiveFromISR+0x90>
 8003e52:	692b      	ldr	r3, [r5, #16]
 8003e54:	b90b      	cbnz	r3, 8003e5a <xQueueReceiveFromISR+0x70>
 8003e56:	2001      	movs	r0, #1
 8003e58:	e00b      	b.n	8003e72 <xQueueReceiveFromISR+0x88>
 8003e5a:	f105 0010 	add.w	r0, r5, #16
 8003e5e:	f000 fc0d 	bl	800467c <xTaskRemoveFromEventList>
 8003e62:	2800      	cmp	r0, #0
 8003e64:	d0f7      	beq.n	8003e56 <xQueueReceiveFromISR+0x6c>
 8003e66:	f1b8 0f00 	cmp.w	r8, #0
 8003e6a:	d0f4      	beq.n	8003e56 <xQueueReceiveFromISR+0x6c>
 8003e6c:	2001      	movs	r0, #1
 8003e6e:	f8c8 0000 	str.w	r0, [r8]
 8003e72:	f387 8811 	msr	BASEPRI, r7
 8003e76:	e8bd 83f8 	ldmia.w	sp!, {r3, r4, r5, r6, r7, r8, r9, pc}
 8003e7a:	3601      	adds	r6, #1
 8003e7c:	b276      	sxtb	r6, r6
 8003e7e:	f885 6044 	strb.w	r6, [r5, #68]	; 0x44
 8003e82:	e7e8      	b.n	8003e56 <xQueueReceiveFromISR+0x6c>
 8003e84:	4620      	mov	r0, r4
 8003e86:	e7f4      	b.n	8003e72 <xQueueReceiveFromISR+0x88>

08003e88 <vQueueAddToRegistry>:
 8003e88:	b510      	push	{r4, lr}
 8003e8a:	4a07      	ldr	r2, [pc, #28]	; (8003ea8 <vQueueAddToRegistry+0x20>)
 8003e8c:	2300      	movs	r3, #0
 8003e8e:	f852 4033 	ldr.w	r4, [r2, r3, lsl #3]
 8003e92:	b92c      	cbnz	r4, 8003ea0 <vQueueAddToRegistry+0x18>
 8003e94:	f842 1033 	str.w	r1, [r2, r3, lsl #3]
 8003e98:	eb02 02c3 	add.w	r2, r2, r3, lsl #3
 8003e9c:	6050      	str	r0, [r2, #4]
 8003e9e:	bd10      	pop	{r4, pc}
 8003ea0:	3301      	adds	r3, #1
 8003ea2:	2b08      	cmp	r3, #8
 8003ea4:	d1f3      	bne.n	8003e8e <vQueueAddToRegistry+0x6>
 8003ea6:	e7fa      	b.n	8003e9e <vQueueAddToRegistry+0x16>
 8003ea8:	200008f0 	.word	0x200008f0

08003eac <vQueueWaitForMessageRestricted>:
 8003eac:	b570      	push	{r4, r5, r6, lr}
 8003eae:	4604      	mov	r4, r0
 8003eb0:	460d      	mov	r5, r1
 8003eb2:	4616      	mov	r6, r2
 8003eb4:	f000 ff1e 	bl	8004cf4 <vPortEnterCritical>
 8003eb8:	f894 3044 	ldrb.w	r3, [r4, #68]	; 0x44
 8003ebc:	2bff      	cmp	r3, #255	; 0xff
 8003ebe:	bf04      	itt	eq
 8003ec0:	2300      	moveq	r3, #0
 8003ec2:	f884 3044 	strbeq.w	r3, [r4, #68]	; 0x44
 8003ec6:	f894 3045 	ldrb.w	r3, [r4, #69]	; 0x45
 8003eca:	2bff      	cmp	r3, #255	; 0xff
 8003ecc:	bf04      	itt	eq
 8003ece:	2300      	moveq	r3, #0
 8003ed0:	f884 3045 	strbeq.w	r3, [r4, #69]	; 0x45
 8003ed4:	f000 ff2e 	bl	8004d34 <vPortExitCritical>
 8003ed8:	6ba3      	ldr	r3, [r4, #56]	; 0x38
 8003eda:	b92b      	cbnz	r3, 8003ee8 <vQueueWaitForMessageRestricted+0x3c>
 8003edc:	4632      	mov	r2, r6
 8003ede:	4629      	mov	r1, r5
 8003ee0:	f104 0024 	add.w	r0, r4, #36	; 0x24
 8003ee4:	f000 fbac 	bl	8004640 <vTaskPlaceOnEventListRestricted>
 8003ee8:	4620      	mov	r0, r4
 8003eea:	e8bd 4070 	ldmia.w	sp!, {r4, r5, r6, lr}
 8003eee:	f7ff bcdc 	b.w	80038aa <prvUnlockQueue>
	...

08003ef4 <prvAddNewTaskToReadyList>:
 8003ef4:	e92d 41f0 	stmdb	sp!, {r4, r5, r6, r7, r8, lr}
 8003ef8:	4604      	mov	r4, r0
 8003efa:	f000 fefb 	bl	8004cf4 <vPortEnterCritical>
 8003efe:	4b30      	ldr	r3, [pc, #192]	; (8003fc0 <prvAddNewTaskToReadyList+0xcc>)
 8003f00:	4e30      	ldr	r6, [pc, #192]	; (8003fc4 <prvAddNewTaskToReadyList+0xd0>)
 8003f02:	681a      	ldr	r2, [r3, #0]
 8003f04:	4f30      	ldr	r7, [pc, #192]	; (8003fc8 <prvAddNewTaskToReadyList+0xd4>)
 8003f06:	3201      	adds	r2, #1
 8003f08:	601a      	str	r2, [r3, #0]
 8003f0a:	6835      	ldr	r5, [r6, #0]
 8003f0c:	2d00      	cmp	r5, #0
 8003f0e:	d14b      	bne.n	8003fa8 <prvAddNewTaskToReadyList+0xb4>
 8003f10:	6034      	str	r4, [r6, #0]
 8003f12:	681b      	ldr	r3, [r3, #0]
 8003f14:	2b01      	cmp	r3, #1
 8003f16:	d11f      	bne.n	8003f58 <prvAddNewTaskToReadyList+0x64>
 8003f18:	46b8      	mov	r8, r7
 8003f1a:	4640      	mov	r0, r8
 8003f1c:	3501      	adds	r5, #1
 8003f1e:	f7ff fc2d 	bl	800377c <vListInitialise>
 8003f22:	2d38      	cmp	r5, #56	; 0x38
 8003f24:	f108 0814 	add.w	r8, r8, #20
 8003f28:	d1f7      	bne.n	8003f1a <prvAddNewTaskToReadyList+0x26>
 8003f2a:	f8df 80c4 	ldr.w	r8, [pc, #196]	; 8003ff0 <prvAddNewTaskToReadyList+0xfc>
 8003f2e:	4d27      	ldr	r5, [pc, #156]	; (8003fcc <prvAddNewTaskToReadyList+0xd8>)
 8003f30:	4640      	mov	r0, r8
 8003f32:	f7ff fc23 	bl	800377c <vListInitialise>
 8003f36:	4628      	mov	r0, r5
 8003f38:	f7ff fc20 	bl	800377c <vListInitialise>
 8003f3c:	4824      	ldr	r0, [pc, #144]	; (8003fd0 <prvAddNewTaskToReadyList+0xdc>)
 8003f3e:	f7ff fc1d 	bl	800377c <vListInitialise>
 8003f42:	4824      	ldr	r0, [pc, #144]	; (8003fd4 <prvAddNewTaskToReadyList+0xe0>)
 8003f44:	f7ff fc1a 	bl	800377c <vListInitialise>
 8003f48:	4823      	ldr	r0, [pc, #140]	; (8003fd8 <prvAddNewTaskToReadyList+0xe4>)
 8003f4a:	f7ff fc17 	bl	800377c <vListInitialise>
 8003f4e:	4b23      	ldr	r3, [pc, #140]	; (8003fdc <prvAddNewTaskToReadyList+0xe8>)
 8003f50:	f8c3 8000 	str.w	r8, [r3]
 8003f54:	4b22      	ldr	r3, [pc, #136]	; (8003fe0 <prvAddNewTaskToReadyList+0xec>)
 8003f56:	601d      	str	r5, [r3, #0]
 8003f58:	4a22      	ldr	r2, [pc, #136]	; (8003fe4 <prvAddNewTaskToReadyList+0xf0>)
 8003f5a:	6813      	ldr	r3, [r2, #0]
 8003f5c:	3301      	adds	r3, #1
 8003f5e:	6013      	str	r3, [r2, #0]
 8003f60:	4a21      	ldr	r2, [pc, #132]	; (8003fe8 <prvAddNewTaskToReadyList+0xf4>)
 8003f62:	6463      	str	r3, [r4, #68]	; 0x44
 8003f64:	6811      	ldr	r1, [r2, #0]
 8003f66:	6ae3      	ldr	r3, [r4, #44]	; 0x2c
 8003f68:	2014      	movs	r0, #20
 8003f6a:	428b      	cmp	r3, r1
 8003f6c:	fb00 7003 	mla	r0, r0, r3, r7
 8003f70:	f104 0104 	add.w	r1, r4, #4
 8003f74:	bf88      	it	hi
 8003f76:	6013      	strhi	r3, [r2, #0]
 8003f78:	f7ff fc0e 	bl	8003798 <vListInsertEnd>
 8003f7c:	f000 feda 	bl	8004d34 <vPortExitCritical>
 8003f80:	4b1a      	ldr	r3, [pc, #104]	; (8003fec <prvAddNewTaskToReadyList+0xf8>)
 8003f82:	681b      	ldr	r3, [r3, #0]
 8003f84:	b173      	cbz	r3, 8003fa4 <prvAddNewTaskToReadyList+0xb0>
 8003f86:	6833      	ldr	r3, [r6, #0]
 8003f88:	6ada      	ldr	r2, [r3, #44]	; 0x2c
 8003f8a:	6ae3      	ldr	r3, [r4, #44]	; 0x2c
 8003f8c:	429a      	cmp	r2, r3
 8003f8e:	d209      	bcs.n	8003fa4 <prvAddNewTaskToReadyList+0xb0>
 8003f90:	f04f 23e0 	mov.w	r3, #3758153728	; 0xe000e000
 8003f94:	f04f 5280 	mov.w	r2, #268435456	; 0x10000000
 8003f98:	f8c3 2d04 	str.w	r2, [r3, #3332]	; 0xd04
 8003f9c:	f3bf 8f4f 	dsb	sy
 8003fa0:	f3bf 8f6f 	isb	sy
 8003fa4:	e8bd 81f0 	ldmia.w	sp!, {r4, r5, r6, r7, r8, pc}
 8003fa8:	4b10      	ldr	r3, [pc, #64]	; (8003fec <prvAddNewTaskToReadyList+0xf8>)
 8003faa:	681a      	ldr	r2, [r3, #0]
 8003fac:	6ae3      	ldr	r3, [r4, #44]	; 0x2c
 8003fae:	2a00      	cmp	r2, #0
 8003fb0:	d1d2      	bne.n	8003f58 <prvAddNewTaskToReadyList+0x64>
 8003fb2:	6832      	ldr	r2, [r6, #0]
 8003fb4:	6ad2      	ldr	r2, [r2, #44]	; 0x2c
 8003fb6:	429a      	cmp	r2, r3
 8003fb8:	bf98      	it	ls
 8003fba:	6034      	strls	r4, [r6, #0]
 8003fbc:	e7cc      	b.n	8003f58 <prvAddNewTaskToReadyList+0x64>
 8003fbe:	bf00      	nop
 8003fc0:	20000d9c 	.word	0x20000d9c
 8003fc4:	20000930 	.word	0x20000930
 8003fc8:	2000093c 	.word	0x2000093c
 8003fcc:	20000dc4 	.word	0x20000dc4
 8003fd0:	20000de4 	.word	0x20000de4
 8003fd4:	20000e10 	.word	0x20000e10
 8003fd8:	20000dfc 	.word	0x20000dfc
 8003fdc:	20000934 	.word	0x20000934
 8003fe0:	20000938 	.word	0x20000938
 8003fe4:	20000da8 	.word	0x20000da8
 8003fe8:	20000dac 	.word	0x20000dac
 8003fec:	20000df8 	.word	0x20000df8
 8003ff0:	20000db0 	.word	0x20000db0

08003ff4 <prvAddCurrentTaskToDelayedList>:
 8003ff4:	b5f8      	push	{r3, r4, r5, r6, r7, lr}
 8003ff6:	4b15      	ldr	r3, [pc, #84]	; (800404c <prvAddCurrentTaskToDelayedList+0x58>)
 8003ff8:	4d15      	ldr	r5, [pc, #84]	; (8004050 <prvAddCurrentTaskToDelayedList+0x5c>)
 8003ffa:	681c      	ldr	r4, [r3, #0]
 8003ffc:	4606      	mov	r6, r0
 8003ffe:	6828      	ldr	r0, [r5, #0]
 8004000:	3004      	adds	r0, #4
 8004002:	460f      	mov	r7, r1
 8004004:	f7ff fbeb 	bl	80037de <uxListRemove>
 8004008:	1c73      	adds	r3, r6, #1
 800400a:	d107      	bne.n	800401c <prvAddCurrentTaskToDelayedList+0x28>
 800400c:	b137      	cbz	r7, 800401c <prvAddCurrentTaskToDelayedList+0x28>
 800400e:	6829      	ldr	r1, [r5, #0]
 8004010:	4810      	ldr	r0, [pc, #64]	; (8004054 <prvAddCurrentTaskToDelayedList+0x60>)
 8004012:	e8bd 40f8 	ldmia.w	sp!, {r3, r4, r5, r6, r7, lr}
 8004016:	3104      	adds	r1, #4
 8004018:	f7ff bbbe 	b.w	8003798 <vListInsertEnd>
 800401c:	682b      	ldr	r3, [r5, #0]
 800401e:	19a4      	adds	r4, r4, r6
 8004020:	605c      	str	r4, [r3, #4]
 8004022:	d307      	bcc.n	8004034 <prvAddCurrentTaskToDelayedList+0x40>
 8004024:	4b0c      	ldr	r3, [pc, #48]	; (8004058 <prvAddCurrentTaskToDelayedList+0x64>)
 8004026:	6818      	ldr	r0, [r3, #0]
 8004028:	6829      	ldr	r1, [r5, #0]
 800402a:	e8bd 40f8 	ldmia.w	sp!, {r3, r4, r5, r6, r7, lr}
 800402e:	3104      	adds	r1, #4
 8004030:	f7ff bbbe 	b.w	80037b0 <vListInsert>
 8004034:	4b09      	ldr	r3, [pc, #36]	; (800405c <prvAddCurrentTaskToDelayedList+0x68>)
 8004036:	6818      	ldr	r0, [r3, #0]
 8004038:	6829      	ldr	r1, [r5, #0]
 800403a:	3104      	adds	r1, #4
 800403c:	f7ff fbb8 	bl	80037b0 <vListInsert>
 8004040:	4b07      	ldr	r3, [pc, #28]	; (8004060 <prvAddCurrentTaskToDelayedList+0x6c>)
 8004042:	681a      	ldr	r2, [r3, #0]
 8004044:	42a2      	cmp	r2, r4
 8004046:	bf88      	it	hi
 8004048:	601c      	strhi	r4, [r3, #0]
 800404a:	bdf8      	pop	{r3, r4, r5, r6, r7, pc}
 800404c:	20000e24 	.word	0x20000e24
 8004050:	20000930 	.word	0x20000930
 8004054:	20000dfc 	.word	0x20000dfc
 8004058:	20000938 	.word	0x20000938
 800405c:	20000934 	.word	0x20000934
 8004060:	20000dd8 	.word	0x20000dd8

08004064 <prvResetNextTaskUnblockTime>:
 8004064:	4a06      	ldr	r2, [pc, #24]	; (8004080 <prvResetNextTaskUnblockTime+0x1c>)
 8004066:	6813      	ldr	r3, [r2, #0]
 8004068:	6819      	ldr	r1, [r3, #0]
 800406a:	4b06      	ldr	r3, [pc, #24]	; (8004084 <prvResetNextTaskUnblockTime+0x20>)
 800406c:	b919      	cbnz	r1, 8004076 <prvResetNextTaskUnblockTime+0x12>
 800406e:	f04f 32ff 	mov.w	r2, #4294967295
 8004072:	601a      	str	r2, [r3, #0]
 8004074:	4770      	bx	lr
 8004076:	6812      	ldr	r2, [r2, #0]
 8004078:	68d2      	ldr	r2, [r2, #12]
 800407a:	68d2      	ldr	r2, [r2, #12]
 800407c:	6852      	ldr	r2, [r2, #4]
 800407e:	e7f8      	b.n	8004072 <prvResetNextTaskUnblockTime+0xe>
 8004080:	20000934 	.word	0x20000934
 8004084:	20000dd8 	.word	0x20000dd8

08004088 <prvDeleteTCB>:
 8004088:	b510      	push	{r4, lr}
 800408a:	f890 3059 	ldrb.w	r3, [r0, #89]	; 0x59
 800408e:	4604      	mov	r4, r0
 8004090:	b93b      	cbnz	r3, 80040a2 <prvDeleteTCB+0x1a>
 8004092:	6b00      	ldr	r0, [r0, #48]	; 0x30
 8004094:	f001 f830 	bl	80050f8 <vPortFree>
 8004098:	4620      	mov	r0, r4
 800409a:	e8bd 4010 	ldmia.w	sp!, {r4, lr}
 800409e:	f001 b82b 	b.w	80050f8 <vPortFree>
 80040a2:	2b01      	cmp	r3, #1
 80040a4:	d0f9      	beq.n	800409a <prvDeleteTCB+0x12>
 80040a6:	2b02      	cmp	r3, #2
 80040a8:	d008      	beq.n	80040bc <prvDeleteTCB+0x34>
 80040aa:	f04f 0350 	mov.w	r3, #80	; 0x50
 80040ae:	f383 8811 	msr	BASEPRI, r3
 80040b2:	f3bf 8f6f 	isb	sy
 80040b6:	f3bf 8f4f 	dsb	sy
 80040ba:	e7fe      	b.n	80040ba <prvDeleteTCB+0x32>
 80040bc:	bd10      	pop	{r4, pc}
	...

080040c0 <prvIdleTask>:
 80040c0:	b580      	push	{r7, lr}
 80040c2:	4c13      	ldr	r4, [pc, #76]	; (8004110 <prvIdleTask+0x50>)
 80040c4:	4f13      	ldr	r7, [pc, #76]	; (8004114 <prvIdleTask+0x54>)
 80040c6:	4d14      	ldr	r5, [pc, #80]	; (8004118 <prvIdleTask+0x58>)
 80040c8:	6823      	ldr	r3, [r4, #0]
 80040ca:	b973      	cbnz	r3, 80040ea <prvIdleTask+0x2a>
 80040cc:	4b13      	ldr	r3, [pc, #76]	; (800411c <prvIdleTask+0x5c>)
 80040ce:	681b      	ldr	r3, [r3, #0]
 80040d0:	2b01      	cmp	r3, #1
 80040d2:	d9f8      	bls.n	80040c6 <prvIdleTask+0x6>
 80040d4:	f04f 23e0 	mov.w	r3, #3758153728	; 0xe000e000
 80040d8:	f04f 5280 	mov.w	r2, #268435456	; 0x10000000
 80040dc:	f8c3 2d04 	str.w	r2, [r3, #3332]	; 0xd04
 80040e0:	f3bf 8f4f 	dsb	sy
 80040e4:	f3bf 8f6f 	isb	sy
 80040e8:	e7ed      	b.n	80040c6 <prvIdleTask+0x6>
 80040ea:	f000 fe03 	bl	8004cf4 <vPortEnterCritical>
 80040ee:	68fb      	ldr	r3, [r7, #12]
 80040f0:	68de      	ldr	r6, [r3, #12]
 80040f2:	1d30      	adds	r0, r6, #4
 80040f4:	f7ff fb73 	bl	80037de <uxListRemove>
 80040f8:	682b      	ldr	r3, [r5, #0]
 80040fa:	3b01      	subs	r3, #1
 80040fc:	602b      	str	r3, [r5, #0]
 80040fe:	6823      	ldr	r3, [r4, #0]
 8004100:	3b01      	subs	r3, #1
 8004102:	6023      	str	r3, [r4, #0]
 8004104:	f000 fe16 	bl	8004d34 <vPortExitCritical>
 8004108:	4630      	mov	r0, r6
 800410a:	f7ff ffbd 	bl	8004088 <prvDeleteTCB>
 800410e:	e7db      	b.n	80040c8 <prvIdleTask+0x8>
 8004110:	20000da0 	.word	0x20000da0
 8004114:	20000e10 	.word	0x20000e10
 8004118:	20000d9c 	.word	0x20000d9c
 800411c:	2000093c 	.word	0x2000093c

08004120 <prvInitialiseNewTask.constprop.0>:
 8004120:	e92d 47f0 	stmdb	sp!, {r4, r5, r6, r7, r8, r9, sl, lr}
 8004124:	e9dd 8409 	ldrd	r8, r4, [sp, #36]	; 0x24
 8004128:	ea4f 0982 	mov.w	r9, r2, lsl #2
 800412c:	464a      	mov	r2, r9
 800412e:	4606      	mov	r6, r0
 8004130:	460d      	mov	r5, r1
 8004132:	6b20      	ldr	r0, [r4, #48]	; 0x30
 8004134:	21a5      	movs	r1, #165	; 0xa5
 8004136:	461f      	mov	r7, r3
 8004138:	f001 fa60 	bl	80055fc <memset>
 800413c:	6b23      	ldr	r3, [r4, #48]	; 0x30
 800413e:	f1a9 0904 	sub.w	r9, r9, #4
 8004142:	444b      	add	r3, r9
 8004144:	f023 0907 	bic.w	r9, r3, #7
 8004148:	b3a5      	cbz	r5, 80041b4 <prvInitialiseNewTask.constprop.0+0x94>
 800414a:	1e6b      	subs	r3, r5, #1
 800414c:	f104 0233 	add.w	r2, r4, #51	; 0x33
 8004150:	350f      	adds	r5, #15
 8004152:	f813 1f01 	ldrb.w	r1, [r3, #1]!
 8004156:	f802 1f01 	strb.w	r1, [r2, #1]!
 800415a:	b109      	cbz	r1, 8004160 <prvInitialiseNewTask.constprop.0+0x40>
 800415c:	42ab      	cmp	r3, r5
 800415e:	d1f8      	bne.n	8004152 <prvInitialiseNewTask.constprop.0+0x32>
 8004160:	2300      	movs	r3, #0
 8004162:	f884 3043 	strb.w	r3, [r4, #67]	; 0x43
 8004166:	9d08      	ldr	r5, [sp, #32]
 8004168:	2d37      	cmp	r5, #55	; 0x37
 800416a:	bf28      	it	cs
 800416c:	2537      	movcs	r5, #55	; 0x37
 800416e:	f04f 0a00 	mov.w	sl, #0
 8004172:	62e5      	str	r5, [r4, #44]	; 0x2c
 8004174:	64e5      	str	r5, [r4, #76]	; 0x4c
 8004176:	1d20      	adds	r0, r4, #4
 8004178:	f8c4 a050 	str.w	sl, [r4, #80]	; 0x50
 800417c:	f7ff fb09 	bl	8003792 <vListInitialiseItem>
 8004180:	f1c5 0538 	rsb	r5, r5, #56	; 0x38
 8004184:	f104 0018 	add.w	r0, r4, #24
 8004188:	f7ff fb03 	bl	8003792 <vListInitialiseItem>
 800418c:	f8c4 a054 	str.w	sl, [r4, #84]	; 0x54
 8004190:	6124      	str	r4, [r4, #16]
 8004192:	61a5      	str	r5, [r4, #24]
 8004194:	6264      	str	r4, [r4, #36]	; 0x24
 8004196:	f884 a058 	strb.w	sl, [r4, #88]	; 0x58
 800419a:	463a      	mov	r2, r7
 800419c:	4631      	mov	r1, r6
 800419e:	4648      	mov	r0, r9
 80041a0:	f000 fd7c 	bl	8004c9c <pxPortInitialiseStack>
 80041a4:	6020      	str	r0, [r4, #0]
 80041a6:	f1b8 0f00 	cmp.w	r8, #0
 80041aa:	d001      	beq.n	80041b0 <prvInitialiseNewTask.constprop.0+0x90>
 80041ac:	f8c8 4000 	str.w	r4, [r8]
 80041b0:	e8bd 87f0 	ldmia.w	sp!, {r4, r5, r6, r7, r8, r9, sl, pc}
 80041b4:	f884 5034 	strb.w	r5, [r4, #52]	; 0x34
 80041b8:	e7d5      	b.n	8004166 <prvInitialiseNewTask.constprop.0+0x46>

080041ba <xTaskCreateStatic>:
 80041ba:	b570      	push	{r4, r5, r6, lr}
 80041bc:	b086      	sub	sp, #24
 80041be:	e9dd 540b 	ldrd	r5, r4, [sp, #44]	; 0x2c
 80041c2:	b945      	cbnz	r5, 80041d6 <xTaskCreateStatic+0x1c>
 80041c4:	f04f 0350 	mov.w	r3, #80	; 0x50
 80041c8:	f383 8811 	msr	BASEPRI, r3
 80041cc:	f3bf 8f6f 	isb	sy
 80041d0:	f3bf 8f4f 	dsb	sy
 80041d4:	e7fe      	b.n	80041d4 <xTaskCreateStatic+0x1a>
 80041d6:	b944      	cbnz	r4, 80041ea <xTaskCreateStatic+0x30>
 80041d8:	f04f 0350 	mov.w	r3, #80	; 0x50
 80041dc:	f383 8811 	msr	BASEPRI, r3
 80041e0:	f3bf 8f6f 	isb	sy
 80041e4:	f3bf 8f4f 	dsb	sy
 80041e8:	e7fe      	b.n	80041e8 <xTaskCreateStatic+0x2e>
 80041ea:	265c      	movs	r6, #92	; 0x5c
 80041ec:	9605      	str	r6, [sp, #20]
 80041ee:	9e05      	ldr	r6, [sp, #20]
 80041f0:	2e5c      	cmp	r6, #92	; 0x5c
 80041f2:	d008      	beq.n	8004206 <xTaskCreateStatic+0x4c>
 80041f4:	f04f 0350 	mov.w	r3, #80	; 0x50
 80041f8:	f383 8811 	msr	BASEPRI, r3
 80041fc:	f3bf 8f6f 	isb	sy
 8004200:	f3bf 8f4f 	dsb	sy
 8004204:	e7fe      	b.n	8004204 <xTaskCreateStatic+0x4a>
 8004206:	6325      	str	r5, [r4, #48]	; 0x30
 8004208:	2502      	movs	r5, #2
 800420a:	f884 5059 	strb.w	r5, [r4, #89]	; 0x59
 800420e:	ad04      	add	r5, sp, #16
 8004210:	9501      	str	r5, [sp, #4]
 8004212:	9d0a      	ldr	r5, [sp, #40]	; 0x28
 8004214:	9402      	str	r4, [sp, #8]
 8004216:	9500      	str	r5, [sp, #0]
 8004218:	9e05      	ldr	r6, [sp, #20]
 800421a:	f7ff ff81 	bl	8004120 <prvInitialiseNewTask.constprop.0>
 800421e:	4620      	mov	r0, r4
 8004220:	f7ff fe68 	bl	8003ef4 <prvAddNewTaskToReadyList>
 8004224:	9804      	ldr	r0, [sp, #16]
 8004226:	b006      	add	sp, #24
 8004228:	bd70      	pop	{r4, r5, r6, pc}

0800422a <xTaskCreate>:
 800422a:	e92d 43f0 	stmdb	sp!, {r4, r5, r6, r7, r8, r9, lr}
 800422e:	4607      	mov	r7, r0
 8004230:	b085      	sub	sp, #20
 8004232:	0090      	lsls	r0, r2, #2
 8004234:	4688      	mov	r8, r1
 8004236:	4616      	mov	r6, r2
 8004238:	4699      	mov	r9, r3
 800423a:	f000 fec5 	bl	8004fc8 <pvPortMalloc>
 800423e:	4605      	mov	r5, r0
 8004240:	b1e8      	cbz	r0, 800427e <xTaskCreate+0x54>
 8004242:	205c      	movs	r0, #92	; 0x5c
 8004244:	f000 fec0 	bl	8004fc8 <pvPortMalloc>
 8004248:	4604      	mov	r4, r0
 800424a:	b1a8      	cbz	r0, 8004278 <xTaskCreate+0x4e>
 800424c:	2300      	movs	r3, #0
 800424e:	f880 3059 	strb.w	r3, [r0, #89]	; 0x59
 8004252:	9b0d      	ldr	r3, [sp, #52]	; 0x34
 8004254:	6305      	str	r5, [r0, #48]	; 0x30
 8004256:	9301      	str	r3, [sp, #4]
 8004258:	9b0c      	ldr	r3, [sp, #48]	; 0x30
 800425a:	9002      	str	r0, [sp, #8]
 800425c:	9300      	str	r3, [sp, #0]
 800425e:	4632      	mov	r2, r6
 8004260:	464b      	mov	r3, r9
 8004262:	4641      	mov	r1, r8
 8004264:	4638      	mov	r0, r7
 8004266:	f7ff ff5b 	bl	8004120 <prvInitialiseNewTask.constprop.0>
 800426a:	4620      	mov	r0, r4
 800426c:	f7ff fe42 	bl	8003ef4 <prvAddNewTaskToReadyList>
 8004270:	2001      	movs	r0, #1
 8004272:	b005      	add	sp, #20
 8004274:	e8bd 83f0 	ldmia.w	sp!, {r4, r5, r6, r7, r8, r9, pc}
 8004278:	4628      	mov	r0, r5
 800427a:	f000 ff3d 	bl	80050f8 <vPortFree>
 800427e:	f04f 30ff 	mov.w	r0, #4294967295
 8004282:	e7f6      	b.n	8004272 <xTaskCreate+0x48>

08004284 <vTaskStartScheduler>:
 8004284:	b510      	push	{r4, lr}
 8004286:	b088      	sub	sp, #32
 8004288:	2400      	movs	r4, #0
 800428a:	aa07      	add	r2, sp, #28
 800428c:	a906      	add	r1, sp, #24
 800428e:	a805      	add	r0, sp, #20
 8004290:	e9cd 4405 	strd	r4, r4, [sp, #20]
 8004294:	f7ff fa5a 	bl	800374c <vApplicationGetIdleTaskMemory>
 8004298:	9b05      	ldr	r3, [sp, #20]
 800429a:	9302      	str	r3, [sp, #8]
 800429c:	9b06      	ldr	r3, [sp, #24]
 800429e:	9a07      	ldr	r2, [sp, #28]
 80042a0:	4916      	ldr	r1, [pc, #88]	; (80042fc <vTaskStartScheduler+0x78>)
 80042a2:	4817      	ldr	r0, [pc, #92]	; (8004300 <vTaskStartScheduler+0x7c>)
 80042a4:	e9cd 4300 	strd	r4, r3, [sp]
 80042a8:	4623      	mov	r3, r4
 80042aa:	f7ff ff86 	bl	80041ba <xTaskCreateStatic>
 80042ae:	b318      	cbz	r0, 80042f8 <vTaskStartScheduler+0x74>
 80042b0:	f000 fb1c 	bl	80048ec <xTimerCreateTimerTask>
 80042b4:	2801      	cmp	r0, #1
 80042b6:	d114      	bne.n	80042e2 <vTaskStartScheduler+0x5e>
 80042b8:	f04f 0350 	mov.w	r3, #80	; 0x50
 80042bc:	f383 8811 	msr	BASEPRI, r3
 80042c0:	f3bf 8f6f 	isb	sy
 80042c4:	f3bf 8f4f 	dsb	sy
 80042c8:	4b0e      	ldr	r3, [pc, #56]	; (8004304 <vTaskStartScheduler+0x80>)
 80042ca:	f04f 32ff 	mov.w	r2, #4294967295
 80042ce:	601a      	str	r2, [r3, #0]
 80042d0:	4b0d      	ldr	r3, [pc, #52]	; (8004308 <vTaskStartScheduler+0x84>)
 80042d2:	6018      	str	r0, [r3, #0]
 80042d4:	4b0d      	ldr	r3, [pc, #52]	; (800430c <vTaskStartScheduler+0x88>)
 80042d6:	601c      	str	r4, [r3, #0]
 80042d8:	b008      	add	sp, #32
 80042da:	e8bd 4010 	ldmia.w	sp!, {r4, lr}
 80042de:	f000 bd99 	b.w	8004e14 <xPortStartScheduler>
 80042e2:	3001      	adds	r0, #1
 80042e4:	d108      	bne.n	80042f8 <vTaskStartScheduler+0x74>
 80042e6:	f04f 0350 	mov.w	r3, #80	; 0x50
 80042ea:	f383 8811 	msr	BASEPRI, r3
 80042ee:	f3bf 8f6f 	isb	sy
 80042f2:	f3bf 8f4f 	dsb	sy
 80042f6:	e7fe      	b.n	80042f6 <vTaskStartScheduler+0x72>
 80042f8:	b008      	add	sp, #32
 80042fa:	bd10      	pop	{r4, pc}
 80042fc:	080067fc 	.word	0x080067fc
 8004300:	080040c1 	.word	0x080040c1
 8004304:	20000dd8 	.word	0x20000dd8
 8004308:	20000df8 	.word	0x20000df8
 800430c:	20000e24 	.word	0x20000e24

08004310 <vTaskSuspendAll>:
 8004310:	4a02      	ldr	r2, [pc, #8]	; (800431c <vTaskSuspendAll+0xc>)
 8004312:	6813      	ldr	r3, [r2, #0]
 8004314:	3301      	adds	r3, #1
 8004316:	6013      	str	r3, [r2, #0]
 8004318:	4770      	bx	lr
 800431a:	bf00      	nop
 800431c:	20000da4 	.word	0x20000da4

08004320 <xTaskGetTickCount>:
 8004320:	4b01      	ldr	r3, [pc, #4]	; (8004328 <xTaskGetTickCount+0x8>)
 8004322:	6818      	ldr	r0, [r3, #0]
 8004324:	4770      	bx	lr
 8004326:	bf00      	nop
 8004328:	20000e24 	.word	0x20000e24

0800432c <xTaskGetTickCountFromISR>:
 800432c:	b508      	push	{r3, lr}
 800432e:	f000 fdf7 	bl	8004f20 <vPortValidateInterruptPriority>
 8004332:	4b01      	ldr	r3, [pc, #4]	; (8004338 <xTaskGetTickCountFromISR+0xc>)
 8004334:	6818      	ldr	r0, [r3, #0]
 8004336:	bd08      	pop	{r3, pc}
 8004338:	20000e24 	.word	0x20000e24

0800433c <xTaskIncrementTick>:
 800433c:	4b3f      	ldr	r3, [pc, #252]	; (800443c <xTaskIncrementTick+0x100>)
 800433e:	681b      	ldr	r3, [r3, #0]
 8004340:	e92d 4ff7 	stmdb	sp!, {r0, r1, r2, r4, r5, r6, r7, r8, r9, sl, fp, lr}
 8004344:	2b00      	cmp	r3, #0
 8004346:	d173      	bne.n	8004430 <xTaskIncrementTick+0xf4>
 8004348:	4b3d      	ldr	r3, [pc, #244]	; (8004440 <xTaskIncrementTick+0x104>)
 800434a:	681d      	ldr	r5, [r3, #0]
 800434c:	3501      	adds	r5, #1
 800434e:	601d      	str	r5, [r3, #0]
 8004350:	b9bd      	cbnz	r5, 8004382 <xTaskIncrementTick+0x46>
 8004352:	4b3c      	ldr	r3, [pc, #240]	; (8004444 <xTaskIncrementTick+0x108>)
 8004354:	681a      	ldr	r2, [r3, #0]
 8004356:	6812      	ldr	r2, [r2, #0]
 8004358:	b142      	cbz	r2, 800436c <xTaskIncrementTick+0x30>
 800435a:	f04f 0350 	mov.w	r3, #80	; 0x50
 800435e:	f383 8811 	msr	BASEPRI, r3
 8004362:	f3bf 8f6f 	isb	sy
 8004366:	f3bf 8f4f 	dsb	sy
 800436a:	e7fe      	b.n	800436a <xTaskIncrementTick+0x2e>
 800436c:	4a36      	ldr	r2, [pc, #216]	; (8004448 <xTaskIncrementTick+0x10c>)
 800436e:	6819      	ldr	r1, [r3, #0]
 8004370:	6810      	ldr	r0, [r2, #0]
 8004372:	6018      	str	r0, [r3, #0]
 8004374:	6011      	str	r1, [r2, #0]
 8004376:	4a35      	ldr	r2, [pc, #212]	; (800444c <xTaskIncrementTick+0x110>)
 8004378:	6813      	ldr	r3, [r2, #0]
 800437a:	3301      	adds	r3, #1
 800437c:	6013      	str	r3, [r2, #0]
 800437e:	f7ff fe71 	bl	8004064 <prvResetNextTaskUnblockTime>
 8004382:	4e33      	ldr	r6, [pc, #204]	; (8004450 <xTaskIncrementTick+0x114>)
 8004384:	4f33      	ldr	r7, [pc, #204]	; (8004454 <xTaskIncrementTick+0x118>)
 8004386:	6833      	ldr	r3, [r6, #0]
 8004388:	f8df 80d4 	ldr.w	r8, [pc, #212]	; 8004460 <xTaskIncrementTick+0x124>
 800438c:	429d      	cmp	r5, r3
 800438e:	f04f 0400 	mov.w	r4, #0
 8004392:	d211      	bcs.n	80043b8 <xTaskIncrementTick+0x7c>
 8004394:	f8d8 3000 	ldr.w	r3, [r8]
 8004398:	6adb      	ldr	r3, [r3, #44]	; 0x2c
 800439a:	2214      	movs	r2, #20
 800439c:	4353      	muls	r3, r2
 800439e:	58fb      	ldr	r3, [r7, r3]
 80043a0:	2b02      	cmp	r3, #2
 80043a2:	4b2d      	ldr	r3, [pc, #180]	; (8004458 <xTaskIncrementTick+0x11c>)
 80043a4:	681b      	ldr	r3, [r3, #0]
 80043a6:	bf28      	it	cs
 80043a8:	2401      	movcs	r4, #1
 80043aa:	2b00      	cmp	r3, #0
 80043ac:	bf18      	it	ne
 80043ae:	2401      	movne	r4, #1
 80043b0:	4620      	mov	r0, r4
 80043b2:	b003      	add	sp, #12
 80043b4:	e8bd 8ff0 	ldmia.w	sp!, {r4, r5, r6, r7, r8, r9, sl, fp, pc}
 80043b8:	f8df 9088 	ldr.w	r9, [pc, #136]	; 8004444 <xTaskIncrementTick+0x108>
 80043bc:	f8df a0a4 	ldr.w	sl, [pc, #164]	; 8004464 <xTaskIncrementTick+0x128>
 80043c0:	f8d9 3000 	ldr.w	r3, [r9]
 80043c4:	681b      	ldr	r3, [r3, #0]
 80043c6:	b91b      	cbnz	r3, 80043d0 <xTaskIncrementTick+0x94>
 80043c8:	f04f 33ff 	mov.w	r3, #4294967295
 80043cc:	6033      	str	r3, [r6, #0]
 80043ce:	e7e1      	b.n	8004394 <xTaskIncrementTick+0x58>
 80043d0:	f8d9 3000 	ldr.w	r3, [r9]
 80043d4:	68db      	ldr	r3, [r3, #12]
 80043d6:	f8d3 b00c 	ldr.w	fp, [r3, #12]
 80043da:	f8db 2004 	ldr.w	r2, [fp, #4]
 80043de:	4295      	cmp	r5, r2
 80043e0:	d201      	bcs.n	80043e6 <xTaskIncrementTick+0xaa>
 80043e2:	6032      	str	r2, [r6, #0]
 80043e4:	e7d6      	b.n	8004394 <xTaskIncrementTick+0x58>
 80043e6:	f10b 0104 	add.w	r1, fp, #4
 80043ea:	4608      	mov	r0, r1
 80043ec:	9101      	str	r1, [sp, #4]
 80043ee:	f7ff f9f6 	bl	80037de <uxListRemove>
 80043f2:	f8db 2028 	ldr.w	r2, [fp, #40]	; 0x28
 80043f6:	9901      	ldr	r1, [sp, #4]
 80043f8:	b122      	cbz	r2, 8004404 <xTaskIncrementTick+0xc8>
 80043fa:	f10b 0018 	add.w	r0, fp, #24
 80043fe:	f7ff f9ee 	bl	80037de <uxListRemove>
 8004402:	9901      	ldr	r1, [sp, #4]
 8004404:	f8db 002c 	ldr.w	r0, [fp, #44]	; 0x2c
 8004408:	f8da 2000 	ldr.w	r2, [sl]
 800440c:	2314      	movs	r3, #20
 800440e:	4290      	cmp	r0, r2
 8004410:	bf88      	it	hi
 8004412:	f8ca 0000 	strhi.w	r0, [sl]
 8004416:	fb03 7000 	mla	r0, r3, r0, r7
 800441a:	f7ff f9bd 	bl	8003798 <vListInsertEnd>
 800441e:	f8d8 1000 	ldr.w	r1, [r8]
 8004422:	f8db 202c 	ldr.w	r2, [fp, #44]	; 0x2c
 8004426:	6acb      	ldr	r3, [r1, #44]	; 0x2c
 8004428:	429a      	cmp	r2, r3
 800442a:	bf28      	it	cs
 800442c:	2401      	movcs	r4, #1
 800442e:	e7c7      	b.n	80043c0 <xTaskIncrementTick+0x84>
 8004430:	4a0a      	ldr	r2, [pc, #40]	; (800445c <xTaskIncrementTick+0x120>)
 8004432:	6813      	ldr	r3, [r2, #0]
 8004434:	3301      	adds	r3, #1
 8004436:	6013      	str	r3, [r2, #0]
 8004438:	2400      	movs	r4, #0
 800443a:	e7b9      	b.n	80043b0 <xTaskIncrementTick+0x74>
 800443c:	20000da4 	.word	0x20000da4
 8004440:	20000e24 	.word	0x20000e24
 8004444:	20000934 	.word	0x20000934
 8004448:	20000938 	.word	0x20000938
 800444c:	20000ddc 	.word	0x20000ddc
 8004450:	20000dd8 	.word	0x20000dd8
 8004454:	2000093c 	.word	0x2000093c
 8004458:	20000e28 	.word	0x20000e28
 800445c:	20000de0 	.word	0x20000de0
 8004460:	20000930 	.word	0x20000930
 8004464:	20000dac 	.word	0x20000dac

08004468 <xTaskResumeAll>:
 8004468:	b5f7      	push	{r0, r1, r2, r4, r5, r6, r7, lr}
 800446a:	4c31      	ldr	r4, [pc, #196]	; (8004530 <xTaskResumeAll+0xc8>)
 800446c:	6823      	ldr	r3, [r4, #0]
 800446e:	b943      	cbnz	r3, 8004482 <xTaskResumeAll+0x1a>
 8004470:	f04f 0350 	mov.w	r3, #80	; 0x50
 8004474:	f383 8811 	msr	BASEPRI, r3
 8004478:	f3bf 8f6f 	isb	sy
 800447c:	f3bf 8f4f 	dsb	sy
 8004480:	e7fe      	b.n	8004480 <xTaskResumeAll+0x18>
 8004482:	f000 fc37 	bl	8004cf4 <vPortEnterCritical>
 8004486:	6823      	ldr	r3, [r4, #0]
 8004488:	3b01      	subs	r3, #1
 800448a:	6023      	str	r3, [r4, #0]
 800448c:	6824      	ldr	r4, [r4, #0]
 800448e:	b12c      	cbz	r4, 800449c <xTaskResumeAll+0x34>
 8004490:	2400      	movs	r4, #0
 8004492:	f000 fc4f 	bl	8004d34 <vPortExitCritical>
 8004496:	4620      	mov	r0, r4
 8004498:	b003      	add	sp, #12
 800449a:	bdf0      	pop	{r4, r5, r6, r7, pc}
 800449c:	4b25      	ldr	r3, [pc, #148]	; (8004534 <xTaskResumeAll+0xcc>)
 800449e:	681b      	ldr	r3, [r3, #0]
 80044a0:	2b00      	cmp	r3, #0
 80044a2:	d0f5      	beq.n	8004490 <xTaskResumeAll+0x28>
 80044a4:	4d24      	ldr	r5, [pc, #144]	; (8004538 <xTaskResumeAll+0xd0>)
 80044a6:	4e25      	ldr	r6, [pc, #148]	; (800453c <xTaskResumeAll+0xd4>)
 80044a8:	4f25      	ldr	r7, [pc, #148]	; (8004540 <xTaskResumeAll+0xd8>)
 80044aa:	e01e      	b.n	80044ea <xTaskResumeAll+0x82>
 80044ac:	68eb      	ldr	r3, [r5, #12]
 80044ae:	68dc      	ldr	r4, [r3, #12]
 80044b0:	f104 0018 	add.w	r0, r4, #24
 80044b4:	f7ff f993 	bl	80037de <uxListRemove>
 80044b8:	1d21      	adds	r1, r4, #4
 80044ba:	4608      	mov	r0, r1
 80044bc:	9101      	str	r1, [sp, #4]
 80044be:	f7ff f98e 	bl	80037de <uxListRemove>
 80044c2:	6ae3      	ldr	r3, [r4, #44]	; 0x2c
 80044c4:	6832      	ldr	r2, [r6, #0]
 80044c6:	9901      	ldr	r1, [sp, #4]
 80044c8:	2014      	movs	r0, #20
 80044ca:	4293      	cmp	r3, r2
 80044cc:	fb00 7003 	mla	r0, r0, r3, r7
 80044d0:	bf88      	it	hi
 80044d2:	6033      	strhi	r3, [r6, #0]
 80044d4:	f7ff f960 	bl	8003798 <vListInsertEnd>
 80044d8:	4b1a      	ldr	r3, [pc, #104]	; (8004544 <xTaskResumeAll+0xdc>)
 80044da:	6ae2      	ldr	r2, [r4, #44]	; 0x2c
 80044dc:	681b      	ldr	r3, [r3, #0]
 80044de:	6adb      	ldr	r3, [r3, #44]	; 0x2c
 80044e0:	429a      	cmp	r2, r3
 80044e2:	d302      	bcc.n	80044ea <xTaskResumeAll+0x82>
 80044e4:	4b18      	ldr	r3, [pc, #96]	; (8004548 <xTaskResumeAll+0xe0>)
 80044e6:	2201      	movs	r2, #1
 80044e8:	601a      	str	r2, [r3, #0]
 80044ea:	682b      	ldr	r3, [r5, #0]
 80044ec:	2b00      	cmp	r3, #0
 80044ee:	d1dd      	bne.n	80044ac <xTaskResumeAll+0x44>
 80044f0:	b10c      	cbz	r4, 80044f6 <xTaskResumeAll+0x8e>
 80044f2:	f7ff fdb7 	bl	8004064 <prvResetNextTaskUnblockTime>
 80044f6:	4d15      	ldr	r5, [pc, #84]	; (800454c <xTaskResumeAll+0xe4>)
 80044f8:	682c      	ldr	r4, [r5, #0]
 80044fa:	b144      	cbz	r4, 800450e <xTaskResumeAll+0xa6>
 80044fc:	4e12      	ldr	r6, [pc, #72]	; (8004548 <xTaskResumeAll+0xe0>)
 80044fe:	2701      	movs	r7, #1
 8004500:	f7ff ff1c 	bl	800433c <xTaskIncrementTick>
 8004504:	b100      	cbz	r0, 8004508 <xTaskResumeAll+0xa0>
 8004506:	6037      	str	r7, [r6, #0]
 8004508:	3c01      	subs	r4, #1
 800450a:	d1f9      	bne.n	8004500 <xTaskResumeAll+0x98>
 800450c:	602c      	str	r4, [r5, #0]
 800450e:	4b0e      	ldr	r3, [pc, #56]	; (8004548 <xTaskResumeAll+0xe0>)
 8004510:	681b      	ldr	r3, [r3, #0]
 8004512:	2b00      	cmp	r3, #0
 8004514:	d0bc      	beq.n	8004490 <xTaskResumeAll+0x28>
 8004516:	f04f 23e0 	mov.w	r3, #3758153728	; 0xe000e000
 800451a:	f04f 5280 	mov.w	r2, #268435456	; 0x10000000
 800451e:	f8c3 2d04 	str.w	r2, [r3, #3332]	; 0xd04
 8004522:	f3bf 8f4f 	dsb	sy
 8004526:	f3bf 8f6f 	isb	sy
 800452a:	2401      	movs	r4, #1
 800452c:	e7b1      	b.n	8004492 <xTaskResumeAll+0x2a>
 800452e:	bf00      	nop
 8004530:	20000da4 	.word	0x20000da4
 8004534:	20000d9c 	.word	0x20000d9c
 8004538:	20000de4 	.word	0x20000de4
 800453c:	20000dac 	.word	0x20000dac
 8004540:	2000093c 	.word	0x2000093c
 8004544:	20000930 	.word	0x20000930
 8004548:	20000e28 	.word	0x20000e28
 800454c:	20000de0 	.word	0x20000de0

08004550 <vTaskDelay>:
 8004550:	b508      	push	{r3, lr}
 8004552:	b950      	cbnz	r0, 800456a <vTaskDelay+0x1a>
 8004554:	f04f 23e0 	mov.w	r3, #3758153728	; 0xe000e000
 8004558:	f04f 5280 	mov.w	r2, #268435456	; 0x10000000
 800455c:	f8c3 2d04 	str.w	r2, [r3, #3332]	; 0xd04
 8004560:	f3bf 8f4f 	dsb	sy
 8004564:	f3bf 8f6f 	isb	sy
 8004568:	bd08      	pop	{r3, pc}
 800456a:	4b0a      	ldr	r3, [pc, #40]	; (8004594 <vTaskDelay+0x44>)
 800456c:	6819      	ldr	r1, [r3, #0]
 800456e:	b141      	cbz	r1, 8004582 <vTaskDelay+0x32>
 8004570:	f04f 0350 	mov.w	r3, #80	; 0x50
 8004574:	f383 8811 	msr	BASEPRI, r3
 8004578:	f3bf 8f6f 	isb	sy
 800457c:	f3bf 8f4f 	dsb	sy
 8004580:	e7fe      	b.n	8004580 <vTaskDelay+0x30>
 8004582:	f7ff fec5 	bl	8004310 <vTaskSuspendAll>
 8004586:	f7ff fd35 	bl	8003ff4 <prvAddCurrentTaskToDelayedList>
 800458a:	f7ff ff6d 	bl	8004468 <xTaskResumeAll>
 800458e:	2800      	cmp	r0, #0
 8004590:	d0e0      	beq.n	8004554 <vTaskDelay+0x4>
 8004592:	e7e9      	b.n	8004568 <vTaskDelay+0x18>
 8004594:	20000da4 	.word	0x20000da4

08004598 <vTaskSwitchContext>:
 8004598:	4b17      	ldr	r3, [pc, #92]	; (80045f8 <vTaskSwitchContext+0x60>)
 800459a:	681a      	ldr	r2, [r3, #0]
 800459c:	4b17      	ldr	r3, [pc, #92]	; (80045fc <vTaskSwitchContext+0x64>)
 800459e:	b570      	push	{r4, r5, r6, lr}
 80045a0:	b112      	cbz	r2, 80045a8 <vTaskSwitchContext+0x10>
 80045a2:	2201      	movs	r2, #1
 80045a4:	601a      	str	r2, [r3, #0]
 80045a6:	bd70      	pop	{r4, r5, r6, pc}
 80045a8:	4d15      	ldr	r5, [pc, #84]	; (8004600 <vTaskSwitchContext+0x68>)
 80045aa:	601a      	str	r2, [r3, #0]
 80045ac:	682a      	ldr	r2, [r5, #0]
 80045ae:	4915      	ldr	r1, [pc, #84]	; (8004604 <vTaskSwitchContext+0x6c>)
 80045b0:	2614      	movs	r6, #20
 80045b2:	fb06 f302 	mul.w	r3, r6, r2
 80045b6:	18c8      	adds	r0, r1, r3
 80045b8:	58cc      	ldr	r4, [r1, r3]
 80045ba:	b18c      	cbz	r4, 80045e0 <vTaskSwitchContext+0x48>
 80045bc:	6844      	ldr	r4, [r0, #4]
 80045be:	3308      	adds	r3, #8
 80045c0:	6864      	ldr	r4, [r4, #4]
 80045c2:	6044      	str	r4, [r0, #4]
 80045c4:	440b      	add	r3, r1
 80045c6:	429c      	cmp	r4, r3
 80045c8:	bf04      	itt	eq
 80045ca:	6863      	ldreq	r3, [r4, #4]
 80045cc:	6043      	streq	r3, [r0, #4]
 80045ce:	2314      	movs	r3, #20
 80045d0:	fb03 1102 	mla	r1, r3, r2, r1
 80045d4:	684b      	ldr	r3, [r1, #4]
 80045d6:	68d9      	ldr	r1, [r3, #12]
 80045d8:	4b0b      	ldr	r3, [pc, #44]	; (8004608 <vTaskSwitchContext+0x70>)
 80045da:	6019      	str	r1, [r3, #0]
 80045dc:	602a      	str	r2, [r5, #0]
 80045de:	e7e2      	b.n	80045a6 <vTaskSwitchContext+0xe>
 80045e0:	b942      	cbnz	r2, 80045f4 <vTaskSwitchContext+0x5c>
 80045e2:	f04f 0350 	mov.w	r3, #80	; 0x50
 80045e6:	f383 8811 	msr	BASEPRI, r3
 80045ea:	f3bf 8f6f 	isb	sy
 80045ee:	f3bf 8f4f 	dsb	sy
 80045f2:	e7fe      	b.n	80045f2 <vTaskSwitchContext+0x5a>
 80045f4:	3a01      	subs	r2, #1
 80045f6:	e7dc      	b.n	80045b2 <vTaskSwitchContext+0x1a>
 80045f8:	20000da4 	.word	0x20000da4
 80045fc:	20000e28 	.word	0x20000e28
 8004600:	20000dac 	.word	0x20000dac
 8004604:	2000093c 	.word	0x2000093c
 8004608:	20000930 	.word	0x20000930

0800460c <vTaskPlaceOnEventList>:
 800460c:	b510      	push	{r4, lr}
 800460e:	460c      	mov	r4, r1
 8004610:	b940      	cbnz	r0, 8004624 <vTaskPlaceOnEventList+0x18>
 8004612:	f04f 0350 	mov.w	r3, #80	; 0x50
 8004616:	f383 8811 	msr	BASEPRI, r3
 800461a:	f3bf 8f6f 	isb	sy
 800461e:	f3bf 8f4f 	dsb	sy
 8004622:	e7fe      	b.n	8004622 <vTaskPlaceOnEventList+0x16>
 8004624:	4b05      	ldr	r3, [pc, #20]	; (800463c <vTaskPlaceOnEventList+0x30>)
 8004626:	6819      	ldr	r1, [r3, #0]
 8004628:	3118      	adds	r1, #24
 800462a:	f7ff f8c1 	bl	80037b0 <vListInsert>
 800462e:	4620      	mov	r0, r4
 8004630:	2101      	movs	r1, #1
 8004632:	e8bd 4010 	ldmia.w	sp!, {r4, lr}
 8004636:	f7ff bcdd 	b.w	8003ff4 <prvAddCurrentTaskToDelayedList>
 800463a:	bf00      	nop
 800463c:	20000930 	.word	0x20000930

08004640 <vTaskPlaceOnEventListRestricted>:
 8004640:	b538      	push	{r3, r4, r5, lr}
 8004642:	460d      	mov	r5, r1
 8004644:	4614      	mov	r4, r2
 8004646:	b940      	cbnz	r0, 800465a <vTaskPlaceOnEventListRestricted+0x1a>
 8004648:	f04f 0350 	mov.w	r3, #80	; 0x50
 800464c:	f383 8811 	msr	BASEPRI, r3
 8004650:	f3bf 8f6f 	isb	sy
 8004654:	f3bf 8f4f 	dsb	sy
 8004658:	e7fe      	b.n	8004658 <vTaskPlaceOnEventListRestricted+0x18>
 800465a:	4b07      	ldr	r3, [pc, #28]	; (8004678 <vTaskPlaceOnEventListRestricted+0x38>)
 800465c:	6819      	ldr	r1, [r3, #0]
 800465e:	3118      	adds	r1, #24
 8004660:	f7ff f89a 	bl	8003798 <vListInsertEnd>
 8004664:	2c00      	cmp	r4, #0
 8004666:	4621      	mov	r1, r4
 8004668:	bf0c      	ite	eq
 800466a:	4628      	moveq	r0, r5
 800466c:	f04f 30ff 	movne.w	r0, #4294967295
 8004670:	e8bd 4038 	ldmia.w	sp!, {r3, r4, r5, lr}
 8004674:	f7ff bcbe 	b.w	8003ff4 <prvAddCurrentTaskToDelayedList>
 8004678:	20000930 	.word	0x20000930

0800467c <xTaskRemoveFromEventList>:
 800467c:	68c3      	ldr	r3, [r0, #12]
 800467e:	b513      	push	{r0, r1, r4, lr}
 8004680:	68dc      	ldr	r4, [r3, #12]
 8004682:	b944      	cbnz	r4, 8004696 <xTaskRemoveFromEventList+0x1a>
 8004684:	f04f 0350 	mov.w	r3, #80	; 0x50
 8004688:	f383 8811 	msr	BASEPRI, r3
 800468c:	f3bf 8f6f 	isb	sy
 8004690:	f3bf 8f4f 	dsb	sy
 8004694:	e7fe      	b.n	8004694 <xTaskRemoveFromEventList+0x18>
 8004696:	f104 0118 	add.w	r1, r4, #24
 800469a:	4608      	mov	r0, r1
 800469c:	9101      	str	r1, [sp, #4]
 800469e:	f7ff f89e 	bl	80037de <uxListRemove>
 80046a2:	4b12      	ldr	r3, [pc, #72]	; (80046ec <xTaskRemoveFromEventList+0x70>)
 80046a4:	9901      	ldr	r1, [sp, #4]
 80046a6:	681b      	ldr	r3, [r3, #0]
 80046a8:	b9eb      	cbnz	r3, 80046e6 <xTaskRemoveFromEventList+0x6a>
 80046aa:	1d21      	adds	r1, r4, #4
 80046ac:	4608      	mov	r0, r1
 80046ae:	9101      	str	r1, [sp, #4]
 80046b0:	f7ff f895 	bl	80037de <uxListRemove>
 80046b4:	4a0e      	ldr	r2, [pc, #56]	; (80046f0 <xTaskRemoveFromEventList+0x74>)
 80046b6:	6ae3      	ldr	r3, [r4, #44]	; 0x2c
 80046b8:	6810      	ldr	r0, [r2, #0]
 80046ba:	9901      	ldr	r1, [sp, #4]
 80046bc:	4283      	cmp	r3, r0
 80046be:	bf88      	it	hi
 80046c0:	6013      	strhi	r3, [r2, #0]
 80046c2:	4a0c      	ldr	r2, [pc, #48]	; (80046f4 <xTaskRemoveFromEventList+0x78>)
 80046c4:	2014      	movs	r0, #20
 80046c6:	fb00 2003 	mla	r0, r0, r3, r2
 80046ca:	f7ff f865 	bl	8003798 <vListInsertEnd>
 80046ce:	4b0a      	ldr	r3, [pc, #40]	; (80046f8 <xTaskRemoveFromEventList+0x7c>)
 80046d0:	6ae2      	ldr	r2, [r4, #44]	; 0x2c
 80046d2:	681b      	ldr	r3, [r3, #0]
 80046d4:	6adb      	ldr	r3, [r3, #44]	; 0x2c
 80046d6:	429a      	cmp	r2, r3
 80046d8:	bf85      	ittet	hi
 80046da:	4b08      	ldrhi	r3, [pc, #32]	; (80046fc <xTaskRemoveFromEventList+0x80>)
 80046dc:	2001      	movhi	r0, #1
 80046de:	2000      	movls	r0, #0
 80046e0:	6018      	strhi	r0, [r3, #0]
 80046e2:	b002      	add	sp, #8
 80046e4:	bd10      	pop	{r4, pc}
 80046e6:	4806      	ldr	r0, [pc, #24]	; (8004700 <xTaskRemoveFromEventList+0x84>)
 80046e8:	e7ef      	b.n	80046ca <xTaskRemoveFromEventList+0x4e>
 80046ea:	bf00      	nop
 80046ec:	20000da4 	.word	0x20000da4
 80046f0:	20000dac 	.word	0x20000dac
 80046f4:	2000093c 	.word	0x2000093c
 80046f8:	20000930 	.word	0x20000930
 80046fc:	20000e28 	.word	0x20000e28
 8004700:	20000de4 	.word	0x20000de4

08004704 <vTaskInternalSetTimeOutState>:
 8004704:	4b03      	ldr	r3, [pc, #12]	; (8004714 <vTaskInternalSetTimeOutState+0x10>)
 8004706:	681b      	ldr	r3, [r3, #0]
 8004708:	6003      	str	r3, [r0, #0]
 800470a:	4b03      	ldr	r3, [pc, #12]	; (8004718 <vTaskInternalSetTimeOutState+0x14>)
 800470c:	681b      	ldr	r3, [r3, #0]
 800470e:	6043      	str	r3, [r0, #4]
 8004710:	4770      	bx	lr
 8004712:	bf00      	nop
 8004714:	20000ddc 	.word	0x20000ddc
 8004718:	20000e24 	.word	0x20000e24

0800471c <xTaskCheckForTimeOut>:
 800471c:	b570      	push	{r4, r5, r6, lr}
 800471e:	460c      	mov	r4, r1
 8004720:	4605      	mov	r5, r0
 8004722:	b940      	cbnz	r0, 8004736 <xTaskCheckForTimeOut+0x1a>
 8004724:	f04f 0350 	mov.w	r3, #80	; 0x50
 8004728:	f383 8811 	msr	BASEPRI, r3
 800472c:	f3bf 8f6f 	isb	sy
 8004730:	f3bf 8f4f 	dsb	sy
 8004734:	e7fe      	b.n	8004734 <xTaskCheckForTimeOut+0x18>
 8004736:	b941      	cbnz	r1, 800474a <xTaskCheckForTimeOut+0x2e>
 8004738:	f04f 0350 	mov.w	r3, #80	; 0x50
 800473c:	f383 8811 	msr	BASEPRI, r3
 8004740:	f3bf 8f6f 	isb	sy
 8004744:	f3bf 8f4f 	dsb	sy
 8004748:	e7fe      	b.n	8004748 <xTaskCheckForTimeOut+0x2c>
 800474a:	f000 fad3 	bl	8004cf4 <vPortEnterCritical>
 800474e:	4b0f      	ldr	r3, [pc, #60]	; (800478c <xTaskCheckForTimeOut+0x70>)
 8004750:	6819      	ldr	r1, [r3, #0]
 8004752:	6823      	ldr	r3, [r4, #0]
 8004754:	1c5a      	adds	r2, r3, #1
 8004756:	d010      	beq.n	800477a <xTaskCheckForTimeOut+0x5e>
 8004758:	480d      	ldr	r0, [pc, #52]	; (8004790 <xTaskCheckForTimeOut+0x74>)
 800475a:	682e      	ldr	r6, [r5, #0]
 800475c:	6800      	ldr	r0, [r0, #0]
 800475e:	686a      	ldr	r2, [r5, #4]
 8004760:	4286      	cmp	r6, r0
 8004762:	d001      	beq.n	8004768 <xTaskCheckForTimeOut+0x4c>
 8004764:	428a      	cmp	r2, r1
 8004766:	d90f      	bls.n	8004788 <xTaskCheckForTimeOut+0x6c>
 8004768:	1a88      	subs	r0, r1, r2
 800476a:	4283      	cmp	r3, r0
 800476c:	d90a      	bls.n	8004784 <xTaskCheckForTimeOut+0x68>
 800476e:	1a5b      	subs	r3, r3, r1
 8004770:	4413      	add	r3, r2
 8004772:	6023      	str	r3, [r4, #0]
 8004774:	4628      	mov	r0, r5
 8004776:	f7ff ffc5 	bl	8004704 <vTaskInternalSetTimeOutState>
 800477a:	2400      	movs	r4, #0
 800477c:	f000 fada 	bl	8004d34 <vPortExitCritical>
 8004780:	4620      	mov	r0, r4
 8004782:	bd70      	pop	{r4, r5, r6, pc}
 8004784:	2300      	movs	r3, #0
 8004786:	6023      	str	r3, [r4, #0]
 8004788:	2401      	movs	r4, #1
 800478a:	e7f7      	b.n	800477c <xTaskCheckForTimeOut+0x60>
 800478c:	20000e24 	.word	0x20000e24
 8004790:	20000ddc 	.word	0x20000ddc

08004794 <vTaskMissedYield>:
 8004794:	4b01      	ldr	r3, [pc, #4]	; (800479c <vTaskMissedYield+0x8>)
 8004796:	2201      	movs	r2, #1
 8004798:	601a      	str	r2, [r3, #0]
 800479a:	4770      	bx	lr
 800479c:	20000e28 	.word	0x20000e28

080047a0 <xTaskGetSchedulerState>:
 80047a0:	4b05      	ldr	r3, [pc, #20]	; (80047b8 <xTaskGetSchedulerState+0x18>)
 80047a2:	681b      	ldr	r3, [r3, #0]
 80047a4:	b133      	cbz	r3, 80047b4 <xTaskGetSchedulerState+0x14>
 80047a6:	4b05      	ldr	r3, [pc, #20]	; (80047bc <xTaskGetSchedulerState+0x1c>)
 80047a8:	6818      	ldr	r0, [r3, #0]
 80047aa:	fab0 f080 	clz	r0, r0
 80047ae:	0940      	lsrs	r0, r0, #5
 80047b0:	0040      	lsls	r0, r0, #1
 80047b2:	4770      	bx	lr
 80047b4:	2001      	movs	r0, #1
 80047b6:	4770      	bx	lr
 80047b8:	20000df8 	.word	0x20000df8
 80047bc:	20000da4 	.word	0x20000da4

080047c0 <xTaskPriorityDisinherit>:
 80047c0:	b513      	push	{r0, r1, r4, lr}
 80047c2:	b910      	cbnz	r0, 80047ca <xTaskPriorityDisinherit+0xa>
 80047c4:	2000      	movs	r0, #0
 80047c6:	b002      	add	sp, #8
 80047c8:	bd10      	pop	{r4, pc}
 80047ca:	4b1c      	ldr	r3, [pc, #112]	; (800483c <xTaskPriorityDisinherit+0x7c>)
 80047cc:	681c      	ldr	r4, [r3, #0]
 80047ce:	4284      	cmp	r4, r0
 80047d0:	d008      	beq.n	80047e4 <xTaskPriorityDisinherit+0x24>
 80047d2:	f04f 0350 	mov.w	r3, #80	; 0x50
 80047d6:	f383 8811 	msr	BASEPRI, r3
 80047da:	f3bf 8f6f 	isb	sy
 80047de:	f3bf 8f4f 	dsb	sy
 80047e2:	e7fe      	b.n	80047e2 <xTaskPriorityDisinherit+0x22>
 80047e4:	6d23      	ldr	r3, [r4, #80]	; 0x50
 80047e6:	b943      	cbnz	r3, 80047fa <xTaskPriorityDisinherit+0x3a>
 80047e8:	f04f 0350 	mov.w	r3, #80	; 0x50
 80047ec:	f383 8811 	msr	BASEPRI, r3
 80047f0:	f3bf 8f6f 	isb	sy
 80047f4:	f3bf 8f4f 	dsb	sy
 80047f8:	e7fe      	b.n	80047f8 <xTaskPriorityDisinherit+0x38>
 80047fa:	6ae1      	ldr	r1, [r4, #44]	; 0x2c
 80047fc:	6ce2      	ldr	r2, [r4, #76]	; 0x4c
 80047fe:	3b01      	subs	r3, #1
 8004800:	4291      	cmp	r1, r2
 8004802:	6523      	str	r3, [r4, #80]	; 0x50
 8004804:	d0de      	beq.n	80047c4 <xTaskPriorityDisinherit+0x4>
 8004806:	2b00      	cmp	r3, #0
 8004808:	d1dc      	bne.n	80047c4 <xTaskPriorityDisinherit+0x4>
 800480a:	1d21      	adds	r1, r4, #4
 800480c:	4608      	mov	r0, r1
 800480e:	9101      	str	r1, [sp, #4]
 8004810:	f7fe ffe5 	bl	80037de <uxListRemove>
 8004814:	6ce3      	ldr	r3, [r4, #76]	; 0x4c
 8004816:	9901      	ldr	r1, [sp, #4]
 8004818:	62e3      	str	r3, [r4, #44]	; 0x2c
 800481a:	f1c3 0238 	rsb	r2, r3, #56	; 0x38
 800481e:	61a2      	str	r2, [r4, #24]
 8004820:	4a07      	ldr	r2, [pc, #28]	; (8004840 <xTaskPriorityDisinherit+0x80>)
 8004822:	6810      	ldr	r0, [r2, #0]
 8004824:	4283      	cmp	r3, r0
 8004826:	bf88      	it	hi
 8004828:	6013      	strhi	r3, [r2, #0]
 800482a:	4a06      	ldr	r2, [pc, #24]	; (8004844 <xTaskPriorityDisinherit+0x84>)
 800482c:	2014      	movs	r0, #20
 800482e:	fb00 2003 	mla	r0, r0, r3, r2
 8004832:	f7fe ffb1 	bl	8003798 <vListInsertEnd>
 8004836:	2001      	movs	r0, #1
 8004838:	e7c5      	b.n	80047c6 <xTaskPriorityDisinherit+0x6>
 800483a:	bf00      	nop
 800483c:	20000930 	.word	0x20000930
 8004840:	20000dac 	.word	0x20000dac
 8004844:	2000093c 	.word	0x2000093c

08004848 <prvCheckForValidListAndQueue>:
 8004848:	b5f7      	push	{r0, r1, r2, r4, r5, r6, r7, lr}
 800484a:	4c11      	ldr	r4, [pc, #68]	; (8004890 <prvCheckForValidListAndQueue+0x48>)
 800484c:	f000 fa52 	bl	8004cf4 <vPortEnterCritical>
 8004850:	6825      	ldr	r5, [r4, #0]
 8004852:	b9bd      	cbnz	r5, 8004884 <prvCheckForValidListAndQueue+0x3c>
 8004854:	4f0f      	ldr	r7, [pc, #60]	; (8004894 <prvCheckForValidListAndQueue+0x4c>)
 8004856:	4e10      	ldr	r6, [pc, #64]	; (8004898 <prvCheckForValidListAndQueue+0x50>)
 8004858:	4638      	mov	r0, r7
 800485a:	f7fe ff8f 	bl	800377c <vListInitialise>
 800485e:	4630      	mov	r0, r6
 8004860:	f7fe ff8c 	bl	800377c <vListInitialise>
 8004864:	4b0d      	ldr	r3, [pc, #52]	; (800489c <prvCheckForValidListAndQueue+0x54>)
 8004866:	4a0e      	ldr	r2, [pc, #56]	; (80048a0 <prvCheckForValidListAndQueue+0x58>)
 8004868:	601f      	str	r7, [r3, #0]
 800486a:	4b0e      	ldr	r3, [pc, #56]	; (80048a4 <prvCheckForValidListAndQueue+0x5c>)
 800486c:	2110      	movs	r1, #16
 800486e:	601e      	str	r6, [r3, #0]
 8004870:	200a      	movs	r0, #10
 8004872:	4b0d      	ldr	r3, [pc, #52]	; (80048a8 <prvCheckForValidListAndQueue+0x60>)
 8004874:	9500      	str	r5, [sp, #0]
 8004876:	f7ff f88f 	bl	8003998 <xQueueGenericCreateStatic>
 800487a:	6020      	str	r0, [r4, #0]
 800487c:	b110      	cbz	r0, 8004884 <prvCheckForValidListAndQueue+0x3c>
 800487e:	490b      	ldr	r1, [pc, #44]	; (80048ac <prvCheckForValidListAndQueue+0x64>)
 8004880:	f7ff fb02 	bl	8003e88 <vQueueAddToRegistry>
 8004884:	b003      	add	sp, #12
 8004886:	e8bd 40f0 	ldmia.w	sp!, {r4, r5, r6, r7, lr}
 800488a:	f000 ba53 	b.w	8004d34 <vPortExitCritical>
 800488e:	bf00      	nop
 8004890:	20000f50 	.word	0x20000f50
 8004894:	20000ed4 	.word	0x20000ed4
 8004898:	20000ee8 	.word	0x20000ee8
 800489c:	20000e2c 	.word	0x20000e2c
 80048a0:	20000e34 	.word	0x20000e34
 80048a4:	20000e30 	.word	0x20000e30
 80048a8:	20000f00 	.word	0x20000f00
 80048ac:	08006801 	.word	0x08006801

080048b0 <prvInsertTimerInActiveList>:
 80048b0:	4291      	cmp	r1, r2
 80048b2:	b508      	push	{r3, lr}
 80048b4:	6041      	str	r1, [r0, #4]
 80048b6:	6100      	str	r0, [r0, #16]
 80048b8:	d80a      	bhi.n	80048d0 <prvInsertTimerInActiveList+0x20>
 80048ba:	1ad3      	subs	r3, r2, r3
 80048bc:	6982      	ldr	r2, [r0, #24]
 80048be:	4293      	cmp	r3, r2
 80048c0:	d20d      	bcs.n	80048de <prvInsertTimerInActiveList+0x2e>
 80048c2:	4b08      	ldr	r3, [pc, #32]	; (80048e4 <prvInsertTimerInActiveList+0x34>)
 80048c4:	1d01      	adds	r1, r0, #4
 80048c6:	6818      	ldr	r0, [r3, #0]
 80048c8:	f7fe ff72 	bl	80037b0 <vListInsert>
 80048cc:	2000      	movs	r0, #0
 80048ce:	bd08      	pop	{r3, pc}
 80048d0:	429a      	cmp	r2, r3
 80048d2:	d201      	bcs.n	80048d8 <prvInsertTimerInActiveList+0x28>
 80048d4:	4299      	cmp	r1, r3
 80048d6:	d202      	bcs.n	80048de <prvInsertTimerInActiveList+0x2e>
 80048d8:	4b03      	ldr	r3, [pc, #12]	; (80048e8 <prvInsertTimerInActiveList+0x38>)
 80048da:	1d01      	adds	r1, r0, #4
 80048dc:	e7f3      	b.n	80048c6 <prvInsertTimerInActiveList+0x16>
 80048de:	2001      	movs	r0, #1
 80048e0:	e7f5      	b.n	80048ce <prvInsertTimerInActiveList+0x1e>
 80048e2:	bf00      	nop
 80048e4:	20000e30 	.word	0x20000e30
 80048e8:	20000e2c 	.word	0x20000e2c

080048ec <xTimerCreateTimerTask>:
 80048ec:	b510      	push	{r4, lr}
 80048ee:	b088      	sub	sp, #32
 80048f0:	f7ff ffaa 	bl	8004848 <prvCheckForValidListAndQueue>
 80048f4:	4b12      	ldr	r3, [pc, #72]	; (8004940 <xTimerCreateTimerTask+0x54>)
 80048f6:	681b      	ldr	r3, [r3, #0]
 80048f8:	b1b3      	cbz	r3, 8004928 <xTimerCreateTimerTask+0x3c>
 80048fa:	2400      	movs	r4, #0
 80048fc:	aa07      	add	r2, sp, #28
 80048fe:	a906      	add	r1, sp, #24
 8004900:	a805      	add	r0, sp, #20
 8004902:	e9cd 4405 	strd	r4, r4, [sp, #20]
 8004906:	f7fe ff2d 	bl	8003764 <vApplicationGetTimerTaskMemory>
 800490a:	9b05      	ldr	r3, [sp, #20]
 800490c:	9302      	str	r3, [sp, #8]
 800490e:	9b06      	ldr	r3, [sp, #24]
 8004910:	9301      	str	r3, [sp, #4]
 8004912:	2302      	movs	r3, #2
 8004914:	9300      	str	r3, [sp, #0]
 8004916:	9a07      	ldr	r2, [sp, #28]
 8004918:	490a      	ldr	r1, [pc, #40]	; (8004944 <xTimerCreateTimerTask+0x58>)
 800491a:	480b      	ldr	r0, [pc, #44]	; (8004948 <xTimerCreateTimerTask+0x5c>)
 800491c:	4623      	mov	r3, r4
 800491e:	f7ff fc4c 	bl	80041ba <xTaskCreateStatic>
 8004922:	4b0a      	ldr	r3, [pc, #40]	; (800494c <xTimerCreateTimerTask+0x60>)
 8004924:	6018      	str	r0, [r3, #0]
 8004926:	b940      	cbnz	r0, 800493a <xTimerCreateTimerTask+0x4e>
 8004928:	f04f 0350 	mov.w	r3, #80	; 0x50
 800492c:	f383 8811 	msr	BASEPRI, r3
 8004930:	f3bf 8f6f 	isb	sy
 8004934:	f3bf 8f4f 	dsb	sy
 8004938:	e7fe      	b.n	8004938 <xTimerCreateTimerTask+0x4c>
 800493a:	2001      	movs	r0, #1
 800493c:	b008      	add	sp, #32
 800493e:	bd10      	pop	{r4, pc}
 8004940:	20000f50 	.word	0x20000f50
 8004944:	08006806 	.word	0x08006806
 8004948:	08004a55 	.word	0x08004a55
 800494c:	20000f54 	.word	0x20000f54

08004950 <xTimerGenericCommand>:
 8004950:	b57f      	push	{r0, r1, r2, r3, r4, r5, r6, lr}
 8004952:	4616      	mov	r6, r2
 8004954:	4604      	mov	r4, r0
 8004956:	461a      	mov	r2, r3
 8004958:	b940      	cbnz	r0, 800496c <xTimerGenericCommand+0x1c>
 800495a:	f04f 0350 	mov.w	r3, #80	; 0x50
 800495e:	f383 8811 	msr	BASEPRI, r3
 8004962:	f3bf 8f6f 	isb	sy
 8004966:	f3bf 8f4f 	dsb	sy
 800496a:	e7fe      	b.n	800496a <xTimerGenericCommand+0x1a>
 800496c:	4d0d      	ldr	r5, [pc, #52]	; (80049a4 <xTimerGenericCommand+0x54>)
 800496e:	6828      	ldr	r0, [r5, #0]
 8004970:	b180      	cbz	r0, 8004994 <xTimerGenericCommand+0x44>
 8004972:	2905      	cmp	r1, #5
 8004974:	e9cd 1600 	strd	r1, r6, [sp]
 8004978:	9402      	str	r4, [sp, #8]
 800497a:	dc0d      	bgt.n	8004998 <xTimerGenericCommand+0x48>
 800497c:	f7ff ff10 	bl	80047a0 <xTaskGetSchedulerState>
 8004980:	2300      	movs	r3, #0
 8004982:	2802      	cmp	r0, #2
 8004984:	bf08      	it	eq
 8004986:	9a08      	ldreq	r2, [sp, #32]
 8004988:	6828      	ldr	r0, [r5, #0]
 800498a:	bf18      	it	ne
 800498c:	461a      	movne	r2, r3
 800498e:	4669      	mov	r1, sp
 8004990:	f7ff f877 	bl	8003a82 <xQueueGenericSend>
 8004994:	b004      	add	sp, #16
 8004996:	bd70      	pop	{r4, r5, r6, pc}
 8004998:	2300      	movs	r3, #0
 800499a:	4669      	mov	r1, sp
 800499c:	f7ff f924 	bl	8003be8 <xQueueGenericSendFromISR>
 80049a0:	e7f8      	b.n	8004994 <xTimerGenericCommand+0x44>
 80049a2:	bf00      	nop
 80049a4:	20000f50 	.word	0x20000f50

080049a8 <prvSampleTimeNow>:
 80049a8:	e92d 47ff 	stmdb	sp!, {r0, r1, r2, r3, r4, r5, r6, r7, r8, r9, sl, lr}
 80049ac:	f8df 80a0 	ldr.w	r8, [pc, #160]	; 8004a50 <prvSampleTimeNow+0xa8>
 80049b0:	4606      	mov	r6, r0
 80049b2:	f7ff fcb5 	bl	8004320 <xTaskGetTickCount>
 80049b6:	f8d8 3000 	ldr.w	r3, [r8]
 80049ba:	4283      	cmp	r3, r0
 80049bc:	4605      	mov	r5, r0
 80049be:	d90b      	bls.n	80049d8 <prvSampleTimeNow+0x30>
 80049c0:	4f21      	ldr	r7, [pc, #132]	; (8004a48 <prvSampleTimeNow+0xa0>)
 80049c2:	f04f 0900 	mov.w	r9, #0
 80049c6:	683b      	ldr	r3, [r7, #0]
 80049c8:	681a      	ldr	r2, [r3, #0]
 80049ca:	b96a      	cbnz	r2, 80049e8 <prvSampleTimeNow+0x40>
 80049cc:	4a1f      	ldr	r2, [pc, #124]	; (8004a4c <prvSampleTimeNow+0xa4>)
 80049ce:	6811      	ldr	r1, [r2, #0]
 80049d0:	6039      	str	r1, [r7, #0]
 80049d2:	6013      	str	r3, [r2, #0]
 80049d4:	2301      	movs	r3, #1
 80049d6:	e000      	b.n	80049da <prvSampleTimeNow+0x32>
 80049d8:	2300      	movs	r3, #0
 80049da:	4628      	mov	r0, r5
 80049dc:	6033      	str	r3, [r6, #0]
 80049de:	f8c8 5000 	str.w	r5, [r8]
 80049e2:	b004      	add	sp, #16
 80049e4:	e8bd 87f0 	ldmia.w	sp!, {r4, r5, r6, r7, r8, r9, sl, pc}
 80049e8:	68db      	ldr	r3, [r3, #12]
 80049ea:	68dc      	ldr	r4, [r3, #12]
 80049ec:	f8d3 a000 	ldr.w	sl, [r3]
 80049f0:	1d21      	adds	r1, r4, #4
 80049f2:	4608      	mov	r0, r1
 80049f4:	9103      	str	r1, [sp, #12]
 80049f6:	f7fe fef2 	bl	80037de <uxListRemove>
 80049fa:	6a23      	ldr	r3, [r4, #32]
 80049fc:	4620      	mov	r0, r4
 80049fe:	4798      	blx	r3
 8004a00:	f894 3028 	ldrb.w	r3, [r4, #40]	; 0x28
 8004a04:	9903      	ldr	r1, [sp, #12]
 8004a06:	f013 0f04 	tst.w	r3, #4
 8004a0a:	d0dc      	beq.n	80049c6 <prvSampleTimeNow+0x1e>
 8004a0c:	69a3      	ldr	r3, [r4, #24]
 8004a0e:	4453      	add	r3, sl
 8004a10:	459a      	cmp	sl, r3
 8004a12:	d205      	bcs.n	8004a20 <prvSampleTimeNow+0x78>
 8004a14:	6838      	ldr	r0, [r7, #0]
 8004a16:	6063      	str	r3, [r4, #4]
 8004a18:	6124      	str	r4, [r4, #16]
 8004a1a:	f7fe fec9 	bl	80037b0 <vListInsert>
 8004a1e:	e7d2      	b.n	80049c6 <prvSampleTimeNow+0x1e>
 8004a20:	2300      	movs	r3, #0
 8004a22:	f8cd 9000 	str.w	r9, [sp]
 8004a26:	4652      	mov	r2, sl
 8004a28:	4619      	mov	r1, r3
 8004a2a:	4620      	mov	r0, r4
 8004a2c:	f7ff ff90 	bl	8004950 <xTimerGenericCommand>
 8004a30:	2800      	cmp	r0, #0
 8004a32:	d1c8      	bne.n	80049c6 <prvSampleTimeNow+0x1e>
 8004a34:	f04f 0350 	mov.w	r3, #80	; 0x50
 8004a38:	f383 8811 	msr	BASEPRI, r3
 8004a3c:	f3bf 8f6f 	isb	sy
 8004a40:	f3bf 8f4f 	dsb	sy
 8004a44:	e7fe      	b.n	8004a44 <prvSampleTimeNow+0x9c>
 8004a46:	bf00      	nop
 8004a48:	20000e2c 	.word	0x20000e2c
 8004a4c:	20000e30 	.word	0x20000e30
 8004a50:	20000efc 	.word	0x20000efc

08004a54 <prvTimerTask>:
 8004a54:	e92d 43f0 	stmdb	sp!, {r4, r5, r6, r7, r8, r9, lr}
 8004a58:	4d6e      	ldr	r5, [pc, #440]	; (8004c14 <prvTimerTask+0x1c0>)
 8004a5a:	4e6f      	ldr	r6, [pc, #444]	; (8004c18 <prvTimerTask+0x1c4>)
 8004a5c:	b089      	sub	sp, #36	; 0x24
 8004a5e:	682b      	ldr	r3, [r5, #0]
 8004a60:	f8d3 8000 	ldr.w	r8, [r3]
 8004a64:	f1b8 0f00 	cmp.w	r8, #0
 8004a68:	d035      	beq.n	8004ad6 <prvTimerTask+0x82>
 8004a6a:	68db      	ldr	r3, [r3, #12]
 8004a6c:	f8d3 8000 	ldr.w	r8, [r3]
 8004a70:	2400      	movs	r4, #0
 8004a72:	f7ff fc4d 	bl	8004310 <vTaskSuspendAll>
 8004a76:	a804      	add	r0, sp, #16
 8004a78:	f7ff ff96 	bl	80049a8 <prvSampleTimeNow>
 8004a7c:	9b04      	ldr	r3, [sp, #16]
 8004a7e:	4681      	mov	r9, r0
 8004a80:	2b00      	cmp	r3, #0
 8004a82:	d169      	bne.n	8004b58 <prvTimerTask+0x104>
 8004a84:	2c00      	cmp	r4, #0
 8004a86:	d14c      	bne.n	8004b22 <prvTimerTask+0xce>
 8004a88:	4540      	cmp	r0, r8
 8004a8a:	d350      	bcc.n	8004b2e <prvTimerTask+0xda>
 8004a8c:	f7ff fcec 	bl	8004468 <xTaskResumeAll>
 8004a90:	682b      	ldr	r3, [r5, #0]
 8004a92:	68db      	ldr	r3, [r3, #12]
 8004a94:	68df      	ldr	r7, [r3, #12]
 8004a96:	1d38      	adds	r0, r7, #4
 8004a98:	f7fe fea1 	bl	80037de <uxListRemove>
 8004a9c:	f897 3028 	ldrb.w	r3, [r7, #40]	; 0x28
 8004aa0:	0758      	lsls	r0, r3, #29
 8004aa2:	d51a      	bpl.n	8004ada <prvTimerTask+0x86>
 8004aa4:	69b9      	ldr	r1, [r7, #24]
 8004aa6:	4643      	mov	r3, r8
 8004aa8:	464a      	mov	r2, r9
 8004aaa:	4441      	add	r1, r8
 8004aac:	4638      	mov	r0, r7
 8004aae:	f7ff feff 	bl	80048b0 <prvInsertTimerInActiveList>
 8004ab2:	b1b0      	cbz	r0, 8004ae2 <prvTimerTask+0x8e>
 8004ab4:	9400      	str	r4, [sp, #0]
 8004ab6:	4623      	mov	r3, r4
 8004ab8:	4642      	mov	r2, r8
 8004aba:	4621      	mov	r1, r4
 8004abc:	4638      	mov	r0, r7
 8004abe:	f7ff ff47 	bl	8004950 <xTimerGenericCommand>
 8004ac2:	b970      	cbnz	r0, 8004ae2 <prvTimerTask+0x8e>
 8004ac4:	f04f 0350 	mov.w	r3, #80	; 0x50
 8004ac8:	f383 8811 	msr	BASEPRI, r3
 8004acc:	f3bf 8f6f 	isb	sy
 8004ad0:	f3bf 8f4f 	dsb	sy
 8004ad4:	e7fe      	b.n	8004ad4 <prvTimerTask+0x80>
 8004ad6:	2401      	movs	r4, #1
 8004ad8:	e7cb      	b.n	8004a72 <prvTimerTask+0x1e>
 8004ada:	f023 0301 	bic.w	r3, r3, #1
 8004ade:	f887 3028 	strb.w	r3, [r7, #40]	; 0x28
 8004ae2:	6a3b      	ldr	r3, [r7, #32]
 8004ae4:	4638      	mov	r0, r7
 8004ae6:	4798      	blx	r3
 8004ae8:	6830      	ldr	r0, [r6, #0]
 8004aea:	2200      	movs	r2, #0
 8004aec:	a904      	add	r1, sp, #16
 8004aee:	f7ff f8dd 	bl	8003cac <xQueueReceive>
 8004af2:	2800      	cmp	r0, #0
 8004af4:	d0b3      	beq.n	8004a5e <prvTimerTask+0xa>
 8004af6:	9b04      	ldr	r3, [sp, #16]
 8004af8:	9806      	ldr	r0, [sp, #24]
 8004afa:	2b00      	cmp	r3, #0
 8004afc:	db2f      	blt.n	8004b5e <prvTimerTask+0x10a>
 8004afe:	9c06      	ldr	r4, [sp, #24]
 8004b00:	6963      	ldr	r3, [r4, #20]
 8004b02:	2b00      	cmp	r3, #0
 8004b04:	d132      	bne.n	8004b6c <prvTimerTask+0x118>
 8004b06:	a803      	add	r0, sp, #12
 8004b08:	f7ff ff4e 	bl	80049a8 <prvSampleTimeNow>
 8004b0c:	9b04      	ldr	r3, [sp, #16]
 8004b0e:	4602      	mov	r2, r0
 8004b10:	2b09      	cmp	r3, #9
 8004b12:	d8e9      	bhi.n	8004ae8 <prvTimerTask+0x94>
 8004b14:	e8df f003 	tbb	[pc, r3]
 8004b18:	572e2e2e 	.word	0x572e2e2e
 8004b1c:	2e2e765e 	.word	0x2e2e765e
 8004b20:	5e57      	.short	0x5e57
 8004b22:	4b3e      	ldr	r3, [pc, #248]	; (8004c1c <prvTimerTask+0x1c8>)
 8004b24:	681b      	ldr	r3, [r3, #0]
 8004b26:	681c      	ldr	r4, [r3, #0]
 8004b28:	fab4 f484 	clz	r4, r4
 8004b2c:	0964      	lsrs	r4, r4, #5
 8004b2e:	6830      	ldr	r0, [r6, #0]
 8004b30:	4622      	mov	r2, r4
 8004b32:	eba8 0109 	sub.w	r1, r8, r9
 8004b36:	f7ff f9b9 	bl	8003eac <vQueueWaitForMessageRestricted>
 8004b3a:	f7ff fc95 	bl	8004468 <xTaskResumeAll>
 8004b3e:	2800      	cmp	r0, #0
 8004b40:	d1d2      	bne.n	8004ae8 <prvTimerTask+0x94>
 8004b42:	f04f 23e0 	mov.w	r3, #3758153728	; 0xe000e000
 8004b46:	f04f 5280 	mov.w	r2, #268435456	; 0x10000000
 8004b4a:	f8c3 2d04 	str.w	r2, [r3, #3332]	; 0xd04
 8004b4e:	f3bf 8f4f 	dsb	sy
 8004b52:	f3bf 8f6f 	isb	sy
 8004b56:	e7c7      	b.n	8004ae8 <prvTimerTask+0x94>
 8004b58:	f7ff fc86 	bl	8004468 <xTaskResumeAll>
 8004b5c:	e7c4      	b.n	8004ae8 <prvTimerTask+0x94>
 8004b5e:	9b05      	ldr	r3, [sp, #20]
 8004b60:	9907      	ldr	r1, [sp, #28]
 8004b62:	4798      	blx	r3
 8004b64:	9b04      	ldr	r3, [sp, #16]
 8004b66:	2b00      	cmp	r3, #0
 8004b68:	dbbe      	blt.n	8004ae8 <prvTimerTask+0x94>
 8004b6a:	e7c8      	b.n	8004afe <prvTimerTask+0xaa>
 8004b6c:	1d20      	adds	r0, r4, #4
 8004b6e:	f7fe fe36 	bl	80037de <uxListRemove>
 8004b72:	e7c8      	b.n	8004b06 <prvTimerTask+0xb2>
 8004b74:	f894 3028 	ldrb.w	r3, [r4, #40]	; 0x28
 8004b78:	69a1      	ldr	r1, [r4, #24]
 8004b7a:	f043 0301 	orr.w	r3, r3, #1
 8004b7e:	f884 3028 	strb.w	r3, [r4, #40]	; 0x28
 8004b82:	9b05      	ldr	r3, [sp, #20]
 8004b84:	4620      	mov	r0, r4
 8004b86:	4419      	add	r1, r3
 8004b88:	f7ff fe92 	bl	80048b0 <prvInsertTimerInActiveList>
 8004b8c:	2800      	cmp	r0, #0
 8004b8e:	d0ab      	beq.n	8004ae8 <prvTimerTask+0x94>
 8004b90:	6a23      	ldr	r3, [r4, #32]
 8004b92:	4620      	mov	r0, r4
 8004b94:	4798      	blx	r3
 8004b96:	f894 3028 	ldrb.w	r3, [r4, #40]	; 0x28
 8004b9a:	0759      	lsls	r1, r3, #29
 8004b9c:	d5a4      	bpl.n	8004ae8 <prvTimerTask+0x94>
 8004b9e:	69a2      	ldr	r2, [r4, #24]
 8004ba0:	9905      	ldr	r1, [sp, #20]
 8004ba2:	2300      	movs	r3, #0
 8004ba4:	440a      	add	r2, r1
 8004ba6:	9300      	str	r3, [sp, #0]
 8004ba8:	4619      	mov	r1, r3
 8004baa:	4620      	mov	r0, r4
 8004bac:	f7ff fed0 	bl	8004950 <xTimerGenericCommand>
 8004bb0:	2800      	cmp	r0, #0
 8004bb2:	d199      	bne.n	8004ae8 <prvTimerTask+0x94>
 8004bb4:	f04f 0350 	mov.w	r3, #80	; 0x50
 8004bb8:	f383 8811 	msr	BASEPRI, r3
 8004bbc:	f3bf 8f6f 	isb	sy
 8004bc0:	f3bf 8f4f 	dsb	sy
 8004bc4:	e7fe      	b.n	8004bc4 <prvTimerTask+0x170>
 8004bc6:	f894 3028 	ldrb.w	r3, [r4, #40]	; 0x28
 8004bca:	f023 0301 	bic.w	r3, r3, #1
 8004bce:	f884 3028 	strb.w	r3, [r4, #40]	; 0x28
 8004bd2:	e789      	b.n	8004ae8 <prvTimerTask+0x94>
 8004bd4:	f894 3028 	ldrb.w	r3, [r4, #40]	; 0x28
 8004bd8:	f043 0301 	orr.w	r3, r3, #1
 8004bdc:	f884 3028 	strb.w	r3, [r4, #40]	; 0x28
 8004be0:	9905      	ldr	r1, [sp, #20]
 8004be2:	61a1      	str	r1, [r4, #24]
 8004be4:	b941      	cbnz	r1, 8004bf8 <prvTimerTask+0x1a4>
 8004be6:	f04f 0350 	mov.w	r3, #80	; 0x50
 8004bea:	f383 8811 	msr	BASEPRI, r3
 8004bee:	f3bf 8f6f 	isb	sy
 8004bf2:	f3bf 8f4f 	dsb	sy
 8004bf6:	e7fe      	b.n	8004bf6 <prvTimerTask+0x1a2>
 8004bf8:	4603      	mov	r3, r0
 8004bfa:	4401      	add	r1, r0
 8004bfc:	4620      	mov	r0, r4
 8004bfe:	f7ff fe57 	bl	80048b0 <prvInsertTimerInActiveList>
 8004c02:	e771      	b.n	8004ae8 <prvTimerTask+0x94>
 8004c04:	f894 3028 	ldrb.w	r3, [r4, #40]	; 0x28
 8004c08:	079a      	lsls	r2, r3, #30
 8004c0a:	d4de      	bmi.n	8004bca <prvTimerTask+0x176>
 8004c0c:	4620      	mov	r0, r4
 8004c0e:	f000 fa73 	bl	80050f8 <vPortFree>
 8004c12:	e769      	b.n	8004ae8 <prvTimerTask+0x94>
 8004c14:	20000e2c 	.word	0x20000e2c
 8004c18:	20000f50 	.word	0x20000f50
 8004c1c:	20000e30 	.word	0x20000e30

08004c20 <prvPortStartFirstTask>:
 8004c20:	4808      	ldr	r0, [pc, #32]	; (8004c44 <prvPortStartFirstTask+0x24>)
 8004c22:	6800      	ldr	r0, [r0, #0]
 8004c24:	6800      	ldr	r0, [r0, #0]
 8004c26:	f380 8808 	msr	MSP, r0
 8004c2a:	f04f 0000 	mov.w	r0, #0
 8004c2e:	f380 8814 	msr	CONTROL, r0
 8004c32:	b662      	cpsie	i
 8004c34:	b661      	cpsie	f
 8004c36:	f3bf 8f4f 	dsb	sy
 8004c3a:	f3bf 8f6f 	isb	sy
 8004c3e:	df00      	svc	0
 8004c40:	bf00      	nop
 8004c42:	0000      	.short	0x0000
 8004c44:	e000ed08 	.word	0xe000ed08

08004c48 <vPortEnableVFP>:
 8004c48:	f8df 000c 	ldr.w	r0, [pc, #12]	; 8004c58 <vPortEnableVFP+0x10>
 8004c4c:	6801      	ldr	r1, [r0, #0]
 8004c4e:	f441 0170 	orr.w	r1, r1, #15728640	; 0xf00000
 8004c52:	6001      	str	r1, [r0, #0]
 8004c54:	4770      	bx	lr
 8004c56:	0000      	.short	0x0000
 8004c58:	e000ed88 	.word	0xe000ed88

08004c5c <prvTaskExitError>:
 8004c5c:	b082      	sub	sp, #8
 8004c5e:	2300      	movs	r3, #0
 8004c60:	9301      	str	r3, [sp, #4]
 8004c62:	4b0d      	ldr	r3, [pc, #52]	; (8004c98 <prvTaskExitError+0x3c>)
 8004c64:	681b      	ldr	r3, [r3, #0]
 8004c66:	3301      	adds	r3, #1
 8004c68:	d008      	beq.n	8004c7c <prvTaskExitError+0x20>
 8004c6a:	f04f 0350 	mov.w	r3, #80	; 0x50
 8004c6e:	f383 8811 	msr	BASEPRI, r3
 8004c72:	f3bf 8f6f 	isb	sy
 8004c76:	f3bf 8f4f 	dsb	sy
 8004c7a:	e7fe      	b.n	8004c7a <prvTaskExitError+0x1e>
 8004c7c:	f04f 0350 	mov.w	r3, #80	; 0x50
 8004c80:	f383 8811 	msr	BASEPRI, r3
 8004c84:	f3bf 8f6f 	isb	sy
 8004c88:	f3bf 8f4f 	dsb	sy
 8004c8c:	9b01      	ldr	r3, [sp, #4]
 8004c8e:	2b00      	cmp	r3, #0
 8004c90:	d0fc      	beq.n	8004c8c <prvTaskExitError+0x30>
 8004c92:	b002      	add	sp, #8
 8004c94:	4770      	bx	lr
 8004c96:	bf00      	nop
 8004c98:	20000010 	.word	0x20000010

08004c9c <pxPortInitialiseStack>:
 8004c9c:	f04f 7380 	mov.w	r3, #16777216	; 0x1000000
 8004ca0:	f840 3c04 	str.w	r3, [r0, #-4]
 8004ca4:	4b07      	ldr	r3, [pc, #28]	; (8004cc4 <pxPortInitialiseStack+0x28>)
 8004ca6:	f840 3c0c 	str.w	r3, [r0, #-12]
 8004caa:	f021 0101 	bic.w	r1, r1, #1
 8004cae:	f06f 0302 	mvn.w	r3, #2
 8004cb2:	f840 1c08 	str.w	r1, [r0, #-8]
 8004cb6:	f840 2c20 	str.w	r2, [r0, #-32]
 8004cba:	f840 3c24 	str.w	r3, [r0, #-36]
 8004cbe:	3844      	subs	r0, #68	; 0x44
 8004cc0:	4770      	bx	lr
 8004cc2:	bf00      	nop
 8004cc4:	08004c5d 	.word	0x08004c5d
	...

08004cd0 <SVC_Handler>:
 8004cd0:	4b07      	ldr	r3, [pc, #28]	; (8004cf0 <pxCurrentTCBConst2>)
 8004cd2:	6819      	ldr	r1, [r3, #0]
 8004cd4:	6808      	ldr	r0, [r1, #0]
 8004cd6:	e8b0 4ff0 	ldmia.w	r0!, {r4, r5, r6, r7, r8, r9, sl, fp, lr}
 8004cda:	f380 8809 	msr	PSP, r0
 8004cde:	f3bf 8f6f 	isb	sy
 8004ce2:	f04f 0000 	mov.w	r0, #0
 8004ce6:	f380 8811 	msr	BASEPRI, r0
 8004cea:	4770      	bx	lr
 8004cec:	f3af 8000 	nop.w

08004cf0 <pxCurrentTCBConst2>:
 8004cf0:	20000930 	.word	0x20000930

08004cf4 <vPortEnterCritical>:
 8004cf4:	f04f 0350 	mov.w	r3, #80	; 0x50
 8004cf8:	f383 8811 	msr	BASEPRI, r3
 8004cfc:	f3bf 8f6f 	isb	sy
 8004d00:	f3bf 8f4f 	dsb	sy
 8004d04:	4a0a      	ldr	r2, [pc, #40]	; (8004d30 <vPortEnterCritical+0x3c>)
 8004d06:	6813      	ldr	r3, [r2, #0]
 8004d08:	3301      	adds	r3, #1
 8004d0a:	2b01      	cmp	r3, #1
 8004d0c:	6013      	str	r3, [r2, #0]
 8004d0e:	d10e      	bne.n	8004d2e <vPortEnterCritical+0x3a>
 8004d10:	f04f 23e0 	mov.w	r3, #3758153728	; 0xe000e000
 8004d14:	f8d3 3d04 	ldr.w	r3, [r3, #3332]	; 0xd04
 8004d18:	b2db      	uxtb	r3, r3
 8004d1a:	b143      	cbz	r3, 8004d2e <vPortEnterCritical+0x3a>
 8004d1c:	f04f 0350 	mov.w	r3, #80	; 0x50
 8004d20:	f383 8811 	msr	BASEPRI, r3
 8004d24:	f3bf 8f6f 	isb	sy
 8004d28:	f3bf 8f4f 	dsb	sy
 8004d2c:	e7fe      	b.n	8004d2c <vPortEnterCritical+0x38>
 8004d2e:	4770      	bx	lr
 8004d30:	20000010 	.word	0x20000010

08004d34 <vPortExitCritical>:
 8004d34:	4a08      	ldr	r2, [pc, #32]	; (8004d58 <vPortExitCritical+0x24>)
 8004d36:	6813      	ldr	r3, [r2, #0]
 8004d38:	b943      	cbnz	r3, 8004d4c <vPortExitCritical+0x18>
 8004d3a:	f04f 0350 	mov.w	r3, #80	; 0x50
 8004d3e:	f383 8811 	msr	BASEPRI, r3
 8004d42:	f3bf 8f6f 	isb	sy
 8004d46:	f3bf 8f4f 	dsb	sy
 8004d4a:	e7fe      	b.n	8004d4a <vPortExitCritical+0x16>
 8004d4c:	3b01      	subs	r3, #1
 8004d4e:	6013      	str	r3, [r2, #0]
 8004d50:	b90b      	cbnz	r3, 8004d56 <vPortExitCritical+0x22>
 8004d52:	f383 8811 	msr	BASEPRI, r3
 8004d56:	4770      	bx	lr
 8004d58:	20000010 	.word	0x20000010
 8004d5c:	00000000 	.word	0x00000000

08004d60 <PendSV_Handler>:
 8004d60:	f3ef 8009 	mrs	r0, PSP
 8004d64:	f3bf 8f6f 	isb	sy
 8004d68:	4b15      	ldr	r3, [pc, #84]	; (8004dc0 <pxCurrentTCBConst>)
 8004d6a:	681a      	ldr	r2, [r3, #0]
 8004d6c:	f01e 0f10 	tst.w	lr, #16
 8004d70:	bf08      	it	eq
 8004d72:	ed20 8a10 	vstmdbeq	r0!, {s16-s31}
 8004d76:	e920 4ff0 	stmdb	r0!, {r4, r5, r6, r7, r8, r9, sl, fp, lr}
 8004d7a:	6010      	str	r0, [r2, #0]
 8004d7c:	e92d 0009 	stmdb	sp!, {r0, r3}
 8004d80:	f04f 0050 	mov.w	r0, #80	; 0x50
 8004d84:	f380 8811 	msr	BASEPRI, r0
 8004d88:	f3bf 8f4f 	dsb	sy
 8004d8c:	f3bf 8f6f 	isb	sy
 8004d90:	f7ff fc02 	bl	8004598 <vTaskSwitchContext>
 8004d94:	f04f 0000 	mov.w	r0, #0
 8004d98:	f380 8811 	msr	BASEPRI, r0
 8004d9c:	bc09      	pop	{r0, r3}
 8004d9e:	6819      	ldr	r1, [r3, #0]
 8004da0:	6808      	ldr	r0, [r1, #0]
 8004da2:	e8b0 4ff0 	ldmia.w	r0!, {r4, r5, r6, r7, r8, r9, sl, fp, lr}
 8004da6:	f01e 0f10 	tst.w	lr, #16
 8004daa:	bf08      	it	eq
 8004dac:	ecb0 8a10 	vldmiaeq	r0!, {s16-s31}
 8004db0:	f380 8809 	msr	PSP, r0
 8004db4:	f3bf 8f6f 	isb	sy
 8004db8:	4770      	bx	lr
 8004dba:	bf00      	nop
 8004dbc:	f3af 8000 	nop.w

08004dc0 <pxCurrentTCBConst>:
 8004dc0:	20000930 	.word	0x20000930

08004dc4 <xPortSysTickHandler>:
 8004dc4:	b508      	push	{r3, lr}
 8004dc6:	f04f 0350 	mov.w	r3, #80	; 0x50
 8004dca:	f383 8811 	msr	BASEPRI, r3
 8004dce:	f3bf 8f6f 	isb	sy
 8004dd2:	f3bf 8f4f 	dsb	sy
 8004dd6:	f7ff fab1 	bl	800433c <xTaskIncrementTick>
 8004dda:	b128      	cbz	r0, 8004de8 <xPortSysTickHandler+0x24>
 8004ddc:	f04f 23e0 	mov.w	r3, #3758153728	; 0xe000e000
 8004de0:	f04f 5280 	mov.w	r2, #268435456	; 0x10000000
 8004de4:	f8c3 2d04 	str.w	r2, [r3, #3332]	; 0xd04
 8004de8:	2300      	movs	r3, #0
 8004dea:	f383 8811 	msr	BASEPRI, r3
 8004dee:	bd08      	pop	{r3, pc}

08004df0 <vPortSetupTimerInterrupt>:
 8004df0:	f04f 22e0 	mov.w	r2, #3758153728	; 0xe000e000
 8004df4:	2300      	movs	r3, #0
 8004df6:	6113      	str	r3, [r2, #16]
 8004df8:	6193      	str	r3, [r2, #24]
 8004dfa:	4b05      	ldr	r3, [pc, #20]	; (8004e10 <vPortSetupTimerInterrupt+0x20>)
 8004dfc:	f44f 717a 	mov.w	r1, #1000	; 0x3e8
 8004e00:	681b      	ldr	r3, [r3, #0]
 8004e02:	fbb3 f3f1 	udiv	r3, r3, r1
 8004e06:	3b01      	subs	r3, #1
 8004e08:	6153      	str	r3, [r2, #20]
 8004e0a:	2307      	movs	r3, #7
 8004e0c:	6113      	str	r3, [r2, #16]
 8004e0e:	4770      	bx	lr
 8004e10:	20000000 	.word	0x20000000

08004e14 <xPortStartScheduler>:
 8004e14:	f04f 23e0 	mov.w	r3, #3758153728	; 0xe000e000
 8004e18:	b537      	push	{r0, r1, r2, r4, r5, lr}
 8004e1a:	f8d3 1d00 	ldr.w	r1, [r3, #3328]	; 0xd00
 8004e1e:	4a3a      	ldr	r2, [pc, #232]	; (8004f08 <xPortStartScheduler+0xf4>)
 8004e20:	4291      	cmp	r1, r2
 8004e22:	d108      	bne.n	8004e36 <xPortStartScheduler+0x22>
 8004e24:	f04f 0350 	mov.w	r3, #80	; 0x50
 8004e28:	f383 8811 	msr	BASEPRI, r3
 8004e2c:	f3bf 8f6f 	isb	sy
 8004e30:	f3bf 8f4f 	dsb	sy
 8004e34:	e7fe      	b.n	8004e34 <xPortStartScheduler+0x20>
 8004e36:	f8d3 2d00 	ldr.w	r2, [r3, #3328]	; 0xd00
 8004e3a:	4b34      	ldr	r3, [pc, #208]	; (8004f0c <xPortStartScheduler+0xf8>)
 8004e3c:	429a      	cmp	r2, r3
 8004e3e:	d108      	bne.n	8004e52 <xPortStartScheduler+0x3e>
 8004e40:	f04f 0350 	mov.w	r3, #80	; 0x50
 8004e44:	f383 8811 	msr	BASEPRI, r3
 8004e48:	f3bf 8f6f 	isb	sy
 8004e4c:	f3bf 8f4f 	dsb	sy
 8004e50:	e7fe      	b.n	8004e50 <xPortStartScheduler+0x3c>
 8004e52:	4b2f      	ldr	r3, [pc, #188]	; (8004f10 <xPortStartScheduler+0xfc>)
 8004e54:	781a      	ldrb	r2, [r3, #0]
 8004e56:	b2d2      	uxtb	r2, r2
 8004e58:	9201      	str	r2, [sp, #4]
 8004e5a:	22ff      	movs	r2, #255	; 0xff
 8004e5c:	701a      	strb	r2, [r3, #0]
 8004e5e:	781b      	ldrb	r3, [r3, #0]
 8004e60:	4a2c      	ldr	r2, [pc, #176]	; (8004f14 <xPortStartScheduler+0x100>)
 8004e62:	b2db      	uxtb	r3, r3
 8004e64:	f88d 3003 	strb.w	r3, [sp, #3]
 8004e68:	f89d 3003 	ldrb.w	r3, [sp, #3]
 8004e6c:	f003 0350 	and.w	r3, r3, #80	; 0x50
 8004e70:	7013      	strb	r3, [r2, #0]
 8004e72:	4a29      	ldr	r2, [pc, #164]	; (8004f18 <xPortStartScheduler+0x104>)
 8004e74:	2307      	movs	r3, #7
 8004e76:	6013      	str	r3, [r2, #0]
 8004e78:	2100      	movs	r1, #0
 8004e7a:	f89d 0003 	ldrb.w	r0, [sp, #3]
 8004e7e:	0600      	lsls	r0, r0, #24
 8004e80:	f103 34ff 	add.w	r4, r3, #4294967295
 8004e84:	d40c      	bmi.n	8004ea0 <xPortStartScheduler+0x8c>
 8004e86:	b111      	cbz	r1, 8004e8e <xPortStartScheduler+0x7a>
 8004e88:	2b03      	cmp	r3, #3
 8004e8a:	6013      	str	r3, [r2, #0]
 8004e8c:	d011      	beq.n	8004eb2 <xPortStartScheduler+0x9e>
 8004e8e:	f04f 0350 	mov.w	r3, #80	; 0x50
 8004e92:	f383 8811 	msr	BASEPRI, r3
 8004e96:	f3bf 8f6f 	isb	sy
 8004e9a:	f3bf 8f4f 	dsb	sy
 8004e9e:	e7fe      	b.n	8004e9e <xPortStartScheduler+0x8a>
 8004ea0:	f89d 3003 	ldrb.w	r3, [sp, #3]
 8004ea4:	005b      	lsls	r3, r3, #1
 8004ea6:	b2db      	uxtb	r3, r3
 8004ea8:	f88d 3003 	strb.w	r3, [sp, #3]
 8004eac:	2101      	movs	r1, #1
 8004eae:	4623      	mov	r3, r4
 8004eb0:	e7e3      	b.n	8004e7a <xPortStartScheduler+0x66>
 8004eb2:	f44f 7340 	mov.w	r3, #768	; 0x300
 8004eb6:	6013      	str	r3, [r2, #0]
 8004eb8:	9b01      	ldr	r3, [sp, #4]
 8004eba:	4a15      	ldr	r2, [pc, #84]	; (8004f10 <xPortStartScheduler+0xfc>)
 8004ebc:	f04f 24e0 	mov.w	r4, #3758153728	; 0xe000e000
 8004ec0:	b2db      	uxtb	r3, r3
 8004ec2:	7013      	strb	r3, [r2, #0]
 8004ec4:	f8d4 3d20 	ldr.w	r3, [r4, #3360]	; 0xd20
 8004ec8:	f443 0370 	orr.w	r3, r3, #15728640	; 0xf00000
 8004ecc:	f8c4 3d20 	str.w	r3, [r4, #3360]	; 0xd20
 8004ed0:	f8d4 3d20 	ldr.w	r3, [r4, #3360]	; 0xd20
 8004ed4:	f043 4370 	orr.w	r3, r3, #4026531840	; 0xf0000000
 8004ed8:	f8c4 3d20 	str.w	r3, [r4, #3360]	; 0xd20
 8004edc:	f7ff ff88 	bl	8004df0 <vPortSetupTimerInterrupt>
 8004ee0:	4b0e      	ldr	r3, [pc, #56]	; (8004f1c <xPortStartScheduler+0x108>)
 8004ee2:	2500      	movs	r5, #0
 8004ee4:	601d      	str	r5, [r3, #0]
 8004ee6:	f7ff feaf 	bl	8004c48 <vPortEnableVFP>
 8004eea:	f8d4 3f34 	ldr.w	r3, [r4, #3892]	; 0xf34
 8004eee:	f043 4340 	orr.w	r3, r3, #3221225472	; 0xc0000000
 8004ef2:	f8c4 3f34 	str.w	r3, [r4, #3892]	; 0xf34
 8004ef6:	f7ff fe93 	bl	8004c20 <prvPortStartFirstTask>
 8004efa:	f7ff fb4d 	bl	8004598 <vTaskSwitchContext>
 8004efe:	f7ff fead 	bl	8004c5c <prvTaskExitError>
 8004f02:	4628      	mov	r0, r5
 8004f04:	b003      	add	sp, #12
 8004f06:	bd30      	pop	{r4, r5, pc}
 8004f08:	410fc271 	.word	0x410fc271
 8004f0c:	410fc270 	.word	0x410fc270
 8004f10:	e000e400 	.word	0xe000e400
 8004f14:	20000f58 	.word	0x20000f58
 8004f18:	20000f5c 	.word	0x20000f5c
 8004f1c:	20000010 	.word	0x20000010

08004f20 <vPortValidateInterruptPriority>:
 8004f20:	f3ef 8305 	mrs	r3, IPSR
 8004f24:	2b0f      	cmp	r3, #15
 8004f26:	d90e      	bls.n	8004f46 <vPortValidateInterruptPriority+0x26>
 8004f28:	4a11      	ldr	r2, [pc, #68]	; (8004f70 <vPortValidateInterruptPriority+0x50>)
 8004f2a:	5c9b      	ldrb	r3, [r3, r2]
 8004f2c:	4a11      	ldr	r2, [pc, #68]	; (8004f74 <vPortValidateInterruptPriority+0x54>)
 8004f2e:	7812      	ldrb	r2, [r2, #0]
 8004f30:	429a      	cmp	r2, r3
 8004f32:	d908      	bls.n	8004f46 <vPortValidateInterruptPriority+0x26>
 8004f34:	f04f 0350 	mov.w	r3, #80	; 0x50
 8004f38:	f383 8811 	msr	BASEPRI, r3
 8004f3c:	f3bf 8f6f 	isb	sy
 8004f40:	f3bf 8f4f 	dsb	sy
 8004f44:	e7fe      	b.n	8004f44 <vPortValidateInterruptPriority+0x24>
 8004f46:	f04f 23e0 	mov.w	r3, #3758153728	; 0xe000e000
 8004f4a:	4a0b      	ldr	r2, [pc, #44]	; (8004f78 <vPortValidateInterruptPriority+0x58>)
 8004f4c:	f8d3 3d0c 	ldr.w	r3, [r3, #3340]	; 0xd0c
 8004f50:	6812      	ldr	r2, [r2, #0]
 8004f52:	f403 63e0 	and.w	r3, r3, #1792	; 0x700
 8004f56:	4293      	cmp	r3, r2
 8004f58:	d908      	bls.n	8004f6c <vPortValidateInterruptPriority+0x4c>
 8004f5a:	f04f 0350 	mov.w	r3, #80	; 0x50
 8004f5e:	f383 8811 	msr	BASEPRI, r3
 8004f62:	f3bf 8f6f 	isb	sy
 8004f66:	f3bf 8f4f 	dsb	sy
 8004f6a:	e7fe      	b.n	8004f6a <vPortValidateInterruptPriority+0x4a>
 8004f6c:	4770      	bx	lr
 8004f6e:	bf00      	nop
 8004f70:	e000e3f0 	.word	0xe000e3f0
 8004f74:	20000f58 	.word	0x20000f58
 8004f78:	20000f5c 	.word	0x20000f5c

08004f7c <prvInsertBlockIntoFreeList>:
 8004f7c:	b510      	push	{r4, lr}
 8004f7e:	4b10      	ldr	r3, [pc, #64]	; (8004fc0 <prvInsertBlockIntoFreeList+0x44>)
 8004f80:	461a      	mov	r2, r3
 8004f82:	681b      	ldr	r3, [r3, #0]
 8004f84:	4283      	cmp	r3, r0
 8004f86:	d3fb      	bcc.n	8004f80 <prvInsertBlockIntoFreeList+0x4>
 8004f88:	6854      	ldr	r4, [r2, #4]
 8004f8a:	1911      	adds	r1, r2, r4
 8004f8c:	4288      	cmp	r0, r1
 8004f8e:	bf01      	itttt	eq
 8004f90:	6841      	ldreq	r1, [r0, #4]
 8004f92:	4610      	moveq	r0, r2
 8004f94:	1909      	addeq	r1, r1, r4
 8004f96:	6051      	streq	r1, [r2, #4]
 8004f98:	6844      	ldr	r4, [r0, #4]
 8004f9a:	1901      	adds	r1, r0, r4
 8004f9c:	428b      	cmp	r3, r1
 8004f9e:	d10c      	bne.n	8004fba <prvInsertBlockIntoFreeList+0x3e>
 8004fa0:	4908      	ldr	r1, [pc, #32]	; (8004fc4 <prvInsertBlockIntoFreeList+0x48>)
 8004fa2:	6809      	ldr	r1, [r1, #0]
 8004fa4:	428b      	cmp	r3, r1
 8004fa6:	d003      	beq.n	8004fb0 <prvInsertBlockIntoFreeList+0x34>
 8004fa8:	6859      	ldr	r1, [r3, #4]
 8004faa:	4421      	add	r1, r4
 8004fac:	6041      	str	r1, [r0, #4]
 8004fae:	6819      	ldr	r1, [r3, #0]
 8004fb0:	6001      	str	r1, [r0, #0]
 8004fb2:	4290      	cmp	r0, r2
 8004fb4:	bf18      	it	ne
 8004fb6:	6010      	strne	r0, [r2, #0]
 8004fb8:	bd10      	pop	{r4, pc}
 8004fba:	4619      	mov	r1, r3
 8004fbc:	e7f8      	b.n	8004fb0 <prvInsertBlockIntoFreeList+0x34>
 8004fbe:	bf00      	nop
 8004fc0:	20004b78 	.word	0x20004b78
 8004fc4:	20000f60 	.word	0x20000f60

08004fc8 <pvPortMalloc>:
 8004fc8:	e92d 41f0 	stmdb	sp!, {r4, r5, r6, r7, r8, lr}
 8004fcc:	4604      	mov	r4, r0
 8004fce:	f7ff f99f 	bl	8004310 <vTaskSuspendAll>
 8004fd2:	4942      	ldr	r1, [pc, #264]	; (80050dc <pvPortMalloc+0x114>)
 8004fd4:	4d42      	ldr	r5, [pc, #264]	; (80050e0 <pvPortMalloc+0x118>)
 8004fd6:	680b      	ldr	r3, [r1, #0]
 8004fd8:	bb0b      	cbnz	r3, 800501e <pvPortMalloc+0x56>
 8004fda:	4a42      	ldr	r2, [pc, #264]	; (80050e4 <pvPortMalloc+0x11c>)
 8004fdc:	0756      	lsls	r6, r2, #29
 8004fde:	bf1f      	itttt	ne
 8004fe0:	1dd0      	addne	r0, r2, #7
 8004fe2:	f020 0007 	bicne.w	r0, r0, #7
 8004fe6:	f502 5270 	addne.w	r2, r2, #15360	; 0x3c00
 8004fea:	1a13      	subne	r3, r2, r0
 8004fec:	bf0c      	ite	eq
 8004fee:	f44f 5370 	moveq.w	r3, #15360	; 0x3c00
 8004ff2:	4602      	movne	r2, r0
 8004ff4:	4413      	add	r3, r2
 8004ff6:	4e3c      	ldr	r6, [pc, #240]	; (80050e8 <pvPortMalloc+0x120>)
 8004ff8:	3b08      	subs	r3, #8
 8004ffa:	f023 0307 	bic.w	r3, r3, #7
 8004ffe:	2000      	movs	r0, #0
 8005000:	6070      	str	r0, [r6, #4]
 8005002:	6032      	str	r2, [r6, #0]
 8005004:	e9c3 0000 	strd	r0, r0, [r3]
 8005008:	1a98      	subs	r0, r3, r2
 800500a:	e9c2 3000 	strd	r3, r0, [r2]
 800500e:	600b      	str	r3, [r1, #0]
 8005010:	4b36      	ldr	r3, [pc, #216]	; (80050ec <pvPortMalloc+0x124>)
 8005012:	6018      	str	r0, [r3, #0]
 8005014:	4b36      	ldr	r3, [pc, #216]	; (80050f0 <pvPortMalloc+0x128>)
 8005016:	6018      	str	r0, [r3, #0]
 8005018:	f04f 4300 	mov.w	r3, #2147483648	; 0x80000000
 800501c:	602b      	str	r3, [r5, #0]
 800501e:	682e      	ldr	r6, [r5, #0]
 8005020:	4226      	tst	r6, r4
 8005022:	d155      	bne.n	80050d0 <pvPortMalloc+0x108>
 8005024:	2c00      	cmp	r4, #0
 8005026:	d046      	beq.n	80050b6 <pvPortMalloc+0xee>
 8005028:	f104 0308 	add.w	r3, r4, #8
 800502c:	0760      	lsls	r0, r4, #29
 800502e:	bf1c      	itt	ne
 8005030:	f023 0307 	bicne.w	r3, r3, #7
 8005034:	3308      	addne	r3, #8
 8005036:	2b00      	cmp	r3, #0
 8005038:	d04a      	beq.n	80050d0 <pvPortMalloc+0x108>
 800503a:	4f2d      	ldr	r7, [pc, #180]	; (80050f0 <pvPortMalloc+0x128>)
 800503c:	683c      	ldr	r4, [r7, #0]
 800503e:	429c      	cmp	r4, r3
 8005040:	d346      	bcc.n	80050d0 <pvPortMalloc+0x108>
 8005042:	4a29      	ldr	r2, [pc, #164]	; (80050e8 <pvPortMalloc+0x120>)
 8005044:	6815      	ldr	r5, [r2, #0]
 8005046:	6868      	ldr	r0, [r5, #4]
 8005048:	4298      	cmp	r0, r3
 800504a:	d204      	bcs.n	8005056 <pvPortMalloc+0x8e>
 800504c:	f8d5 c000 	ldr.w	ip, [r5]
 8005050:	f1bc 0f00 	cmp.w	ip, #0
 8005054:	d115      	bne.n	8005082 <pvPortMalloc+0xba>
 8005056:	6809      	ldr	r1, [r1, #0]
 8005058:	42a9      	cmp	r1, r5
 800505a:	d039      	beq.n	80050d0 <pvPortMalloc+0x108>
 800505c:	6829      	ldr	r1, [r5, #0]
 800505e:	f8d2 8000 	ldr.w	r8, [r2]
 8005062:	6011      	str	r1, [r2, #0]
 8005064:	1ac2      	subs	r2, r0, r3
 8005066:	2a10      	cmp	r2, #16
 8005068:	d912      	bls.n	8005090 <pvPortMalloc+0xc8>
 800506a:	18e8      	adds	r0, r5, r3
 800506c:	0741      	lsls	r1, r0, #29
 800506e:	d00b      	beq.n	8005088 <pvPortMalloc+0xc0>
 8005070:	f04f 0350 	mov.w	r3, #80	; 0x50
 8005074:	f383 8811 	msr	BASEPRI, r3
 8005078:	f3bf 8f6f 	isb	sy
 800507c:	f3bf 8f4f 	dsb	sy
 8005080:	e7fe      	b.n	8005080 <pvPortMalloc+0xb8>
 8005082:	462a      	mov	r2, r5
 8005084:	4665      	mov	r5, ip
 8005086:	e7de      	b.n	8005046 <pvPortMalloc+0x7e>
 8005088:	6042      	str	r2, [r0, #4]
 800508a:	606b      	str	r3, [r5, #4]
 800508c:	f7ff ff76 	bl	8004f7c <prvInsertBlockIntoFreeList>
 8005090:	686a      	ldr	r2, [r5, #4]
 8005092:	4916      	ldr	r1, [pc, #88]	; (80050ec <pvPortMalloc+0x124>)
 8005094:	1aa4      	subs	r4, r4, r2
 8005096:	4316      	orrs	r6, r2
 8005098:	4a16      	ldr	r2, [pc, #88]	; (80050f4 <pvPortMalloc+0x12c>)
 800509a:	6808      	ldr	r0, [r1, #0]
 800509c:	603c      	str	r4, [r7, #0]
 800509e:	2300      	movs	r3, #0
 80050a0:	602b      	str	r3, [r5, #0]
 80050a2:	6813      	ldr	r3, [r2, #0]
 80050a4:	606e      	str	r6, [r5, #4]
 80050a6:	4284      	cmp	r4, r0
 80050a8:	f103 0301 	add.w	r3, r3, #1
 80050ac:	bf38      	it	cc
 80050ae:	600c      	strcc	r4, [r1, #0]
 80050b0:	6013      	str	r3, [r2, #0]
 80050b2:	f108 0408 	add.w	r4, r8, #8
 80050b6:	f7ff f9d7 	bl	8004468 <xTaskResumeAll>
 80050ba:	0763      	lsls	r3, r4, #29
 80050bc:	d00a      	beq.n	80050d4 <pvPortMalloc+0x10c>
 80050be:	f04f 0350 	mov.w	r3, #80	; 0x50
 80050c2:	f383 8811 	msr	BASEPRI, r3
 80050c6:	f3bf 8f6f 	isb	sy
 80050ca:	f3bf 8f4f 	dsb	sy
 80050ce:	e7fe      	b.n	80050ce <pvPortMalloc+0x106>
 80050d0:	2400      	movs	r4, #0
 80050d2:	e7f0      	b.n	80050b6 <pvPortMalloc+0xee>
 80050d4:	4620      	mov	r0, r4
 80050d6:	e8bd 81f0 	ldmia.w	sp!, {r4, r5, r6, r7, r8, pc}
 80050da:	bf00      	nop
 80050dc:	20000f60 	.word	0x20000f60
 80050e0:	20004b64 	.word	0x20004b64
 80050e4:	20000f64 	.word	0x20000f64
 80050e8:	20004b78 	.word	0x20004b78
 80050ec:	20004b6c 	.word	0x20004b6c
 80050f0:	20004b68 	.word	0x20004b68
 80050f4:	20004b70 	.word	0x20004b70

080050f8 <vPortFree>:
 80050f8:	b510      	push	{r4, lr}
 80050fa:	4604      	mov	r4, r0
 80050fc:	b390      	cbz	r0, 8005164 <vPortFree+0x6c>
 80050fe:	4a1a      	ldr	r2, [pc, #104]	; (8005168 <vPortFree+0x70>)
 8005100:	f850 3c04 	ldr.w	r3, [r0, #-4]
 8005104:	6812      	ldr	r2, [r2, #0]
 8005106:	4213      	tst	r3, r2
 8005108:	d108      	bne.n	800511c <vPortFree+0x24>
 800510a:	f04f 0350 	mov.w	r3, #80	; 0x50
 800510e:	f383 8811 	msr	BASEPRI, r3
 8005112:	f3bf 8f6f 	isb	sy
 8005116:	f3bf 8f4f 	dsb	sy
 800511a:	e7fe      	b.n	800511a <vPortFree+0x22>
 800511c:	f850 1c08 	ldr.w	r1, [r0, #-8]
 8005120:	b141      	cbz	r1, 8005134 <vPortFree+0x3c>
 8005122:	f04f 0350 	mov.w	r3, #80	; 0x50
 8005126:	f383 8811 	msr	BASEPRI, r3
 800512a:	f3bf 8f6f 	isb	sy
 800512e:	f3bf 8f4f 	dsb	sy
 8005132:	e7fe      	b.n	8005132 <vPortFree+0x3a>
 8005134:	ea23 0302 	bic.w	r3, r3, r2
 8005138:	f840 3c04 	str.w	r3, [r0, #-4]
 800513c:	f7ff f8e8 	bl	8004310 <vTaskSuspendAll>
 8005140:	4a0a      	ldr	r2, [pc, #40]	; (800516c <vPortFree+0x74>)
 8005142:	f854 3c04 	ldr.w	r3, [r4, #-4]
 8005146:	6811      	ldr	r1, [r2, #0]
 8005148:	f1a4 0008 	sub.w	r0, r4, #8
 800514c:	440b      	add	r3, r1
 800514e:	6013      	str	r3, [r2, #0]
 8005150:	f7ff ff14 	bl	8004f7c <prvInsertBlockIntoFreeList>
 8005154:	4a06      	ldr	r2, [pc, #24]	; (8005170 <vPortFree+0x78>)
 8005156:	6813      	ldr	r3, [r2, #0]
 8005158:	e8bd 4010 	ldmia.w	sp!, {r4, lr}
 800515c:	3301      	adds	r3, #1
 800515e:	6013      	str	r3, [r2, #0]
 8005160:	f7ff b982 	b.w	8004468 <xTaskResumeAll>
 8005164:	bd10      	pop	{r4, pc}
 8005166:	bf00      	nop
 8005168:	20004b64 	.word	0x20004b64
 800516c:	20004b68 	.word	0x20004b68
 8005170:	20004b74 	.word	0x20004b74

08005174 <std>:
 8005174:	2300      	movs	r3, #0
 8005176:	b510      	push	{r4, lr}
 8005178:	4604      	mov	r4, r0
 800517a:	e9c0 3300 	strd	r3, r3, [r0]
 800517e:	e9c0 3304 	strd	r3, r3, [r0, #16]
 8005182:	6083      	str	r3, [r0, #8]
 8005184:	8181      	strh	r1, [r0, #12]
 8005186:	6643      	str	r3, [r0, #100]	; 0x64
 8005188:	81c2      	strh	r2, [r0, #14]
 800518a:	6183      	str	r3, [r0, #24]
 800518c:	4619      	mov	r1, r3
 800518e:	2208      	movs	r2, #8
 8005190:	305c      	adds	r0, #92	; 0x5c
 8005192:	f000 fa33 	bl	80055fc <memset>
 8005196:	4b0d      	ldr	r3, [pc, #52]	; (80051cc <std+0x58>)
 8005198:	6263      	str	r3, [r4, #36]	; 0x24
 800519a:	4b0d      	ldr	r3, [pc, #52]	; (80051d0 <std+0x5c>)
 800519c:	62a3      	str	r3, [r4, #40]	; 0x28
 800519e:	4b0d      	ldr	r3, [pc, #52]	; (80051d4 <std+0x60>)
 80051a0:	62e3      	str	r3, [r4, #44]	; 0x2c
 80051a2:	4b0d      	ldr	r3, [pc, #52]	; (80051d8 <std+0x64>)
 80051a4:	6323      	str	r3, [r4, #48]	; 0x30
 80051a6:	4b0d      	ldr	r3, [pc, #52]	; (80051dc <std+0x68>)
 80051a8:	6224      	str	r4, [r4, #32]
 80051aa:	429c      	cmp	r4, r3
 80051ac:	d006      	beq.n	80051bc <std+0x48>
 80051ae:	f103 0268 	add.w	r2, r3, #104	; 0x68
 80051b2:	4294      	cmp	r4, r2
 80051b4:	d002      	beq.n	80051bc <std+0x48>
 80051b6:	33d0      	adds	r3, #208	; 0xd0
 80051b8:	429c      	cmp	r4, r3
 80051ba:	d105      	bne.n	80051c8 <std+0x54>
 80051bc:	f104 0058 	add.w	r0, r4, #88	; 0x58
 80051c0:	e8bd 4010 	ldmia.w	sp!, {r4, lr}
 80051c4:	f000 ba92 	b.w	80056ec <__retarget_lock_init_recursive>
 80051c8:	bd10      	pop	{r4, pc}
 80051ca:	bf00      	nop
 80051cc:	0800544d 	.word	0x0800544d
 80051d0:	0800546f 	.word	0x0800546f
 80051d4:	080054a7 	.word	0x080054a7
 80051d8:	080054cb 	.word	0x080054cb
 80051dc:	20004b80 	.word	0x20004b80

080051e0 <stdio_exit_handler>:
 80051e0:	4a02      	ldr	r2, [pc, #8]	; (80051ec <stdio_exit_handler+0xc>)
 80051e2:	4903      	ldr	r1, [pc, #12]	; (80051f0 <stdio_exit_handler+0x10>)
 80051e4:	4803      	ldr	r0, [pc, #12]	; (80051f4 <stdio_exit_handler+0x14>)
 80051e6:	f000 b869 	b.w	80052bc <_fwalk_sglue>
 80051ea:	bf00      	nop
 80051ec:	20000014 	.word	0x20000014
 80051f0:	08006265 	.word	0x08006265
 80051f4:	20000020 	.word	0x20000020

080051f8 <cleanup_stdio>:
 80051f8:	6841      	ldr	r1, [r0, #4]
 80051fa:	4b0c      	ldr	r3, [pc, #48]	; (800522c <cleanup_stdio+0x34>)
 80051fc:	4299      	cmp	r1, r3
 80051fe:	b510      	push	{r4, lr}
 8005200:	4604      	mov	r4, r0
 8005202:	d001      	beq.n	8005208 <cleanup_stdio+0x10>
 8005204:	f001 f82e 	bl	8006264 <_fflush_r>
 8005208:	68a1      	ldr	r1, [r4, #8]
 800520a:	4b09      	ldr	r3, [pc, #36]	; (8005230 <cleanup_stdio+0x38>)
 800520c:	4299      	cmp	r1, r3
 800520e:	d002      	beq.n	8005216 <cleanup_stdio+0x1e>
 8005210:	4620      	mov	r0, r4
 8005212:	f001 f827 	bl	8006264 <_fflush_r>
 8005216:	68e1      	ldr	r1, [r4, #12]
 8005218:	4b06      	ldr	r3, [pc, #24]	; (8005234 <cleanup_stdio+0x3c>)
 800521a:	4299      	cmp	r1, r3
 800521c:	d004      	beq.n	8005228 <cleanup_stdio+0x30>
 800521e:	4620      	mov	r0, r4
 8005220:	e8bd 4010 	ldmia.w	sp!, {r4, lr}
 8005224:	f001 b81e 	b.w	8006264 <_fflush_r>
 8005228:	bd10      	pop	{r4, pc}
 800522a:	bf00      	nop
 800522c:	20004b80 	.word	0x20004b80
 8005230:	20004be8 	.word	0x20004be8
 8005234:	20004c50 	.word	0x20004c50

08005238 <global_stdio_init.part.0>:
 8005238:	b510      	push	{r4, lr}
 800523a:	4b0b      	ldr	r3, [pc, #44]	; (8005268 <global_stdio_init.part.0+0x30>)
 800523c:	4c0b      	ldr	r4, [pc, #44]	; (800526c <global_stdio_init.part.0+0x34>)
 800523e:	4a0c      	ldr	r2, [pc, #48]	; (8005270 <global_stdio_init.part.0+0x38>)
 8005240:	601a      	str	r2, [r3, #0]
 8005242:	4620      	mov	r0, r4
 8005244:	2200      	movs	r2, #0
 8005246:	2104      	movs	r1, #4
 8005248:	f7ff ff94 	bl	8005174 <std>
 800524c:	f104 0068 	add.w	r0, r4, #104	; 0x68
 8005250:	2201      	movs	r2, #1
 8005252:	2109      	movs	r1, #9
 8005254:	f7ff ff8e 	bl	8005174 <std>
 8005258:	f104 00d0 	add.w	r0, r4, #208	; 0xd0
 800525c:	2202      	movs	r2, #2
 800525e:	e8bd 4010 	ldmia.w	sp!, {r4, lr}
 8005262:	2112      	movs	r1, #18
 8005264:	f7ff bf86 	b.w	8005174 <std>
 8005268:	20004cb8 	.word	0x20004cb8
 800526c:	20004b80 	.word	0x20004b80
 8005270:	080051e1 	.word	0x080051e1

08005274 <__sfp_lock_acquire>:
 8005274:	4801      	ldr	r0, [pc, #4]	; (800527c <__sfp_lock_acquire+0x8>)
 8005276:	f000 ba3a 	b.w	80056ee <__retarget_lock_acquire_recursive>
 800527a:	bf00      	nop
 800527c:	20004cc1 	.word	0x20004cc1

08005280 <__sfp_lock_release>:
 8005280:	4801      	ldr	r0, [pc, #4]	; (8005288 <__sfp_lock_release+0x8>)
 8005282:	f000 ba35 	b.w	80056f0 <__retarget_lock_release_recursive>
 8005286:	bf00      	nop
 8005288:	20004cc1 	.word	0x20004cc1

0800528c <__sinit>:
 800528c:	b510      	push	{r4, lr}
 800528e:	4604      	mov	r4, r0
 8005290:	f7ff fff0 	bl	8005274 <__sfp_lock_acquire>
 8005294:	6a23      	ldr	r3, [r4, #32]
 8005296:	b11b      	cbz	r3, 80052a0 <__sinit+0x14>
 8005298:	e8bd 4010 	ldmia.w	sp!, {r4, lr}
 800529c:	f7ff bff0 	b.w	8005280 <__sfp_lock_release>
 80052a0:	4b04      	ldr	r3, [pc, #16]	; (80052b4 <__sinit+0x28>)
 80052a2:	6223      	str	r3, [r4, #32]
 80052a4:	4b04      	ldr	r3, [pc, #16]	; (80052b8 <__sinit+0x2c>)
 80052a6:	681b      	ldr	r3, [r3, #0]
 80052a8:	2b00      	cmp	r3, #0
 80052aa:	d1f5      	bne.n	8005298 <__sinit+0xc>
 80052ac:	f7ff ffc4 	bl	8005238 <global_stdio_init.part.0>
 80052b0:	e7f2      	b.n	8005298 <__sinit+0xc>
 80052b2:	bf00      	nop
 80052b4:	080051f9 	.word	0x080051f9
 80052b8:	20004cb8 	.word	0x20004cb8

080052bc <_fwalk_sglue>:
 80052bc:	e92d 43f8 	stmdb	sp!, {r3, r4, r5, r6, r7, r8, r9, lr}
 80052c0:	4607      	mov	r7, r0
 80052c2:	4688      	mov	r8, r1
 80052c4:	4614      	mov	r4, r2
 80052c6:	2600      	movs	r6, #0
 80052c8:	e9d4 9501 	ldrd	r9, r5, [r4, #4]
 80052cc:	f1b9 0901 	subs.w	r9, r9, #1
 80052d0:	d505      	bpl.n	80052de <_fwalk_sglue+0x22>
 80052d2:	6824      	ldr	r4, [r4, #0]
 80052d4:	2c00      	cmp	r4, #0
 80052d6:	d1f7      	bne.n	80052c8 <_fwalk_sglue+0xc>
 80052d8:	4630      	mov	r0, r6
 80052da:	e8bd 83f8 	ldmia.w	sp!, {r3, r4, r5, r6, r7, r8, r9, pc}
 80052de:	89ab      	ldrh	r3, [r5, #12]
 80052e0:	2b01      	cmp	r3, #1
 80052e2:	d907      	bls.n	80052f4 <_fwalk_sglue+0x38>
 80052e4:	f9b5 300e 	ldrsh.w	r3, [r5, #14]
 80052e8:	3301      	adds	r3, #1
 80052ea:	d003      	beq.n	80052f4 <_fwalk_sglue+0x38>
 80052ec:	4629      	mov	r1, r5
 80052ee:	4638      	mov	r0, r7
 80052f0:	47c0      	blx	r8
 80052f2:	4306      	orrs	r6, r0
 80052f4:	3568      	adds	r5, #104	; 0x68
 80052f6:	e7e9      	b.n	80052cc <_fwalk_sglue+0x10>

080052f8 <iprintf>:
 80052f8:	b40f      	push	{r0, r1, r2, r3}
 80052fa:	b507      	push	{r0, r1, r2, lr}
 80052fc:	4906      	ldr	r1, [pc, #24]	; (8005318 <iprintf+0x20>)
 80052fe:	ab04      	add	r3, sp, #16
 8005300:	6808      	ldr	r0, [r1, #0]
 8005302:	f853 2b04 	ldr.w	r2, [r3], #4
 8005306:	6881      	ldr	r1, [r0, #8]
 8005308:	9301      	str	r3, [sp, #4]
 800530a:	f000 fc7b 	bl	8005c04 <_vfiprintf_r>
 800530e:	b003      	add	sp, #12
 8005310:	f85d eb04 	ldr.w	lr, [sp], #4
 8005314:	b004      	add	sp, #16
 8005316:	4770      	bx	lr
 8005318:	2000006c 	.word	0x2000006c

0800531c <putchar>:
 800531c:	4b02      	ldr	r3, [pc, #8]	; (8005328 <putchar+0xc>)
 800531e:	4601      	mov	r1, r0
 8005320:	6818      	ldr	r0, [r3, #0]
 8005322:	6882      	ldr	r2, [r0, #8]
 8005324:	f001 b828 	b.w	8006378 <_putc_r>
 8005328:	2000006c 	.word	0x2000006c

0800532c <_puts_r>:
 800532c:	6a03      	ldr	r3, [r0, #32]
 800532e:	b570      	push	{r4, r5, r6, lr}
 8005330:	6884      	ldr	r4, [r0, #8]
 8005332:	4605      	mov	r5, r0
 8005334:	460e      	mov	r6, r1
 8005336:	b90b      	cbnz	r3, 800533c <_puts_r+0x10>
 8005338:	f7ff ffa8 	bl	800528c <__sinit>
 800533c:	6e63      	ldr	r3, [r4, #100]	; 0x64
 800533e:	07db      	lsls	r3, r3, #31
 8005340:	d405      	bmi.n	800534e <_puts_r+0x22>
 8005342:	89a3      	ldrh	r3, [r4, #12]
 8005344:	0598      	lsls	r0, r3, #22
 8005346:	d402      	bmi.n	800534e <_puts_r+0x22>
 8005348:	6da0      	ldr	r0, [r4, #88]	; 0x58
 800534a:	f000 f9d0 	bl	80056ee <__retarget_lock_acquire_recursive>
 800534e:	89a3      	ldrh	r3, [r4, #12]
 8005350:	0719      	lsls	r1, r3, #28
 8005352:	d513      	bpl.n	800537c <_puts_r+0x50>
 8005354:	6923      	ldr	r3, [r4, #16]
 8005356:	b18b      	cbz	r3, 800537c <_puts_r+0x50>
 8005358:	3e01      	subs	r6, #1
 800535a:	68a3      	ldr	r3, [r4, #8]
 800535c:	f816 1f01 	ldrb.w	r1, [r6, #1]!
 8005360:	3b01      	subs	r3, #1
 8005362:	60a3      	str	r3, [r4, #8]
 8005364:	b9e9      	cbnz	r1, 80053a2 <_puts_r+0x76>
 8005366:	2b00      	cmp	r3, #0
 8005368:	da2e      	bge.n	80053c8 <_puts_r+0x9c>
 800536a:	4622      	mov	r2, r4
 800536c:	210a      	movs	r1, #10
 800536e:	4628      	mov	r0, r5
 8005370:	f000 f8af 	bl	80054d2 <__swbuf_r>
 8005374:	3001      	adds	r0, #1
 8005376:	d007      	beq.n	8005388 <_puts_r+0x5c>
 8005378:	250a      	movs	r5, #10
 800537a:	e007      	b.n	800538c <_puts_r+0x60>
 800537c:	4621      	mov	r1, r4
 800537e:	4628      	mov	r0, r5
 8005380:	f000 f8e4 	bl	800554c <__swsetup_r>
 8005384:	2800      	cmp	r0, #0
 8005386:	d0e7      	beq.n	8005358 <_puts_r+0x2c>
 8005388:	f04f 35ff 	mov.w	r5, #4294967295
 800538c:	6e63      	ldr	r3, [r4, #100]	; 0x64
 800538e:	07da      	lsls	r2, r3, #31
 8005390:	d405      	bmi.n	800539e <_puts_r+0x72>
 8005392:	89a3      	ldrh	r3, [r4, #12]
 8005394:	059b      	lsls	r3, r3, #22
 8005396:	d402      	bmi.n	800539e <_puts_r+0x72>
 8005398:	6da0      	ldr	r0, [r4, #88]	; 0x58
 800539a:	f000 f9a9 	bl	80056f0 <__retarget_lock_release_recursive>
 800539e:	4628      	mov	r0, r5
 80053a0:	bd70      	pop	{r4, r5, r6, pc}
 80053a2:	2b00      	cmp	r3, #0
 80053a4:	da04      	bge.n	80053b0 <_puts_r+0x84>
 80053a6:	69a2      	ldr	r2, [r4, #24]
 80053a8:	429a      	cmp	r2, r3
 80053aa:	dc06      	bgt.n	80053ba <_puts_r+0x8e>
 80053ac:	290a      	cmp	r1, #10
 80053ae:	d004      	beq.n	80053ba <_puts_r+0x8e>
 80053b0:	6823      	ldr	r3, [r4, #0]
 80053b2:	1c5a      	adds	r2, r3, #1
 80053b4:	6022      	str	r2, [r4, #0]
 80053b6:	7019      	strb	r1, [r3, #0]
 80053b8:	e7cf      	b.n	800535a <_puts_r+0x2e>
 80053ba:	4622      	mov	r2, r4
 80053bc:	4628      	mov	r0, r5
 80053be:	f000 f888 	bl	80054d2 <__swbuf_r>
 80053c2:	3001      	adds	r0, #1
 80053c4:	d1c9      	bne.n	800535a <_puts_r+0x2e>
 80053c6:	e7df      	b.n	8005388 <_puts_r+0x5c>
 80053c8:	6823      	ldr	r3, [r4, #0]
 80053ca:	250a      	movs	r5, #10
 80053cc:	1c5a      	adds	r2, r3, #1
 80053ce:	6022      	str	r2, [r4, #0]
 80053d0:	701d      	strb	r5, [r3, #0]
 80053d2:	e7db      	b.n	800538c <_puts_r+0x60>

080053d4 <puts>:
 80053d4:	4b02      	ldr	r3, [pc, #8]	; (80053e0 <puts+0xc>)
 80053d6:	4601      	mov	r1, r0
 80053d8:	6818      	ldr	r0, [r3, #0]
 80053da:	f7ff bfa7 	b.w	800532c <_puts_r>
 80053de:	bf00      	nop
 80053e0:	2000006c 	.word	0x2000006c

080053e4 <sniprintf>:
 80053e4:	b40c      	push	{r2, r3}
 80053e6:	b530      	push	{r4, r5, lr}
 80053e8:	4b17      	ldr	r3, [pc, #92]	; (8005448 <sniprintf+0x64>)
 80053ea:	1e0c      	subs	r4, r1, #0
 80053ec:	681d      	ldr	r5, [r3, #0]
 80053ee:	b09d      	sub	sp, #116	; 0x74
 80053f0:	da08      	bge.n	8005404 <sniprintf+0x20>
 80053f2:	238b      	movs	r3, #139	; 0x8b
 80053f4:	602b      	str	r3, [r5, #0]
 80053f6:	f04f 30ff 	mov.w	r0, #4294967295
 80053fa:	b01d      	add	sp, #116	; 0x74
 80053fc:	e8bd 4030 	ldmia.w	sp!, {r4, r5, lr}
 8005400:	b002      	add	sp, #8
 8005402:	4770      	bx	lr
 8005404:	f44f 7302 	mov.w	r3, #520	; 0x208
 8005408:	f8ad 3014 	strh.w	r3, [sp, #20]
 800540c:	bf14      	ite	ne
 800540e:	f104 33ff 	addne.w	r3, r4, #4294967295
 8005412:	4623      	moveq	r3, r4
 8005414:	9304      	str	r3, [sp, #16]
 8005416:	9307      	str	r3, [sp, #28]
 8005418:	f64f 73ff 	movw	r3, #65535	; 0xffff
 800541c:	9002      	str	r0, [sp, #8]
 800541e:	9006      	str	r0, [sp, #24]
 8005420:	f8ad 3016 	strh.w	r3, [sp, #22]
 8005424:	9a20      	ldr	r2, [sp, #128]	; 0x80
 8005426:	ab21      	add	r3, sp, #132	; 0x84
 8005428:	a902      	add	r1, sp, #8
 800542a:	4628      	mov	r0, r5
 800542c:	9301      	str	r3, [sp, #4]
 800542e:	f000 fac1 	bl	80059b4 <_svfiprintf_r>
 8005432:	1c43      	adds	r3, r0, #1
 8005434:	bfbc      	itt	lt
 8005436:	238b      	movlt	r3, #139	; 0x8b
 8005438:	602b      	strlt	r3, [r5, #0]
 800543a:	2c00      	cmp	r4, #0
 800543c:	d0dd      	beq.n	80053fa <sniprintf+0x16>
 800543e:	9b02      	ldr	r3, [sp, #8]
 8005440:	2200      	movs	r2, #0
 8005442:	701a      	strb	r2, [r3, #0]
 8005444:	e7d9      	b.n	80053fa <sniprintf+0x16>
 8005446:	bf00      	nop
 8005448:	2000006c 	.word	0x2000006c

0800544c <__sread>:
 800544c:	b510      	push	{r4, lr}
 800544e:	460c      	mov	r4, r1
 8005450:	f9b1 100e 	ldrsh.w	r1, [r1, #14]
 8005454:	f000 f8fc 	bl	8005650 <_read_r>
 8005458:	2800      	cmp	r0, #0
 800545a:	bfab      	itete	ge
 800545c:	6d63      	ldrge	r3, [r4, #84]	; 0x54
 800545e:	89a3      	ldrhlt	r3, [r4, #12]
 8005460:	181b      	addge	r3, r3, r0
 8005462:	f423 5380 	biclt.w	r3, r3, #4096	; 0x1000
 8005466:	bfac      	ite	ge
 8005468:	6563      	strge	r3, [r4, #84]	; 0x54
 800546a:	81a3      	strhlt	r3, [r4, #12]
 800546c:	bd10      	pop	{r4, pc}

0800546e <__swrite>:
 800546e:	e92d 41f0 	stmdb	sp!, {r4, r5, r6, r7, r8, lr}
 8005472:	461f      	mov	r7, r3
 8005474:	898b      	ldrh	r3, [r1, #12]
 8005476:	05db      	lsls	r3, r3, #23
 8005478:	4605      	mov	r5, r0
 800547a:	460c      	mov	r4, r1
 800547c:	4616      	mov	r6, r2
 800547e:	d505      	bpl.n	800548c <__swrite+0x1e>
 8005480:	f9b1 100e 	ldrsh.w	r1, [r1, #14]
 8005484:	2302      	movs	r3, #2
 8005486:	2200      	movs	r2, #0
 8005488:	f000 f8d0 	bl	800562c <_lseek_r>
 800548c:	89a3      	ldrh	r3, [r4, #12]
 800548e:	f9b4 100e 	ldrsh.w	r1, [r4, #14]
 8005492:	f423 5380 	bic.w	r3, r3, #4096	; 0x1000
 8005496:	81a3      	strh	r3, [r4, #12]
 8005498:	4632      	mov	r2, r6
 800549a:	463b      	mov	r3, r7
 800549c:	4628      	mov	r0, r5
 800549e:	e8bd 41f0 	ldmia.w	sp!, {r4, r5, r6, r7, r8, lr}
 80054a2:	f000 b8e7 	b.w	8005674 <_write_r>

080054a6 <__sseek>:
 80054a6:	b510      	push	{r4, lr}
 80054a8:	460c      	mov	r4, r1
 80054aa:	f9b1 100e 	ldrsh.w	r1, [r1, #14]
 80054ae:	f000 f8bd 	bl	800562c <_lseek_r>
 80054b2:	1c43      	adds	r3, r0, #1
 80054b4:	89a3      	ldrh	r3, [r4, #12]
 80054b6:	bf15      	itete	ne
 80054b8:	6560      	strne	r0, [r4, #84]	; 0x54
 80054ba:	f423 5380 	biceq.w	r3, r3, #4096	; 0x1000
 80054be:	f443 5380 	orrne.w	r3, r3, #4096	; 0x1000
 80054c2:	81a3      	strheq	r3, [r4, #12]
 80054c4:	bf18      	it	ne
 80054c6:	81a3      	strhne	r3, [r4, #12]
 80054c8:	bd10      	pop	{r4, pc}

080054ca <__sclose>:
 80054ca:	f9b1 100e 	ldrsh.w	r1, [r1, #14]
 80054ce:	f000 b89d 	b.w	800560c <_close_r>

080054d2 <__swbuf_r>:
 80054d2:	b5f8      	push	{r3, r4, r5, r6, r7, lr}
 80054d4:	460e      	mov	r6, r1
 80054d6:	4614      	mov	r4, r2
 80054d8:	4605      	mov	r5, r0
 80054da:	b118      	cbz	r0, 80054e4 <__swbuf_r+0x12>
 80054dc:	6a03      	ldr	r3, [r0, #32]
 80054de:	b90b      	cbnz	r3, 80054e4 <__swbuf_r+0x12>
 80054e0:	f7ff fed4 	bl	800528c <__sinit>
 80054e4:	69a3      	ldr	r3, [r4, #24]
 80054e6:	60a3      	str	r3, [r4, #8]
 80054e8:	89a3      	ldrh	r3, [r4, #12]
 80054ea:	071a      	lsls	r2, r3, #28
 80054ec:	d525      	bpl.n	800553a <__swbuf_r+0x68>
 80054ee:	6923      	ldr	r3, [r4, #16]
 80054f0:	b31b      	cbz	r3, 800553a <__swbuf_r+0x68>
 80054f2:	6823      	ldr	r3, [r4, #0]
 80054f4:	6922      	ldr	r2, [r4, #16]
 80054f6:	1a98      	subs	r0, r3, r2
 80054f8:	6963      	ldr	r3, [r4, #20]
 80054fa:	b2f6      	uxtb	r6, r6
 80054fc:	4283      	cmp	r3, r0
 80054fe:	4637      	mov	r7, r6
 8005500:	dc04      	bgt.n	800550c <__swbuf_r+0x3a>
 8005502:	4621      	mov	r1, r4
 8005504:	4628      	mov	r0, r5
 8005506:	f000 fead 	bl	8006264 <_fflush_r>
 800550a:	b9e0      	cbnz	r0, 8005546 <__swbuf_r+0x74>
 800550c:	68a3      	ldr	r3, [r4, #8]
 800550e:	3b01      	subs	r3, #1
 8005510:	60a3      	str	r3, [r4, #8]
 8005512:	6823      	ldr	r3, [r4, #0]
 8005514:	1c5a      	adds	r2, r3, #1
 8005516:	6022      	str	r2, [r4, #0]
 8005518:	701e      	strb	r6, [r3, #0]
 800551a:	6962      	ldr	r2, [r4, #20]
 800551c:	1c43      	adds	r3, r0, #1
 800551e:	429a      	cmp	r2, r3
 8005520:	d004      	beq.n	800552c <__swbuf_r+0x5a>
 8005522:	89a3      	ldrh	r3, [r4, #12]
 8005524:	07db      	lsls	r3, r3, #31
 8005526:	d506      	bpl.n	8005536 <__swbuf_r+0x64>
 8005528:	2e0a      	cmp	r6, #10
 800552a:	d104      	bne.n	8005536 <__swbuf_r+0x64>
 800552c:	4621      	mov	r1, r4
 800552e:	4628      	mov	r0, r5
 8005530:	f000 fe98 	bl	8006264 <_fflush_r>
 8005534:	b938      	cbnz	r0, 8005546 <__swbuf_r+0x74>
 8005536:	4638      	mov	r0, r7
 8005538:	bdf8      	pop	{r3, r4, r5, r6, r7, pc}
 800553a:	4621      	mov	r1, r4
 800553c:	4628      	mov	r0, r5
 800553e:	f000 f805 	bl	800554c <__swsetup_r>
 8005542:	2800      	cmp	r0, #0
 8005544:	d0d5      	beq.n	80054f2 <__swbuf_r+0x20>
 8005546:	f04f 37ff 	mov.w	r7, #4294967295
 800554a:	e7f4      	b.n	8005536 <__swbuf_r+0x64>

0800554c <__swsetup_r>:
 800554c:	b538      	push	{r3, r4, r5, lr}
 800554e:	4b2a      	ldr	r3, [pc, #168]	; (80055f8 <__swsetup_r+0xac>)
 8005550:	4605      	mov	r5, r0
 8005552:	6818      	ldr	r0, [r3, #0]
 8005554:	460c      	mov	r4, r1
 8005556:	b118      	cbz	r0, 8005560 <__swsetup_r+0x14>
 8005558:	6a03      	ldr	r3, [r0, #32]
 800555a:	b90b      	cbnz	r3, 8005560 <__swsetup_r+0x14>
 800555c:	f7ff fe96 	bl	800528c <__sinit>
 8005560:	89a3      	ldrh	r3, [r4, #12]
 8005562:	f9b4 200c 	ldrsh.w	r2, [r4, #12]
 8005566:	0718      	lsls	r0, r3, #28
 8005568:	d422      	bmi.n	80055b0 <__swsetup_r+0x64>
 800556a:	06d9      	lsls	r1, r3, #27
 800556c:	d407      	bmi.n	800557e <__swsetup_r+0x32>
 800556e:	2309      	movs	r3, #9
 8005570:	602b      	str	r3, [r5, #0]
 8005572:	f042 0340 	orr.w	r3, r2, #64	; 0x40
 8005576:	81a3      	strh	r3, [r4, #12]
 8005578:	f04f 30ff 	mov.w	r0, #4294967295
 800557c:	e034      	b.n	80055e8 <__swsetup_r+0x9c>
 800557e:	0758      	lsls	r0, r3, #29
 8005580:	d512      	bpl.n	80055a8 <__swsetup_r+0x5c>
 8005582:	6b61      	ldr	r1, [r4, #52]	; 0x34
 8005584:	b141      	cbz	r1, 8005598 <__swsetup_r+0x4c>
 8005586:	f104 0344 	add.w	r3, r4, #68	; 0x44
 800558a:	4299      	cmp	r1, r3
 800558c:	d002      	beq.n	8005594 <__swsetup_r+0x48>
 800558e:	4628      	mov	r0, r5
 8005590:	f000 f8be 	bl	8005710 <_free_r>
 8005594:	2300      	movs	r3, #0
 8005596:	6363      	str	r3, [r4, #52]	; 0x34
 8005598:	89a3      	ldrh	r3, [r4, #12]
 800559a:	f023 0324 	bic.w	r3, r3, #36	; 0x24
 800559e:	81a3      	strh	r3, [r4, #12]
 80055a0:	2300      	movs	r3, #0
 80055a2:	6063      	str	r3, [r4, #4]
 80055a4:	6923      	ldr	r3, [r4, #16]
 80055a6:	6023      	str	r3, [r4, #0]
 80055a8:	89a3      	ldrh	r3, [r4, #12]
 80055aa:	f043 0308 	orr.w	r3, r3, #8
 80055ae:	81a3      	strh	r3, [r4, #12]
 80055b0:	6923      	ldr	r3, [r4, #16]
 80055b2:	b94b      	cbnz	r3, 80055c8 <__swsetup_r+0x7c>
 80055b4:	89a3      	ldrh	r3, [r4, #12]
 80055b6:	f403 7320 	and.w	r3, r3, #640	; 0x280
 80055ba:	f5b3 7f00 	cmp.w	r3, #512	; 0x200
 80055be:	d003      	beq.n	80055c8 <__swsetup_r+0x7c>
 80055c0:	4621      	mov	r1, r4
 80055c2:	4628      	mov	r0, r5
 80055c4:	f000 fe9c 	bl	8006300 <__smakebuf_r>
 80055c8:	89a0      	ldrh	r0, [r4, #12]
 80055ca:	f9b4 200c 	ldrsh.w	r2, [r4, #12]
 80055ce:	f010 0301 	ands.w	r3, r0, #1
 80055d2:	d00a      	beq.n	80055ea <__swsetup_r+0x9e>
 80055d4:	2300      	movs	r3, #0
 80055d6:	60a3      	str	r3, [r4, #8]
 80055d8:	6963      	ldr	r3, [r4, #20]
 80055da:	425b      	negs	r3, r3
 80055dc:	61a3      	str	r3, [r4, #24]
 80055de:	6923      	ldr	r3, [r4, #16]
 80055e0:	b943      	cbnz	r3, 80055f4 <__swsetup_r+0xa8>
 80055e2:	f010 0080 	ands.w	r0, r0, #128	; 0x80
 80055e6:	d1c4      	bne.n	8005572 <__swsetup_r+0x26>
 80055e8:	bd38      	pop	{r3, r4, r5, pc}
 80055ea:	0781      	lsls	r1, r0, #30
 80055ec:	bf58      	it	pl
 80055ee:	6963      	ldrpl	r3, [r4, #20]
 80055f0:	60a3      	str	r3, [r4, #8]
 80055f2:	e7f4      	b.n	80055de <__swsetup_r+0x92>
 80055f4:	2000      	movs	r0, #0
 80055f6:	e7f7      	b.n	80055e8 <__swsetup_r+0x9c>
 80055f8:	2000006c 	.word	0x2000006c

080055fc <memset>:
 80055fc:	4402      	add	r2, r0
 80055fe:	4603      	mov	r3, r0
 8005600:	4293      	cmp	r3, r2
 8005602:	d100      	bne.n	8005606 <memset+0xa>
 8005604:	4770      	bx	lr
 8005606:	f803 1b01 	strb.w	r1, [r3], #1
 800560a:	e7f9      	b.n	8005600 <memset+0x4>

0800560c <_close_r>:
 800560c:	b538      	push	{r3, r4, r5, lr}
 800560e:	4d06      	ldr	r5, [pc, #24]	; (8005628 <_close_r+0x1c>)
 8005610:	2300      	movs	r3, #0
 8005612:	4604      	mov	r4, r0
 8005614:	4608      	mov	r0, r1
 8005616:	602b      	str	r3, [r5, #0]
 8005618:	f7fb f94f 	bl	80008ba <_close>
 800561c:	1c43      	adds	r3, r0, #1
 800561e:	d102      	bne.n	8005626 <_close_r+0x1a>
 8005620:	682b      	ldr	r3, [r5, #0]
 8005622:	b103      	cbz	r3, 8005626 <_close_r+0x1a>
 8005624:	6023      	str	r3, [r4, #0]
 8005626:	bd38      	pop	{r3, r4, r5, pc}
 8005628:	20004cbc 	.word	0x20004cbc

0800562c <_lseek_r>:
 800562c:	b538      	push	{r3, r4, r5, lr}
 800562e:	4d07      	ldr	r5, [pc, #28]	; (800564c <_lseek_r+0x20>)
 8005630:	4604      	mov	r4, r0
 8005632:	4608      	mov	r0, r1
 8005634:	4611      	mov	r1, r2
 8005636:	2200      	movs	r2, #0
 8005638:	602a      	str	r2, [r5, #0]
 800563a:	461a      	mov	r2, r3
 800563c:	f7fb f947 	bl	80008ce <_lseek>
 8005640:	1c43      	adds	r3, r0, #1
 8005642:	d102      	bne.n	800564a <_lseek_r+0x1e>
 8005644:	682b      	ldr	r3, [r5, #0]
 8005646:	b103      	cbz	r3, 800564a <_lseek_r+0x1e>
 8005648:	6023      	str	r3, [r4, #0]
 800564a:	bd38      	pop	{r3, r4, r5, pc}
 800564c:	20004cbc 	.word	0x20004cbc

08005650 <_read_r>:
 8005650:	b538      	push	{r3, r4, r5, lr}
 8005652:	4d07      	ldr	r5, [pc, #28]	; (8005670 <_read_r+0x20>)
 8005654:	4604      	mov	r4, r0
 8005656:	4608      	mov	r0, r1
 8005658:	4611      	mov	r1, r2
 800565a:	2200      	movs	r2, #0
 800565c:	602a      	str	r2, [r5, #0]
 800565e:	461a      	mov	r2, r3
 8005660:	f7fb f90f 	bl	8000882 <_read>
 8005664:	1c43      	adds	r3, r0, #1
 8005666:	d102      	bne.n	800566e <_read_r+0x1e>
 8005668:	682b      	ldr	r3, [r5, #0]
 800566a:	b103      	cbz	r3, 800566e <_read_r+0x1e>
 800566c:	6023      	str	r3, [r4, #0]
 800566e:	bd38      	pop	{r3, r4, r5, pc}
 8005670:	20004cbc 	.word	0x20004cbc

08005674 <_write_r>:
 8005674:	b538      	push	{r3, r4, r5, lr}
 8005676:	4d07      	ldr	r5, [pc, #28]	; (8005694 <_write_r+0x20>)
 8005678:	4604      	mov	r4, r0
 800567a:	4608      	mov	r0, r1
 800567c:	4611      	mov	r1, r2
 800567e:	2200      	movs	r2, #0
 8005680:	602a      	str	r2, [r5, #0]
 8005682:	461a      	mov	r2, r3
 8005684:	f7fb f90b 	bl	800089e <_write>
 8005688:	1c43      	adds	r3, r0, #1
 800568a:	d102      	bne.n	8005692 <_write_r+0x1e>
 800568c:	682b      	ldr	r3, [r5, #0]
 800568e:	b103      	cbz	r3, 8005692 <_write_r+0x1e>
 8005690:	6023      	str	r3, [r4, #0]
 8005692:	bd38      	pop	{r3, r4, r5, pc}
 8005694:	20004cbc 	.word	0x20004cbc

08005698 <__errno>:
 8005698:	4b01      	ldr	r3, [pc, #4]	; (80056a0 <__errno+0x8>)
 800569a:	6818      	ldr	r0, [r3, #0]
 800569c:	4770      	bx	lr
 800569e:	bf00      	nop
 80056a0:	2000006c 	.word	0x2000006c

080056a4 <__libc_init_array>:
 80056a4:	b570      	push	{r4, r5, r6, lr}
 80056a6:	4d0d      	ldr	r5, [pc, #52]	; (80056dc <__libc_init_array+0x38>)
 80056a8:	4c0d      	ldr	r4, [pc, #52]	; (80056e0 <__libc_init_array+0x3c>)
 80056aa:	1b64      	subs	r4, r4, r5
 80056ac:	10a4      	asrs	r4, r4, #2
 80056ae:	2600      	movs	r6, #0
 80056b0:	42a6      	cmp	r6, r4
 80056b2:	d109      	bne.n	80056c8 <__libc_init_array+0x24>
 80056b4:	4d0b      	ldr	r5, [pc, #44]	; (80056e4 <__libc_init_array+0x40>)
 80056b6:	4c0c      	ldr	r4, [pc, #48]	; (80056e8 <__libc_init_array+0x44>)
 80056b8:	f000 ff16 	bl	80064e8 <_init>
 80056bc:	1b64      	subs	r4, r4, r5
 80056be:	10a4      	asrs	r4, r4, #2
 80056c0:	2600      	movs	r6, #0
 80056c2:	42a6      	cmp	r6, r4
 80056c4:	d105      	bne.n	80056d2 <__libc_init_array+0x2e>
 80056c6:	bd70      	pop	{r4, r5, r6, pc}
 80056c8:	f855 3b04 	ldr.w	r3, [r5], #4
 80056cc:	4798      	blx	r3
 80056ce:	3601      	adds	r6, #1
 80056d0:	e7ee      	b.n	80056b0 <__libc_init_array+0xc>
 80056d2:	f855 3b04 	ldr.w	r3, [r5], #4
 80056d6:	4798      	blx	r3
 80056d8:	3601      	adds	r6, #1
 80056da:	e7f2      	b.n	80056c2 <__libc_init_array+0x1e>
 80056dc:	0800684c 	.word	0x0800684c
 80056e0:	0800684c 	.word	0x0800684c
 80056e4:	0800684c 	.word	0x0800684c
 80056e8:	08006850 	.word	0x08006850

080056ec <__retarget_lock_init_recursive>:
 80056ec:	4770      	bx	lr

080056ee <__retarget_lock_acquire_recursive>:
 80056ee:	4770      	bx	lr

080056f0 <__retarget_lock_release_recursive>:
 80056f0:	4770      	bx	lr

080056f2 <memcpy>:
 80056f2:	440a      	add	r2, r1
 80056f4:	4291      	cmp	r1, r2
 80056f6:	f100 33ff 	add.w	r3, r0, #4294967295
 80056fa:	d100      	bne.n	80056fe <memcpy+0xc>
 80056fc:	4770      	bx	lr
 80056fe:	b510      	push	{r4, lr}
 8005700:	f811 4b01 	ldrb.w	r4, [r1], #1
 8005704:	f803 4f01 	strb.w	r4, [r3, #1]!
 8005708:	4291      	cmp	r1, r2
 800570a:	d1f9      	bne.n	8005700 <memcpy+0xe>
 800570c:	bd10      	pop	{r4, pc}
	...

08005710 <_free_r>:
 8005710:	b537      	push	{r0, r1, r2, r4, r5, lr}
 8005712:	2900      	cmp	r1, #0
 8005714:	d044      	beq.n	80057a0 <_free_r+0x90>
 8005716:	f851 3c04 	ldr.w	r3, [r1, #-4]
 800571a:	9001      	str	r0, [sp, #4]
 800571c:	2b00      	cmp	r3, #0
 800571e:	f1a1 0404 	sub.w	r4, r1, #4
 8005722:	bfb8      	it	lt
 8005724:	18e4      	addlt	r4, r4, r3
 8005726:	f000 f8df 	bl	80058e8 <__malloc_lock>
 800572a:	4a1e      	ldr	r2, [pc, #120]	; (80057a4 <_free_r+0x94>)
 800572c:	9801      	ldr	r0, [sp, #4]
 800572e:	6813      	ldr	r3, [r2, #0]
 8005730:	b933      	cbnz	r3, 8005740 <_free_r+0x30>
 8005732:	6063      	str	r3, [r4, #4]
 8005734:	6014      	str	r4, [r2, #0]
 8005736:	b003      	add	sp, #12
 8005738:	e8bd 4030 	ldmia.w	sp!, {r4, r5, lr}
 800573c:	f000 b8da 	b.w	80058f4 <__malloc_unlock>
 8005740:	42a3      	cmp	r3, r4
 8005742:	d908      	bls.n	8005756 <_free_r+0x46>
 8005744:	6825      	ldr	r5, [r4, #0]
 8005746:	1961      	adds	r1, r4, r5
 8005748:	428b      	cmp	r3, r1
 800574a:	bf01      	itttt	eq
 800574c:	6819      	ldreq	r1, [r3, #0]
 800574e:	685b      	ldreq	r3, [r3, #4]
 8005750:	1949      	addeq	r1, r1, r5
 8005752:	6021      	streq	r1, [r4, #0]
 8005754:	e7ed      	b.n	8005732 <_free_r+0x22>
 8005756:	461a      	mov	r2, r3
 8005758:	685b      	ldr	r3, [r3, #4]
 800575a:	b10b      	cbz	r3, 8005760 <_free_r+0x50>
 800575c:	42a3      	cmp	r3, r4
 800575e:	d9fa      	bls.n	8005756 <_free_r+0x46>
 8005760:	6811      	ldr	r1, [r2, #0]
 8005762:	1855      	adds	r5, r2, r1
 8005764:	42a5      	cmp	r5, r4
 8005766:	d10b      	bne.n	8005780 <_free_r+0x70>
 8005768:	6824      	ldr	r4, [r4, #0]
 800576a:	4421      	add	r1, r4
 800576c:	1854      	adds	r4, r2, r1
 800576e:	42a3      	cmp	r3, r4
 8005770:	6011      	str	r1, [r2, #0]
 8005772:	d1e0      	bne.n	8005736 <_free_r+0x26>
 8005774:	681c      	ldr	r4, [r3, #0]
 8005776:	685b      	ldr	r3, [r3, #4]
 8005778:	6053      	str	r3, [r2, #4]
 800577a:	440c      	add	r4, r1
 800577c:	6014      	str	r4, [r2, #0]
 800577e:	e7da      	b.n	8005736 <_free_r+0x26>
 8005780:	d902      	bls.n	8005788 <_free_r+0x78>
 8005782:	230c      	movs	r3, #12
 8005784:	6003      	str	r3, [r0, #0]
 8005786:	e7d6      	b.n	8005736 <_free_r+0x26>
 8005788:	6825      	ldr	r5, [r4, #0]
 800578a:	1961      	adds	r1, r4, r5
 800578c:	428b      	cmp	r3, r1
 800578e:	bf04      	itt	eq
 8005790:	6819      	ldreq	r1, [r3, #0]
 8005792:	685b      	ldreq	r3, [r3, #4]
 8005794:	6063      	str	r3, [r4, #4]
 8005796:	bf04      	itt	eq
 8005798:	1949      	addeq	r1, r1, r5
 800579a:	6021      	streq	r1, [r4, #0]
 800579c:	6054      	str	r4, [r2, #4]
 800579e:	e7ca      	b.n	8005736 <_free_r+0x26>
 80057a0:	b003      	add	sp, #12
 80057a2:	bd30      	pop	{r4, r5, pc}
 80057a4:	20004cc4 	.word	0x20004cc4

080057a8 <sbrk_aligned>:
 80057a8:	b570      	push	{r4, r5, r6, lr}
 80057aa:	4e0e      	ldr	r6, [pc, #56]	; (80057e4 <sbrk_aligned+0x3c>)
 80057ac:	460c      	mov	r4, r1
 80057ae:	6831      	ldr	r1, [r6, #0]
 80057b0:	4605      	mov	r5, r0
 80057b2:	b911      	cbnz	r1, 80057ba <sbrk_aligned+0x12>
 80057b4:	f000 fe50 	bl	8006458 <_sbrk_r>
 80057b8:	6030      	str	r0, [r6, #0]
 80057ba:	4621      	mov	r1, r4
 80057bc:	4628      	mov	r0, r5
 80057be:	f000 fe4b 	bl	8006458 <_sbrk_r>
 80057c2:	1c43      	adds	r3, r0, #1
 80057c4:	d00a      	beq.n	80057dc <sbrk_aligned+0x34>
 80057c6:	1cc4      	adds	r4, r0, #3
 80057c8:	f024 0403 	bic.w	r4, r4, #3
 80057cc:	42a0      	cmp	r0, r4
 80057ce:	d007      	beq.n	80057e0 <sbrk_aligned+0x38>
 80057d0:	1a21      	subs	r1, r4, r0
 80057d2:	4628      	mov	r0, r5
 80057d4:	f000 fe40 	bl	8006458 <_sbrk_r>
 80057d8:	3001      	adds	r0, #1
 80057da:	d101      	bne.n	80057e0 <sbrk_aligned+0x38>
 80057dc:	f04f 34ff 	mov.w	r4, #4294967295
 80057e0:	4620      	mov	r0, r4
 80057e2:	bd70      	pop	{r4, r5, r6, pc}
 80057e4:	20004cc8 	.word	0x20004cc8

080057e8 <_malloc_r>:
 80057e8:	e92d 43f8 	stmdb	sp!, {r3, r4, r5, r6, r7, r8, r9, lr}
 80057ec:	1ccd      	adds	r5, r1, #3
 80057ee:	f025 0503 	bic.w	r5, r5, #3
 80057f2:	3508      	adds	r5, #8
 80057f4:	2d0c      	cmp	r5, #12
 80057f6:	bf38      	it	cc
 80057f8:	250c      	movcc	r5, #12
 80057fa:	2d00      	cmp	r5, #0
 80057fc:	4607      	mov	r7, r0
 80057fe:	db01      	blt.n	8005804 <_malloc_r+0x1c>
 8005800:	42a9      	cmp	r1, r5
 8005802:	d905      	bls.n	8005810 <_malloc_r+0x28>
 8005804:	230c      	movs	r3, #12
 8005806:	603b      	str	r3, [r7, #0]
 8005808:	2600      	movs	r6, #0
 800580a:	4630      	mov	r0, r6
 800580c:	e8bd 83f8 	ldmia.w	sp!, {r3, r4, r5, r6, r7, r8, r9, pc}
 8005810:	f8df 80d0 	ldr.w	r8, [pc, #208]	; 80058e4 <_malloc_r+0xfc>
 8005814:	f000 f868 	bl	80058e8 <__malloc_lock>
 8005818:	f8d8 3000 	ldr.w	r3, [r8]
 800581c:	461c      	mov	r4, r3
 800581e:	bb5c      	cbnz	r4, 8005878 <_malloc_r+0x90>
 8005820:	4629      	mov	r1, r5
 8005822:	4638      	mov	r0, r7
 8005824:	f7ff ffc0 	bl	80057a8 <sbrk_aligned>
 8005828:	1c43      	adds	r3, r0, #1
 800582a:	4604      	mov	r4, r0
 800582c:	d155      	bne.n	80058da <_malloc_r+0xf2>
 800582e:	f8d8 4000 	ldr.w	r4, [r8]
 8005832:	4626      	mov	r6, r4
 8005834:	2e00      	cmp	r6, #0
 8005836:	d145      	bne.n	80058c4 <_malloc_r+0xdc>
 8005838:	2c00      	cmp	r4, #0
 800583a:	d048      	beq.n	80058ce <_malloc_r+0xe6>
 800583c:	6823      	ldr	r3, [r4, #0]
 800583e:	4631      	mov	r1, r6
 8005840:	4638      	mov	r0, r7
 8005842:	eb04 0903 	add.w	r9, r4, r3
 8005846:	f000 fe07 	bl	8006458 <_sbrk_r>
 800584a:	4581      	cmp	r9, r0
 800584c:	d13f      	bne.n	80058ce <_malloc_r+0xe6>
 800584e:	6821      	ldr	r1, [r4, #0]
 8005850:	1a6d      	subs	r5, r5, r1
 8005852:	4629      	mov	r1, r5
 8005854:	4638      	mov	r0, r7
 8005856:	f7ff ffa7 	bl	80057a8 <sbrk_aligned>
 800585a:	3001      	adds	r0, #1
 800585c:	d037      	beq.n	80058ce <_malloc_r+0xe6>
 800585e:	6823      	ldr	r3, [r4, #0]
 8005860:	442b      	add	r3, r5
 8005862:	6023      	str	r3, [r4, #0]
 8005864:	f8d8 3000 	ldr.w	r3, [r8]
 8005868:	2b00      	cmp	r3, #0
 800586a:	d038      	beq.n	80058de <_malloc_r+0xf6>
 800586c:	685a      	ldr	r2, [r3, #4]
 800586e:	42a2      	cmp	r2, r4
 8005870:	d12b      	bne.n	80058ca <_malloc_r+0xe2>
 8005872:	2200      	movs	r2, #0
 8005874:	605a      	str	r2, [r3, #4]
 8005876:	e00f      	b.n	8005898 <_malloc_r+0xb0>
 8005878:	6822      	ldr	r2, [r4, #0]
 800587a:	1b52      	subs	r2, r2, r5
 800587c:	d41f      	bmi.n	80058be <_malloc_r+0xd6>
 800587e:	2a0b      	cmp	r2, #11
 8005880:	d917      	bls.n	80058b2 <_malloc_r+0xca>
 8005882:	1961      	adds	r1, r4, r5
 8005884:	42a3      	cmp	r3, r4
 8005886:	6025      	str	r5, [r4, #0]
 8005888:	bf18      	it	ne
 800588a:	6059      	strne	r1, [r3, #4]
 800588c:	6863      	ldr	r3, [r4, #4]
 800588e:	bf08      	it	eq
 8005890:	f8c8 1000 	streq.w	r1, [r8]
 8005894:	5162      	str	r2, [r4, r5]
 8005896:	604b      	str	r3, [r1, #4]
 8005898:	4638      	mov	r0, r7
 800589a:	f104 060b 	add.w	r6, r4, #11
 800589e:	f000 f829 	bl	80058f4 <__malloc_unlock>
 80058a2:	f026 0607 	bic.w	r6, r6, #7
 80058a6:	1d23      	adds	r3, r4, #4
 80058a8:	1af2      	subs	r2, r6, r3
 80058aa:	d0ae      	beq.n	800580a <_malloc_r+0x22>
 80058ac:	1b9b      	subs	r3, r3, r6
 80058ae:	50a3      	str	r3, [r4, r2]
 80058b0:	e7ab      	b.n	800580a <_malloc_r+0x22>
 80058b2:	42a3      	cmp	r3, r4
 80058b4:	6862      	ldr	r2, [r4, #4]
 80058b6:	d1dd      	bne.n	8005874 <_malloc_r+0x8c>
 80058b8:	f8c8 2000 	str.w	r2, [r8]
 80058bc:	e7ec      	b.n	8005898 <_malloc_r+0xb0>
 80058be:	4623      	mov	r3, r4
 80058c0:	6864      	ldr	r4, [r4, #4]
 80058c2:	e7ac      	b.n	800581e <_malloc_r+0x36>
 80058c4:	4634      	mov	r4, r6
 80058c6:	6876      	ldr	r6, [r6, #4]
 80058c8:	e7b4      	b.n	8005834 <_malloc_r+0x4c>
 80058ca:	4613      	mov	r3, r2
 80058cc:	e7cc      	b.n	8005868 <_malloc_r+0x80>
 80058ce:	230c      	movs	r3, #12
 80058d0:	603b      	str	r3, [r7, #0]
 80058d2:	4638      	mov	r0, r7
 80058d4:	f000 f80e 	bl	80058f4 <__malloc_unlock>
 80058d8:	e797      	b.n	800580a <_malloc_r+0x22>
 80058da:	6025      	str	r5, [r4, #0]
 80058dc:	e7dc      	b.n	8005898 <_malloc_r+0xb0>
 80058de:	605b      	str	r3, [r3, #4]
 80058e0:	deff      	udf	#255	; 0xff
 80058e2:	bf00      	nop
 80058e4:	20004cc4 	.word	0x20004cc4

080058e8 <__malloc_lock>:
 80058e8:	4801      	ldr	r0, [pc, #4]	; (80058f0 <__malloc_lock+0x8>)
 80058ea:	f7ff bf00 	b.w	80056ee <__retarget_lock_acquire_recursive>
 80058ee:	bf00      	nop
 80058f0:	20004cc0 	.word	0x20004cc0

080058f4 <__malloc_unlock>:
 80058f4:	4801      	ldr	r0, [pc, #4]	; (80058fc <__malloc_unlock+0x8>)
 80058f6:	f7ff befb 	b.w	80056f0 <__retarget_lock_release_recursive>
 80058fa:	bf00      	nop
 80058fc:	20004cc0 	.word	0x20004cc0

08005900 <__ssputs_r>:
 8005900:	e92d 47f0 	stmdb	sp!, {r4, r5, r6, r7, r8, r9, sl, lr}
 8005904:	688e      	ldr	r6, [r1, #8]
 8005906:	461f      	mov	r7, r3
 8005908:	42be      	cmp	r6, r7
 800590a:	680b      	ldr	r3, [r1, #0]
 800590c:	4682      	mov	sl, r0
 800590e:	460c      	mov	r4, r1
 8005910:	4690      	mov	r8, r2
 8005912:	d82c      	bhi.n	800596e <__ssputs_r+0x6e>
 8005914:	898a      	ldrh	r2, [r1, #12]
 8005916:	f412 6f90 	tst.w	r2, #1152	; 0x480
 800591a:	d026      	beq.n	800596a <__ssputs_r+0x6a>
 800591c:	6965      	ldr	r5, [r4, #20]
 800591e:	6909      	ldr	r1, [r1, #16]
 8005920:	eb05 0545 	add.w	r5, r5, r5, lsl #1
 8005924:	eba3 0901 	sub.w	r9, r3, r1
 8005928:	eb05 75d5 	add.w	r5, r5, r5, lsr #31
 800592c:	1c7b      	adds	r3, r7, #1
 800592e:	444b      	add	r3, r9
 8005930:	106d      	asrs	r5, r5, #1
 8005932:	429d      	cmp	r5, r3
 8005934:	bf38      	it	cc
 8005936:	461d      	movcc	r5, r3
 8005938:	0553      	lsls	r3, r2, #21
 800593a:	d527      	bpl.n	800598c <__ssputs_r+0x8c>
 800593c:	4629      	mov	r1, r5
 800593e:	f7ff ff53 	bl	80057e8 <_malloc_r>
 8005942:	4606      	mov	r6, r0
 8005944:	b360      	cbz	r0, 80059a0 <__ssputs_r+0xa0>
 8005946:	6921      	ldr	r1, [r4, #16]
 8005948:	464a      	mov	r2, r9
 800594a:	f7ff fed2 	bl	80056f2 <memcpy>
 800594e:	89a3      	ldrh	r3, [r4, #12]
 8005950:	f423 6390 	bic.w	r3, r3, #1152	; 0x480
 8005954:	f043 0380 	orr.w	r3, r3, #128	; 0x80
 8005958:	81a3      	strh	r3, [r4, #12]
 800595a:	6126      	str	r6, [r4, #16]
 800595c:	6165      	str	r5, [r4, #20]
 800595e:	444e      	add	r6, r9
 8005960:	eba5 0509 	sub.w	r5, r5, r9
 8005964:	6026      	str	r6, [r4, #0]
 8005966:	60a5      	str	r5, [r4, #8]
 8005968:	463e      	mov	r6, r7
 800596a:	42be      	cmp	r6, r7
 800596c:	d900      	bls.n	8005970 <__ssputs_r+0x70>
 800596e:	463e      	mov	r6, r7
 8005970:	6820      	ldr	r0, [r4, #0]
 8005972:	4632      	mov	r2, r6
 8005974:	4641      	mov	r1, r8
 8005976:	f000 fd33 	bl	80063e0 <memmove>
 800597a:	68a3      	ldr	r3, [r4, #8]
 800597c:	1b9b      	subs	r3, r3, r6
 800597e:	60a3      	str	r3, [r4, #8]
 8005980:	6823      	ldr	r3, [r4, #0]
 8005982:	4433      	add	r3, r6
 8005984:	6023      	str	r3, [r4, #0]
 8005986:	2000      	movs	r0, #0
 8005988:	e8bd 87f0 	ldmia.w	sp!, {r4, r5, r6, r7, r8, r9, sl, pc}
 800598c:	462a      	mov	r2, r5
 800598e:	f000 fd73 	bl	8006478 <_realloc_r>
 8005992:	4606      	mov	r6, r0
 8005994:	2800      	cmp	r0, #0
 8005996:	d1e0      	bne.n	800595a <__ssputs_r+0x5a>
 8005998:	6921      	ldr	r1, [r4, #16]
 800599a:	4650      	mov	r0, sl
 800599c:	f7ff feb8 	bl	8005710 <_free_r>
 80059a0:	230c      	movs	r3, #12
 80059a2:	f8ca 3000 	str.w	r3, [sl]
 80059a6:	89a3      	ldrh	r3, [r4, #12]
 80059a8:	f043 0340 	orr.w	r3, r3, #64	; 0x40
 80059ac:	81a3      	strh	r3, [r4, #12]
 80059ae:	f04f 30ff 	mov.w	r0, #4294967295
 80059b2:	e7e9      	b.n	8005988 <__ssputs_r+0x88>

080059b4 <_svfiprintf_r>:
 80059b4:	e92d 4ff0 	stmdb	sp!, {r4, r5, r6, r7, r8, r9, sl, fp, lr}
 80059b8:	4698      	mov	r8, r3
 80059ba:	898b      	ldrh	r3, [r1, #12]
 80059bc:	061b      	lsls	r3, r3, #24
 80059be:	b09d      	sub	sp, #116	; 0x74
 80059c0:	4607      	mov	r7, r0
 80059c2:	460d      	mov	r5, r1
 80059c4:	4614      	mov	r4, r2
 80059c6:	d50e      	bpl.n	80059e6 <_svfiprintf_r+0x32>
 80059c8:	690b      	ldr	r3, [r1, #16]
 80059ca:	b963      	cbnz	r3, 80059e6 <_svfiprintf_r+0x32>
 80059cc:	2140      	movs	r1, #64	; 0x40
 80059ce:	f7ff ff0b 	bl	80057e8 <_malloc_r>
 80059d2:	6028      	str	r0, [r5, #0]
 80059d4:	6128      	str	r0, [r5, #16]
 80059d6:	b920      	cbnz	r0, 80059e2 <_svfiprintf_r+0x2e>
 80059d8:	230c      	movs	r3, #12
 80059da:	603b      	str	r3, [r7, #0]
 80059dc:	f04f 30ff 	mov.w	r0, #4294967295
 80059e0:	e0d0      	b.n	8005b84 <_svfiprintf_r+0x1d0>
 80059e2:	2340      	movs	r3, #64	; 0x40
 80059e4:	616b      	str	r3, [r5, #20]
 80059e6:	2300      	movs	r3, #0
 80059e8:	9309      	str	r3, [sp, #36]	; 0x24
 80059ea:	2320      	movs	r3, #32
 80059ec:	f88d 3029 	strb.w	r3, [sp, #41]	; 0x29
 80059f0:	f8cd 800c 	str.w	r8, [sp, #12]
 80059f4:	2330      	movs	r3, #48	; 0x30
 80059f6:	f8df 81a4 	ldr.w	r8, [pc, #420]	; 8005b9c <_svfiprintf_r+0x1e8>
 80059fa:	f88d 302a 	strb.w	r3, [sp, #42]	; 0x2a
 80059fe:	f04f 0901 	mov.w	r9, #1
 8005a02:	4623      	mov	r3, r4
 8005a04:	469a      	mov	sl, r3
 8005a06:	f813 2b01 	ldrb.w	r2, [r3], #1
 8005a0a:	b10a      	cbz	r2, 8005a10 <_svfiprintf_r+0x5c>
 8005a0c:	2a25      	cmp	r2, #37	; 0x25
 8005a0e:	d1f9      	bne.n	8005a04 <_svfiprintf_r+0x50>
 8005a10:	ebba 0b04 	subs.w	fp, sl, r4
 8005a14:	d00b      	beq.n	8005a2e <_svfiprintf_r+0x7a>
 8005a16:	465b      	mov	r3, fp
 8005a18:	4622      	mov	r2, r4
 8005a1a:	4629      	mov	r1, r5
 8005a1c:	4638      	mov	r0, r7
 8005a1e:	f7ff ff6f 	bl	8005900 <__ssputs_r>
 8005a22:	3001      	adds	r0, #1
 8005a24:	f000 80a9 	beq.w	8005b7a <_svfiprintf_r+0x1c6>
 8005a28:	9a09      	ldr	r2, [sp, #36]	; 0x24
 8005a2a:	445a      	add	r2, fp
 8005a2c:	9209      	str	r2, [sp, #36]	; 0x24
 8005a2e:	f89a 3000 	ldrb.w	r3, [sl]
 8005a32:	2b00      	cmp	r3, #0
 8005a34:	f000 80a1 	beq.w	8005b7a <_svfiprintf_r+0x1c6>
 8005a38:	2300      	movs	r3, #0
 8005a3a:	f04f 32ff 	mov.w	r2, #4294967295
 8005a3e:	e9cd 2305 	strd	r2, r3, [sp, #20]
 8005a42:	f10a 0a01 	add.w	sl, sl, #1
 8005a46:	9304      	str	r3, [sp, #16]
 8005a48:	9307      	str	r3, [sp, #28]
 8005a4a:	f88d 3053 	strb.w	r3, [sp, #83]	; 0x53
 8005a4e:	931a      	str	r3, [sp, #104]	; 0x68
 8005a50:	4654      	mov	r4, sl
 8005a52:	2205      	movs	r2, #5
 8005a54:	f814 1b01 	ldrb.w	r1, [r4], #1
 8005a58:	4850      	ldr	r0, [pc, #320]	; (8005b9c <_svfiprintf_r+0x1e8>)
 8005a5a:	f7fa fbc1 	bl	80001e0 <memchr>
 8005a5e:	9a04      	ldr	r2, [sp, #16]
 8005a60:	b9d8      	cbnz	r0, 8005a9a <_svfiprintf_r+0xe6>
 8005a62:	06d0      	lsls	r0, r2, #27
 8005a64:	bf44      	itt	mi
 8005a66:	2320      	movmi	r3, #32
 8005a68:	f88d 3053 	strbmi.w	r3, [sp, #83]	; 0x53
 8005a6c:	0711      	lsls	r1, r2, #28
 8005a6e:	bf44      	itt	mi
 8005a70:	232b      	movmi	r3, #43	; 0x2b
 8005a72:	f88d 3053 	strbmi.w	r3, [sp, #83]	; 0x53
 8005a76:	f89a 3000 	ldrb.w	r3, [sl]
 8005a7a:	2b2a      	cmp	r3, #42	; 0x2a
 8005a7c:	d015      	beq.n	8005aaa <_svfiprintf_r+0xf6>
 8005a7e:	9a07      	ldr	r2, [sp, #28]
 8005a80:	4654      	mov	r4, sl
 8005a82:	2000      	movs	r0, #0
 8005a84:	f04f 0c0a 	mov.w	ip, #10
 8005a88:	4621      	mov	r1, r4
 8005a8a:	f811 3b01 	ldrb.w	r3, [r1], #1
 8005a8e:	3b30      	subs	r3, #48	; 0x30
 8005a90:	2b09      	cmp	r3, #9
 8005a92:	d94d      	bls.n	8005b30 <_svfiprintf_r+0x17c>
 8005a94:	b1b0      	cbz	r0, 8005ac4 <_svfiprintf_r+0x110>
 8005a96:	9207      	str	r2, [sp, #28]
 8005a98:	e014      	b.n	8005ac4 <_svfiprintf_r+0x110>
 8005a9a:	eba0 0308 	sub.w	r3, r0, r8
 8005a9e:	fa09 f303 	lsl.w	r3, r9, r3
 8005aa2:	4313      	orrs	r3, r2
 8005aa4:	9304      	str	r3, [sp, #16]
 8005aa6:	46a2      	mov	sl, r4
 8005aa8:	e7d2      	b.n	8005a50 <_svfiprintf_r+0x9c>
 8005aaa:	9b03      	ldr	r3, [sp, #12]
 8005aac:	1d19      	adds	r1, r3, #4
 8005aae:	681b      	ldr	r3, [r3, #0]
 8005ab0:	9103      	str	r1, [sp, #12]
 8005ab2:	2b00      	cmp	r3, #0
 8005ab4:	bfbb      	ittet	lt
 8005ab6:	425b      	neglt	r3, r3
 8005ab8:	f042 0202 	orrlt.w	r2, r2, #2
 8005abc:	9307      	strge	r3, [sp, #28]
 8005abe:	9307      	strlt	r3, [sp, #28]
 8005ac0:	bfb8      	it	lt
 8005ac2:	9204      	strlt	r2, [sp, #16]
 8005ac4:	7823      	ldrb	r3, [r4, #0]
 8005ac6:	2b2e      	cmp	r3, #46	; 0x2e
 8005ac8:	d10c      	bne.n	8005ae4 <_svfiprintf_r+0x130>
 8005aca:	7863      	ldrb	r3, [r4, #1]
 8005acc:	2b2a      	cmp	r3, #42	; 0x2a
 8005ace:	d134      	bne.n	8005b3a <_svfiprintf_r+0x186>
 8005ad0:	9b03      	ldr	r3, [sp, #12]
 8005ad2:	1d1a      	adds	r2, r3, #4
 8005ad4:	681b      	ldr	r3, [r3, #0]
 8005ad6:	9203      	str	r2, [sp, #12]
 8005ad8:	2b00      	cmp	r3, #0
 8005ada:	bfb8      	it	lt
 8005adc:	f04f 33ff 	movlt.w	r3, #4294967295
 8005ae0:	3402      	adds	r4, #2
 8005ae2:	9305      	str	r3, [sp, #20]
 8005ae4:	f8df a0c4 	ldr.w	sl, [pc, #196]	; 8005bac <_svfiprintf_r+0x1f8>
 8005ae8:	7821      	ldrb	r1, [r4, #0]
 8005aea:	2203      	movs	r2, #3
 8005aec:	4650      	mov	r0, sl
 8005aee:	f7fa fb77 	bl	80001e0 <memchr>
 8005af2:	b138      	cbz	r0, 8005b04 <_svfiprintf_r+0x150>
 8005af4:	9b04      	ldr	r3, [sp, #16]
 8005af6:	eba0 000a 	sub.w	r0, r0, sl
 8005afa:	2240      	movs	r2, #64	; 0x40
 8005afc:	4082      	lsls	r2, r0
 8005afe:	4313      	orrs	r3, r2
 8005b00:	3401      	adds	r4, #1
 8005b02:	9304      	str	r3, [sp, #16]
 8005b04:	f814 1b01 	ldrb.w	r1, [r4], #1
 8005b08:	4825      	ldr	r0, [pc, #148]	; (8005ba0 <_svfiprintf_r+0x1ec>)
 8005b0a:	f88d 1028 	strb.w	r1, [sp, #40]	; 0x28
 8005b0e:	2206      	movs	r2, #6
 8005b10:	f7fa fb66 	bl	80001e0 <memchr>
 8005b14:	2800      	cmp	r0, #0
 8005b16:	d038      	beq.n	8005b8a <_svfiprintf_r+0x1d6>
 8005b18:	4b22      	ldr	r3, [pc, #136]	; (8005ba4 <_svfiprintf_r+0x1f0>)
 8005b1a:	bb1b      	cbnz	r3, 8005b64 <_svfiprintf_r+0x1b0>
 8005b1c:	9b03      	ldr	r3, [sp, #12]
 8005b1e:	3307      	adds	r3, #7
 8005b20:	f023 0307 	bic.w	r3, r3, #7
 8005b24:	3308      	adds	r3, #8
 8005b26:	9303      	str	r3, [sp, #12]
 8005b28:	9b09      	ldr	r3, [sp, #36]	; 0x24
 8005b2a:	4433      	add	r3, r6
 8005b2c:	9309      	str	r3, [sp, #36]	; 0x24
 8005b2e:	e768      	b.n	8005a02 <_svfiprintf_r+0x4e>
 8005b30:	fb0c 3202 	mla	r2, ip, r2, r3
 8005b34:	460c      	mov	r4, r1
 8005b36:	2001      	movs	r0, #1
 8005b38:	e7a6      	b.n	8005a88 <_svfiprintf_r+0xd4>
 8005b3a:	2300      	movs	r3, #0
 8005b3c:	3401      	adds	r4, #1
 8005b3e:	9305      	str	r3, [sp, #20]
 8005b40:	4619      	mov	r1, r3
 8005b42:	f04f 0c0a 	mov.w	ip, #10
 8005b46:	4620      	mov	r0, r4
 8005b48:	f810 2b01 	ldrb.w	r2, [r0], #1
 8005b4c:	3a30      	subs	r2, #48	; 0x30
 8005b4e:	2a09      	cmp	r2, #9
 8005b50:	d903      	bls.n	8005b5a <_svfiprintf_r+0x1a6>
 8005b52:	2b00      	cmp	r3, #0
 8005b54:	d0c6      	beq.n	8005ae4 <_svfiprintf_r+0x130>
 8005b56:	9105      	str	r1, [sp, #20]
 8005b58:	e7c4      	b.n	8005ae4 <_svfiprintf_r+0x130>
 8005b5a:	fb0c 2101 	mla	r1, ip, r1, r2
 8005b5e:	4604      	mov	r4, r0
 8005b60:	2301      	movs	r3, #1
 8005b62:	e7f0      	b.n	8005b46 <_svfiprintf_r+0x192>
 8005b64:	ab03      	add	r3, sp, #12
 8005b66:	9300      	str	r3, [sp, #0]
 8005b68:	462a      	mov	r2, r5
 8005b6a:	4b0f      	ldr	r3, [pc, #60]	; (8005ba8 <_svfiprintf_r+0x1f4>)
 8005b6c:	a904      	add	r1, sp, #16
 8005b6e:	4638      	mov	r0, r7
 8005b70:	f3af 8000 	nop.w
 8005b74:	1c42      	adds	r2, r0, #1
 8005b76:	4606      	mov	r6, r0
 8005b78:	d1d6      	bne.n	8005b28 <_svfiprintf_r+0x174>
 8005b7a:	89ab      	ldrh	r3, [r5, #12]
 8005b7c:	065b      	lsls	r3, r3, #25
 8005b7e:	f53f af2d 	bmi.w	80059dc <_svfiprintf_r+0x28>
 8005b82:	9809      	ldr	r0, [sp, #36]	; 0x24
 8005b84:	b01d      	add	sp, #116	; 0x74
 8005b86:	e8bd 8ff0 	ldmia.w	sp!, {r4, r5, r6, r7, r8, r9, sl, fp, pc}
 8005b8a:	ab03      	add	r3, sp, #12
 8005b8c:	9300      	str	r3, [sp, #0]
 8005b8e:	462a      	mov	r2, r5
 8005b90:	4b05      	ldr	r3, [pc, #20]	; (8005ba8 <_svfiprintf_r+0x1f4>)
 8005b92:	a904      	add	r1, sp, #16
 8005b94:	4638      	mov	r0, r7
 8005b96:	f000 f9bd 	bl	8005f14 <_printf_i>
 8005b9a:	e7eb      	b.n	8005b74 <_svfiprintf_r+0x1c0>
 8005b9c:	0800680e 	.word	0x0800680e
 8005ba0:	08006818 	.word	0x08006818
 8005ba4:	00000000 	.word	0x00000000
 8005ba8:	08005901 	.word	0x08005901
 8005bac:	08006814 	.word	0x08006814

08005bb0 <__sfputc_r>:
 8005bb0:	6893      	ldr	r3, [r2, #8]
 8005bb2:	3b01      	subs	r3, #1
 8005bb4:	2b00      	cmp	r3, #0
 8005bb6:	b410      	push	{r4}
 8005bb8:	6093      	str	r3, [r2, #8]
 8005bba:	da08      	bge.n	8005bce <__sfputc_r+0x1e>
 8005bbc:	6994      	ldr	r4, [r2, #24]
 8005bbe:	42a3      	cmp	r3, r4
 8005bc0:	db01      	blt.n	8005bc6 <__sfputc_r+0x16>
 8005bc2:	290a      	cmp	r1, #10
 8005bc4:	d103      	bne.n	8005bce <__sfputc_r+0x1e>
 8005bc6:	f85d 4b04 	ldr.w	r4, [sp], #4
 8005bca:	f7ff bc82 	b.w	80054d2 <__swbuf_r>
 8005bce:	6813      	ldr	r3, [r2, #0]
 8005bd0:	1c58      	adds	r0, r3, #1
 8005bd2:	6010      	str	r0, [r2, #0]
 8005bd4:	7019      	strb	r1, [r3, #0]
 8005bd6:	4608      	mov	r0, r1
 8005bd8:	f85d 4b04 	ldr.w	r4, [sp], #4
 8005bdc:	4770      	bx	lr

08005bde <__sfputs_r>:
 8005bde:	b5f8      	push	{r3, r4, r5, r6, r7, lr}
 8005be0:	4606      	mov	r6, r0
 8005be2:	460f      	mov	r7, r1
 8005be4:	4614      	mov	r4, r2
 8005be6:	18d5      	adds	r5, r2, r3
 8005be8:	42ac      	cmp	r4, r5
 8005bea:	d101      	bne.n	8005bf0 <__sfputs_r+0x12>
 8005bec:	2000      	movs	r0, #0
 8005bee:	e007      	b.n	8005c00 <__sfputs_r+0x22>
 8005bf0:	f814 1b01 	ldrb.w	r1, [r4], #1
 8005bf4:	463a      	mov	r2, r7
 8005bf6:	4630      	mov	r0, r6
 8005bf8:	f7ff ffda 	bl	8005bb0 <__sfputc_r>
 8005bfc:	1c43      	adds	r3, r0, #1
 8005bfe:	d1f3      	bne.n	8005be8 <__sfputs_r+0xa>
 8005c00:	bdf8      	pop	{r3, r4, r5, r6, r7, pc}
	...

08005c04 <_vfiprintf_r>:
 8005c04:	e92d 4ff0 	stmdb	sp!, {r4, r5, r6, r7, r8, r9, sl, fp, lr}
 8005c08:	460d      	mov	r5, r1
 8005c0a:	b09d      	sub	sp, #116	; 0x74
 8005c0c:	4614      	mov	r4, r2
 8005c0e:	4698      	mov	r8, r3
 8005c10:	4606      	mov	r6, r0
 8005c12:	b118      	cbz	r0, 8005c1c <_vfiprintf_r+0x18>
 8005c14:	6a03      	ldr	r3, [r0, #32]
 8005c16:	b90b      	cbnz	r3, 8005c1c <_vfiprintf_r+0x18>
 8005c18:	f7ff fb38 	bl	800528c <__sinit>
 8005c1c:	6e6b      	ldr	r3, [r5, #100]	; 0x64
 8005c1e:	07d9      	lsls	r1, r3, #31
 8005c20:	d405      	bmi.n	8005c2e <_vfiprintf_r+0x2a>
 8005c22:	89ab      	ldrh	r3, [r5, #12]
 8005c24:	059a      	lsls	r2, r3, #22
 8005c26:	d402      	bmi.n	8005c2e <_vfiprintf_r+0x2a>
 8005c28:	6da8      	ldr	r0, [r5, #88]	; 0x58
 8005c2a:	f7ff fd60 	bl	80056ee <__retarget_lock_acquire_recursive>
 8005c2e:	89ab      	ldrh	r3, [r5, #12]
 8005c30:	071b      	lsls	r3, r3, #28
 8005c32:	d501      	bpl.n	8005c38 <_vfiprintf_r+0x34>
 8005c34:	692b      	ldr	r3, [r5, #16]
 8005c36:	b99b      	cbnz	r3, 8005c60 <_vfiprintf_r+0x5c>
 8005c38:	4629      	mov	r1, r5
 8005c3a:	4630      	mov	r0, r6
 8005c3c:	f7ff fc86 	bl	800554c <__swsetup_r>
 8005c40:	b170      	cbz	r0, 8005c60 <_vfiprintf_r+0x5c>
 8005c42:	6e6b      	ldr	r3, [r5, #100]	; 0x64
 8005c44:	07dc      	lsls	r4, r3, #31
 8005c46:	d504      	bpl.n	8005c52 <_vfiprintf_r+0x4e>
 8005c48:	f04f 30ff 	mov.w	r0, #4294967295
 8005c4c:	b01d      	add	sp, #116	; 0x74
 8005c4e:	e8bd 8ff0 	ldmia.w	sp!, {r4, r5, r6, r7, r8, r9, sl, fp, pc}
 8005c52:	89ab      	ldrh	r3, [r5, #12]
 8005c54:	0598      	lsls	r0, r3, #22
 8005c56:	d4f7      	bmi.n	8005c48 <_vfiprintf_r+0x44>
 8005c58:	6da8      	ldr	r0, [r5, #88]	; 0x58
 8005c5a:	f7ff fd49 	bl	80056f0 <__retarget_lock_release_recursive>
 8005c5e:	e7f3      	b.n	8005c48 <_vfiprintf_r+0x44>
 8005c60:	2300      	movs	r3, #0
 8005c62:	9309      	str	r3, [sp, #36]	; 0x24
 8005c64:	2320      	movs	r3, #32
 8005c66:	f88d 3029 	strb.w	r3, [sp, #41]	; 0x29
 8005c6a:	f8cd 800c 	str.w	r8, [sp, #12]
 8005c6e:	2330      	movs	r3, #48	; 0x30
 8005c70:	f8df 81b0 	ldr.w	r8, [pc, #432]	; 8005e24 <_vfiprintf_r+0x220>
 8005c74:	f88d 302a 	strb.w	r3, [sp, #42]	; 0x2a
 8005c78:	f04f 0901 	mov.w	r9, #1
 8005c7c:	4623      	mov	r3, r4
 8005c7e:	469a      	mov	sl, r3
 8005c80:	f813 2b01 	ldrb.w	r2, [r3], #1
 8005c84:	b10a      	cbz	r2, 8005c8a <_vfiprintf_r+0x86>
 8005c86:	2a25      	cmp	r2, #37	; 0x25
 8005c88:	d1f9      	bne.n	8005c7e <_vfiprintf_r+0x7a>
 8005c8a:	ebba 0b04 	subs.w	fp, sl, r4
 8005c8e:	d00b      	beq.n	8005ca8 <_vfiprintf_r+0xa4>
 8005c90:	465b      	mov	r3, fp
 8005c92:	4622      	mov	r2, r4
 8005c94:	4629      	mov	r1, r5
 8005c96:	4630      	mov	r0, r6
 8005c98:	f7ff ffa1 	bl	8005bde <__sfputs_r>
 8005c9c:	3001      	adds	r0, #1
 8005c9e:	f000 80a9 	beq.w	8005df4 <_vfiprintf_r+0x1f0>
 8005ca2:	9a09      	ldr	r2, [sp, #36]	; 0x24
 8005ca4:	445a      	add	r2, fp
 8005ca6:	9209      	str	r2, [sp, #36]	; 0x24
 8005ca8:	f89a 3000 	ldrb.w	r3, [sl]
 8005cac:	2b00      	cmp	r3, #0
 8005cae:	f000 80a1 	beq.w	8005df4 <_vfiprintf_r+0x1f0>
 8005cb2:	2300      	movs	r3, #0
 8005cb4:	f04f 32ff 	mov.w	r2, #4294967295
 8005cb8:	e9cd 2305 	strd	r2, r3, [sp, #20]
 8005cbc:	f10a 0a01 	add.w	sl, sl, #1
 8005cc0:	9304      	str	r3, [sp, #16]
 8005cc2:	9307      	str	r3, [sp, #28]
 8005cc4:	f88d 3053 	strb.w	r3, [sp, #83]	; 0x53
 8005cc8:	931a      	str	r3, [sp, #104]	; 0x68
 8005cca:	4654      	mov	r4, sl
 8005ccc:	2205      	movs	r2, #5
 8005cce:	f814 1b01 	ldrb.w	r1, [r4], #1
 8005cd2:	4854      	ldr	r0, [pc, #336]	; (8005e24 <_vfiprintf_r+0x220>)
 8005cd4:	f7fa fa84 	bl	80001e0 <memchr>
 8005cd8:	9a04      	ldr	r2, [sp, #16]
 8005cda:	b9d8      	cbnz	r0, 8005d14 <_vfiprintf_r+0x110>
 8005cdc:	06d1      	lsls	r1, r2, #27
 8005cde:	bf44      	itt	mi
 8005ce0:	2320      	movmi	r3, #32
 8005ce2:	f88d 3053 	strbmi.w	r3, [sp, #83]	; 0x53
 8005ce6:	0713      	lsls	r3, r2, #28
 8005ce8:	bf44      	itt	mi
 8005cea:	232b      	movmi	r3, #43	; 0x2b
 8005cec:	f88d 3053 	strbmi.w	r3, [sp, #83]	; 0x53
 8005cf0:	f89a 3000 	ldrb.w	r3, [sl]
 8005cf4:	2b2a      	cmp	r3, #42	; 0x2a
 8005cf6:	d015      	beq.n	8005d24 <_vfiprintf_r+0x120>
 8005cf8:	9a07      	ldr	r2, [sp, #28]
 8005cfa:	4654      	mov	r4, sl
 8005cfc:	2000      	movs	r0, #0
 8005cfe:	f04f 0c0a 	mov.w	ip, #10
 8005d02:	4621      	mov	r1, r4
 8005d04:	f811 3b01 	ldrb.w	r3, [r1], #1
 8005d08:	3b30      	subs	r3, #48	; 0x30
 8005d0a:	2b09      	cmp	r3, #9
 8005d0c:	d94d      	bls.n	8005daa <_vfiprintf_r+0x1a6>
 8005d0e:	b1b0      	cbz	r0, 8005d3e <_vfiprintf_r+0x13a>
 8005d10:	9207      	str	r2, [sp, #28]
 8005d12:	e014      	b.n	8005d3e <_vfiprintf_r+0x13a>
 8005d14:	eba0 0308 	sub.w	r3, r0, r8
 8005d18:	fa09 f303 	lsl.w	r3, r9, r3
 8005d1c:	4313      	orrs	r3, r2
 8005d1e:	9304      	str	r3, [sp, #16]
 8005d20:	46a2      	mov	sl, r4
 8005d22:	e7d2      	b.n	8005cca <_vfiprintf_r+0xc6>
 8005d24:	9b03      	ldr	r3, [sp, #12]
 8005d26:	1d19      	adds	r1, r3, #4
 8005d28:	681b      	ldr	r3, [r3, #0]
 8005d2a:	9103      	str	r1, [sp, #12]
 8005d2c:	2b00      	cmp	r3, #0
 8005d2e:	bfbb      	ittet	lt
 8005d30:	425b      	neglt	r3, r3
 8005d32:	f042 0202 	orrlt.w	r2, r2, #2
 8005d36:	9307      	strge	r3, [sp, #28]
 8005d38:	9307      	strlt	r3, [sp, #28]
 8005d3a:	bfb8      	it	lt
 8005d3c:	9204      	strlt	r2, [sp, #16]
 8005d3e:	7823      	ldrb	r3, [r4, #0]
 8005d40:	2b2e      	cmp	r3, #46	; 0x2e
 8005d42:	d10c      	bne.n	8005d5e <_vfiprintf_r+0x15a>
 8005d44:	7863      	ldrb	r3, [r4, #1]
 8005d46:	2b2a      	cmp	r3, #42	; 0x2a
 8005d48:	d134      	bne.n	8005db4 <_vfiprintf_r+0x1b0>
 8005d4a:	9b03      	ldr	r3, [sp, #12]
 8005d4c:	1d1a      	adds	r2, r3, #4
 8005d4e:	681b      	ldr	r3, [r3, #0]
 8005d50:	9203      	str	r2, [sp, #12]
 8005d52:	2b00      	cmp	r3, #0
 8005d54:	bfb8      	it	lt
 8005d56:	f04f 33ff 	movlt.w	r3, #4294967295
 8005d5a:	3402      	adds	r4, #2
 8005d5c:	9305      	str	r3, [sp, #20]
 8005d5e:	f8df a0d4 	ldr.w	sl, [pc, #212]	; 8005e34 <_vfiprintf_r+0x230>
 8005d62:	7821      	ldrb	r1, [r4, #0]
 8005d64:	2203      	movs	r2, #3
 8005d66:	4650      	mov	r0, sl
 8005d68:	f7fa fa3a 	bl	80001e0 <memchr>
 8005d6c:	b138      	cbz	r0, 8005d7e <_vfiprintf_r+0x17a>
 8005d6e:	9b04      	ldr	r3, [sp, #16]
 8005d70:	eba0 000a 	sub.w	r0, r0, sl
 8005d74:	2240      	movs	r2, #64	; 0x40
 8005d76:	4082      	lsls	r2, r0
 8005d78:	4313      	orrs	r3, r2
 8005d7a:	3401      	adds	r4, #1
 8005d7c:	9304      	str	r3, [sp, #16]
 8005d7e:	f814 1b01 	ldrb.w	r1, [r4], #1
 8005d82:	4829      	ldr	r0, [pc, #164]	; (8005e28 <_vfiprintf_r+0x224>)
 8005d84:	f88d 1028 	strb.w	r1, [sp, #40]	; 0x28
 8005d88:	2206      	movs	r2, #6
 8005d8a:	f7fa fa29 	bl	80001e0 <memchr>
 8005d8e:	2800      	cmp	r0, #0
 8005d90:	d03f      	beq.n	8005e12 <_vfiprintf_r+0x20e>
 8005d92:	4b26      	ldr	r3, [pc, #152]	; (8005e2c <_vfiprintf_r+0x228>)
 8005d94:	bb1b      	cbnz	r3, 8005dde <_vfiprintf_r+0x1da>
 8005d96:	9b03      	ldr	r3, [sp, #12]
 8005d98:	3307      	adds	r3, #7
 8005d9a:	f023 0307 	bic.w	r3, r3, #7
 8005d9e:	3308      	adds	r3, #8
 8005da0:	9303      	str	r3, [sp, #12]
 8005da2:	9b09      	ldr	r3, [sp, #36]	; 0x24
 8005da4:	443b      	add	r3, r7
 8005da6:	9309      	str	r3, [sp, #36]	; 0x24
 8005da8:	e768      	b.n	8005c7c <_vfiprintf_r+0x78>
 8005daa:	fb0c 3202 	mla	r2, ip, r2, r3
 8005dae:	460c      	mov	r4, r1
 8005db0:	2001      	movs	r0, #1
 8005db2:	e7a6      	b.n	8005d02 <_vfiprintf_r+0xfe>
 8005db4:	2300      	movs	r3, #0
 8005db6:	3401      	adds	r4, #1
 8005db8:	9305      	str	r3, [sp, #20]
 8005dba:	4619      	mov	r1, r3
 8005dbc:	f04f 0c0a 	mov.w	ip, #10
 8005dc0:	4620      	mov	r0, r4
 8005dc2:	f810 2b01 	ldrb.w	r2, [r0], #1
 8005dc6:	3a30      	subs	r2, #48	; 0x30
 8005dc8:	2a09      	cmp	r2, #9
 8005dca:	d903      	bls.n	8005dd4 <_vfiprintf_r+0x1d0>
 8005dcc:	2b00      	cmp	r3, #0
 8005dce:	d0c6      	beq.n	8005d5e <_vfiprintf_r+0x15a>
 8005dd0:	9105      	str	r1, [sp, #20]
 8005dd2:	e7c4      	b.n	8005d5e <_vfiprintf_r+0x15a>
 8005dd4:	fb0c 2101 	mla	r1, ip, r1, r2
 8005dd8:	4604      	mov	r4, r0
 8005dda:	2301      	movs	r3, #1
 8005ddc:	e7f0      	b.n	8005dc0 <_vfiprintf_r+0x1bc>
 8005dde:	ab03      	add	r3, sp, #12
 8005de0:	9300      	str	r3, [sp, #0]
 8005de2:	462a      	mov	r2, r5
 8005de4:	4b12      	ldr	r3, [pc, #72]	; (8005e30 <_vfiprintf_r+0x22c>)
 8005de6:	a904      	add	r1, sp, #16
 8005de8:	4630      	mov	r0, r6
 8005dea:	f3af 8000 	nop.w
 8005dee:	4607      	mov	r7, r0
 8005df0:	1c78      	adds	r0, r7, #1
 8005df2:	d1d6      	bne.n	8005da2 <_vfiprintf_r+0x19e>
 8005df4:	6e6b      	ldr	r3, [r5, #100]	; 0x64
 8005df6:	07d9      	lsls	r1, r3, #31
 8005df8:	d405      	bmi.n	8005e06 <_vfiprintf_r+0x202>
 8005dfa:	89ab      	ldrh	r3, [r5, #12]
 8005dfc:	059a      	lsls	r2, r3, #22
 8005dfe:	d402      	bmi.n	8005e06 <_vfiprintf_r+0x202>
 8005e00:	6da8      	ldr	r0, [r5, #88]	; 0x58
 8005e02:	f7ff fc75 	bl	80056f0 <__retarget_lock_release_recursive>
 8005e06:	89ab      	ldrh	r3, [r5, #12]
 8005e08:	065b      	lsls	r3, r3, #25
 8005e0a:	f53f af1d 	bmi.w	8005c48 <_vfiprintf_r+0x44>
 8005e0e:	9809      	ldr	r0, [sp, #36]	; 0x24
 8005e10:	e71c      	b.n	8005c4c <_vfiprintf_r+0x48>
 8005e12:	ab03      	add	r3, sp, #12
 8005e14:	9300      	str	r3, [sp, #0]
 8005e16:	462a      	mov	r2, r5
 8005e18:	4b05      	ldr	r3, [pc, #20]	; (8005e30 <_vfiprintf_r+0x22c>)
 8005e1a:	a904      	add	r1, sp, #16
 8005e1c:	4630      	mov	r0, r6
 8005e1e:	f000 f879 	bl	8005f14 <_printf_i>
 8005e22:	e7e4      	b.n	8005dee <_vfiprintf_r+0x1ea>
 8005e24:	0800680e 	.word	0x0800680e
 8005e28:	08006818 	.word	0x08006818
 8005e2c:	00000000 	.word	0x00000000
 8005e30:	08005bdf 	.word	0x08005bdf
 8005e34:	08006814 	.word	0x08006814

08005e38 <_printf_common>:
 8005e38:	e92d 47f0 	stmdb	sp!, {r4, r5, r6, r7, r8, r9, sl, lr}
 8005e3c:	4616      	mov	r6, r2
 8005e3e:	4699      	mov	r9, r3
 8005e40:	688a      	ldr	r2, [r1, #8]
 8005e42:	690b      	ldr	r3, [r1, #16]
 8005e44:	f8dd 8020 	ldr.w	r8, [sp, #32]
 8005e48:	4293      	cmp	r3, r2
 8005e4a:	bfb8      	it	lt
 8005e4c:	4613      	movlt	r3, r2
 8005e4e:	6033      	str	r3, [r6, #0]
 8005e50:	f891 2043 	ldrb.w	r2, [r1, #67]	; 0x43
 8005e54:	4607      	mov	r7, r0
 8005e56:	460c      	mov	r4, r1
 8005e58:	b10a      	cbz	r2, 8005e5e <_printf_common+0x26>
 8005e5a:	3301      	adds	r3, #1
 8005e5c:	6033      	str	r3, [r6, #0]
 8005e5e:	6823      	ldr	r3, [r4, #0]
 8005e60:	0699      	lsls	r1, r3, #26
 8005e62:	bf42      	ittt	mi
 8005e64:	6833      	ldrmi	r3, [r6, #0]
 8005e66:	3302      	addmi	r3, #2
 8005e68:	6033      	strmi	r3, [r6, #0]
 8005e6a:	6825      	ldr	r5, [r4, #0]
 8005e6c:	f015 0506 	ands.w	r5, r5, #6
 8005e70:	d106      	bne.n	8005e80 <_printf_common+0x48>
 8005e72:	f104 0a19 	add.w	sl, r4, #25
 8005e76:	68e3      	ldr	r3, [r4, #12]
 8005e78:	6832      	ldr	r2, [r6, #0]
 8005e7a:	1a9b      	subs	r3, r3, r2
 8005e7c:	42ab      	cmp	r3, r5
 8005e7e:	dc26      	bgt.n	8005ece <_printf_common+0x96>
 8005e80:	f894 2043 	ldrb.w	r2, [r4, #67]	; 0x43
 8005e84:	1e13      	subs	r3, r2, #0
 8005e86:	6822      	ldr	r2, [r4, #0]
 8005e88:	bf18      	it	ne
 8005e8a:	2301      	movne	r3, #1
 8005e8c:	0692      	lsls	r2, r2, #26
 8005e8e:	d42b      	bmi.n	8005ee8 <_printf_common+0xb0>
 8005e90:	f104 0243 	add.w	r2, r4, #67	; 0x43
 8005e94:	4649      	mov	r1, r9
 8005e96:	4638      	mov	r0, r7
 8005e98:	47c0      	blx	r8
 8005e9a:	3001      	adds	r0, #1
 8005e9c:	d01e      	beq.n	8005edc <_printf_common+0xa4>
 8005e9e:	6823      	ldr	r3, [r4, #0]
 8005ea0:	6922      	ldr	r2, [r4, #16]
 8005ea2:	f003 0306 	and.w	r3, r3, #6
 8005ea6:	2b04      	cmp	r3, #4
 8005ea8:	bf02      	ittt	eq
 8005eaa:	68e5      	ldreq	r5, [r4, #12]
 8005eac:	6833      	ldreq	r3, [r6, #0]
 8005eae:	1aed      	subeq	r5, r5, r3
 8005eb0:	68a3      	ldr	r3, [r4, #8]
 8005eb2:	bf0c      	ite	eq
 8005eb4:	ea25 75e5 	biceq.w	r5, r5, r5, asr #31
 8005eb8:	2500      	movne	r5, #0
 8005eba:	4293      	cmp	r3, r2
 8005ebc:	bfc4      	itt	gt
 8005ebe:	1a9b      	subgt	r3, r3, r2
 8005ec0:	18ed      	addgt	r5, r5, r3
 8005ec2:	2600      	movs	r6, #0
 8005ec4:	341a      	adds	r4, #26
 8005ec6:	42b5      	cmp	r5, r6
 8005ec8:	d11a      	bne.n	8005f00 <_printf_common+0xc8>
 8005eca:	2000      	movs	r0, #0
 8005ecc:	e008      	b.n	8005ee0 <_printf_common+0xa8>
 8005ece:	2301      	movs	r3, #1
 8005ed0:	4652      	mov	r2, sl
 8005ed2:	4649      	mov	r1, r9
 8005ed4:	4638      	mov	r0, r7
 8005ed6:	47c0      	blx	r8
 8005ed8:	3001      	adds	r0, #1
 8005eda:	d103      	bne.n	8005ee4 <_printf_common+0xac>
 8005edc:	f04f 30ff 	mov.w	r0, #4294967295
 8005ee0:	e8bd 87f0 	ldmia.w	sp!, {r4, r5, r6, r7, r8, r9, sl, pc}
 8005ee4:	3501      	adds	r5, #1
 8005ee6:	e7c6      	b.n	8005e76 <_printf_common+0x3e>
 8005ee8:	18e1      	adds	r1, r4, r3
 8005eea:	1c5a      	adds	r2, r3, #1
 8005eec:	2030      	movs	r0, #48	; 0x30
 8005eee:	f881 0043 	strb.w	r0, [r1, #67]	; 0x43
 8005ef2:	4422      	add	r2, r4
 8005ef4:	f894 1045 	ldrb.w	r1, [r4, #69]	; 0x45
 8005ef8:	f882 1043 	strb.w	r1, [r2, #67]	; 0x43
 8005efc:	3302      	adds	r3, #2
 8005efe:	e7c7      	b.n	8005e90 <_printf_common+0x58>
 8005f00:	2301      	movs	r3, #1
 8005f02:	4622      	mov	r2, r4
 8005f04:	4649      	mov	r1, r9
 8005f06:	4638      	mov	r0, r7
 8005f08:	47c0      	blx	r8
 8005f0a:	3001      	adds	r0, #1
 8005f0c:	d0e6      	beq.n	8005edc <_printf_common+0xa4>
 8005f0e:	3601      	adds	r6, #1
 8005f10:	e7d9      	b.n	8005ec6 <_printf_common+0x8e>
	...

08005f14 <_printf_i>:
 8005f14:	e92d 47ff 	stmdb	sp!, {r0, r1, r2, r3, r4, r5, r6, r7, r8, r9, sl, lr}
 8005f18:	7e0f      	ldrb	r7, [r1, #24]
 8005f1a:	9d0c      	ldr	r5, [sp, #48]	; 0x30
 8005f1c:	2f78      	cmp	r7, #120	; 0x78
 8005f1e:	4691      	mov	r9, r2
 8005f20:	4680      	mov	r8, r0
 8005f22:	460c      	mov	r4, r1
 8005f24:	469a      	mov	sl, r3
 8005f26:	f101 0243 	add.w	r2, r1, #67	; 0x43
 8005f2a:	d807      	bhi.n	8005f3c <_printf_i+0x28>
 8005f2c:	2f62      	cmp	r7, #98	; 0x62
 8005f2e:	d80a      	bhi.n	8005f46 <_printf_i+0x32>
 8005f30:	2f00      	cmp	r7, #0
 8005f32:	f000 80d4 	beq.w	80060de <_printf_i+0x1ca>
 8005f36:	2f58      	cmp	r7, #88	; 0x58
 8005f38:	f000 80c0 	beq.w	80060bc <_printf_i+0x1a8>
 8005f3c:	f104 0542 	add.w	r5, r4, #66	; 0x42
 8005f40:	f884 7042 	strb.w	r7, [r4, #66]	; 0x42
 8005f44:	e03a      	b.n	8005fbc <_printf_i+0xa8>
 8005f46:	f1a7 0363 	sub.w	r3, r7, #99	; 0x63
 8005f4a:	2b15      	cmp	r3, #21
 8005f4c:	d8f6      	bhi.n	8005f3c <_printf_i+0x28>
 8005f4e:	a101      	add	r1, pc, #4	; (adr r1, 8005f54 <_printf_i+0x40>)
 8005f50:	f851 f023 	ldr.w	pc, [r1, r3, lsl #2]
 8005f54:	08005fad 	.word	0x08005fad
 8005f58:	08005fc1 	.word	0x08005fc1
 8005f5c:	08005f3d 	.word	0x08005f3d
 8005f60:	08005f3d 	.word	0x08005f3d
 8005f64:	08005f3d 	.word	0x08005f3d
 8005f68:	08005f3d 	.word	0x08005f3d
 8005f6c:	08005fc1 	.word	0x08005fc1
 8005f70:	08005f3d 	.word	0x08005f3d
 8005f74:	08005f3d 	.word	0x08005f3d
 8005f78:	08005f3d 	.word	0x08005f3d
 8005f7c:	08005f3d 	.word	0x08005f3d
 8005f80:	080060c5 	.word	0x080060c5
 8005f84:	08005fed 	.word	0x08005fed
 8005f88:	0800607f 	.word	0x0800607f
 8005f8c:	08005f3d 	.word	0x08005f3d
 8005f90:	08005f3d 	.word	0x08005f3d
 8005f94:	080060e7 	.word	0x080060e7
 8005f98:	08005f3d 	.word	0x08005f3d
 8005f9c:	08005fed 	.word	0x08005fed
 8005fa0:	08005f3d 	.word	0x08005f3d
 8005fa4:	08005f3d 	.word	0x08005f3d
 8005fa8:	08006087 	.word	0x08006087
 8005fac:	682b      	ldr	r3, [r5, #0]
 8005fae:	1d1a      	adds	r2, r3, #4
 8005fb0:	681b      	ldr	r3, [r3, #0]
 8005fb2:	602a      	str	r2, [r5, #0]
 8005fb4:	f104 0542 	add.w	r5, r4, #66	; 0x42
 8005fb8:	f884 3042 	strb.w	r3, [r4, #66]	; 0x42
 8005fbc:	2301      	movs	r3, #1
 8005fbe:	e09f      	b.n	8006100 <_printf_i+0x1ec>
 8005fc0:	6820      	ldr	r0, [r4, #0]
 8005fc2:	682b      	ldr	r3, [r5, #0]
 8005fc4:	0607      	lsls	r7, r0, #24
 8005fc6:	f103 0104 	add.w	r1, r3, #4
 8005fca:	6029      	str	r1, [r5, #0]
 8005fcc:	d501      	bpl.n	8005fd2 <_printf_i+0xbe>
 8005fce:	681e      	ldr	r6, [r3, #0]
 8005fd0:	e003      	b.n	8005fda <_printf_i+0xc6>
 8005fd2:	0646      	lsls	r6, r0, #25
 8005fd4:	d5fb      	bpl.n	8005fce <_printf_i+0xba>
 8005fd6:	f9b3 6000 	ldrsh.w	r6, [r3]
 8005fda:	2e00      	cmp	r6, #0
 8005fdc:	da03      	bge.n	8005fe6 <_printf_i+0xd2>
 8005fde:	232d      	movs	r3, #45	; 0x2d
 8005fe0:	4276      	negs	r6, r6
 8005fe2:	f884 3043 	strb.w	r3, [r4, #67]	; 0x43
 8005fe6:	485a      	ldr	r0, [pc, #360]	; (8006150 <_printf_i+0x23c>)
 8005fe8:	230a      	movs	r3, #10
 8005fea:	e012      	b.n	8006012 <_printf_i+0xfe>
 8005fec:	682b      	ldr	r3, [r5, #0]
 8005fee:	6820      	ldr	r0, [r4, #0]
 8005ff0:	1d19      	adds	r1, r3, #4
 8005ff2:	6029      	str	r1, [r5, #0]
 8005ff4:	0605      	lsls	r5, r0, #24
 8005ff6:	d501      	bpl.n	8005ffc <_printf_i+0xe8>
 8005ff8:	681e      	ldr	r6, [r3, #0]
 8005ffa:	e002      	b.n	8006002 <_printf_i+0xee>
 8005ffc:	0641      	lsls	r1, r0, #25
 8005ffe:	d5fb      	bpl.n	8005ff8 <_printf_i+0xe4>
 8006000:	881e      	ldrh	r6, [r3, #0]
 8006002:	4853      	ldr	r0, [pc, #332]	; (8006150 <_printf_i+0x23c>)
 8006004:	2f6f      	cmp	r7, #111	; 0x6f
 8006006:	bf0c      	ite	eq
 8006008:	2308      	moveq	r3, #8
 800600a:	230a      	movne	r3, #10
 800600c:	2100      	movs	r1, #0
 800600e:	f884 1043 	strb.w	r1, [r4, #67]	; 0x43
 8006012:	6865      	ldr	r5, [r4, #4]
 8006014:	60a5      	str	r5, [r4, #8]
 8006016:	2d00      	cmp	r5, #0
 8006018:	bfa2      	ittt	ge
 800601a:	6821      	ldrge	r1, [r4, #0]
 800601c:	f021 0104 	bicge.w	r1, r1, #4
 8006020:	6021      	strge	r1, [r4, #0]
 8006022:	b90e      	cbnz	r6, 8006028 <_printf_i+0x114>
 8006024:	2d00      	cmp	r5, #0
 8006026:	d04b      	beq.n	80060c0 <_printf_i+0x1ac>
 8006028:	4615      	mov	r5, r2
 800602a:	fbb6 f1f3 	udiv	r1, r6, r3
 800602e:	fb03 6711 	mls	r7, r3, r1, r6
 8006032:	5dc7      	ldrb	r7, [r0, r7]
 8006034:	f805 7d01 	strb.w	r7, [r5, #-1]!
 8006038:	4637      	mov	r7, r6
 800603a:	42bb      	cmp	r3, r7
 800603c:	460e      	mov	r6, r1
 800603e:	d9f4      	bls.n	800602a <_printf_i+0x116>
 8006040:	2b08      	cmp	r3, #8
 8006042:	d10b      	bne.n	800605c <_printf_i+0x148>
 8006044:	6823      	ldr	r3, [r4, #0]
 8006046:	07de      	lsls	r6, r3, #31
 8006048:	d508      	bpl.n	800605c <_printf_i+0x148>
 800604a:	6923      	ldr	r3, [r4, #16]
 800604c:	6861      	ldr	r1, [r4, #4]
 800604e:	4299      	cmp	r1, r3
 8006050:	bfde      	ittt	le
 8006052:	2330      	movle	r3, #48	; 0x30
 8006054:	f805 3c01 	strble.w	r3, [r5, #-1]
 8006058:	f105 35ff 	addle.w	r5, r5, #4294967295
 800605c:	1b52      	subs	r2, r2, r5
 800605e:	6122      	str	r2, [r4, #16]
 8006060:	f8cd a000 	str.w	sl, [sp]
 8006064:	464b      	mov	r3, r9
 8006066:	aa03      	add	r2, sp, #12
 8006068:	4621      	mov	r1, r4
 800606a:	4640      	mov	r0, r8
 800606c:	f7ff fee4 	bl	8005e38 <_printf_common>
 8006070:	3001      	adds	r0, #1
 8006072:	d14a      	bne.n	800610a <_printf_i+0x1f6>
 8006074:	f04f 30ff 	mov.w	r0, #4294967295
 8006078:	b004      	add	sp, #16
 800607a:	e8bd 87f0 	ldmia.w	sp!, {r4, r5, r6, r7, r8, r9, sl, pc}
 800607e:	6823      	ldr	r3, [r4, #0]
 8006080:	f043 0320 	orr.w	r3, r3, #32
 8006084:	6023      	str	r3, [r4, #0]
 8006086:	4833      	ldr	r0, [pc, #204]	; (8006154 <_printf_i+0x240>)
 8006088:	2778      	movs	r7, #120	; 0x78
 800608a:	f884 7045 	strb.w	r7, [r4, #69]	; 0x45
 800608e:	6823      	ldr	r3, [r4, #0]
 8006090:	6829      	ldr	r1, [r5, #0]
 8006092:	061f      	lsls	r7, r3, #24
 8006094:	f851 6b04 	ldr.w	r6, [r1], #4
 8006098:	d402      	bmi.n	80060a0 <_printf_i+0x18c>
 800609a:	065f      	lsls	r7, r3, #25
 800609c:	bf48      	it	mi
 800609e:	b2b6      	uxthmi	r6, r6
 80060a0:	07df      	lsls	r7, r3, #31
 80060a2:	bf48      	it	mi
 80060a4:	f043 0320 	orrmi.w	r3, r3, #32
 80060a8:	6029      	str	r1, [r5, #0]
 80060aa:	bf48      	it	mi
 80060ac:	6023      	strmi	r3, [r4, #0]
 80060ae:	b91e      	cbnz	r6, 80060b8 <_printf_i+0x1a4>
 80060b0:	6823      	ldr	r3, [r4, #0]
 80060b2:	f023 0320 	bic.w	r3, r3, #32
 80060b6:	6023      	str	r3, [r4, #0]
 80060b8:	2310      	movs	r3, #16
 80060ba:	e7a7      	b.n	800600c <_printf_i+0xf8>
 80060bc:	4824      	ldr	r0, [pc, #144]	; (8006150 <_printf_i+0x23c>)
 80060be:	e7e4      	b.n	800608a <_printf_i+0x176>
 80060c0:	4615      	mov	r5, r2
 80060c2:	e7bd      	b.n	8006040 <_printf_i+0x12c>
 80060c4:	682b      	ldr	r3, [r5, #0]
 80060c6:	6826      	ldr	r6, [r4, #0]
 80060c8:	6961      	ldr	r1, [r4, #20]
 80060ca:	1d18      	adds	r0, r3, #4
 80060cc:	6028      	str	r0, [r5, #0]
 80060ce:	0635      	lsls	r5, r6, #24
 80060d0:	681b      	ldr	r3, [r3, #0]
 80060d2:	d501      	bpl.n	80060d8 <_printf_i+0x1c4>
 80060d4:	6019      	str	r1, [r3, #0]
 80060d6:	e002      	b.n	80060de <_printf_i+0x1ca>
 80060d8:	0670      	lsls	r0, r6, #25
 80060da:	d5fb      	bpl.n	80060d4 <_printf_i+0x1c0>
 80060dc:	8019      	strh	r1, [r3, #0]
 80060de:	2300      	movs	r3, #0
 80060e0:	6123      	str	r3, [r4, #16]
 80060e2:	4615      	mov	r5, r2
 80060e4:	e7bc      	b.n	8006060 <_printf_i+0x14c>
 80060e6:	682b      	ldr	r3, [r5, #0]
 80060e8:	1d1a      	adds	r2, r3, #4
 80060ea:	602a      	str	r2, [r5, #0]
 80060ec:	681d      	ldr	r5, [r3, #0]
 80060ee:	6862      	ldr	r2, [r4, #4]
 80060f0:	2100      	movs	r1, #0
 80060f2:	4628      	mov	r0, r5
 80060f4:	f7fa f874 	bl	80001e0 <memchr>
 80060f8:	b108      	cbz	r0, 80060fe <_printf_i+0x1ea>
 80060fa:	1b40      	subs	r0, r0, r5
 80060fc:	6060      	str	r0, [r4, #4]
 80060fe:	6863      	ldr	r3, [r4, #4]
 8006100:	6123      	str	r3, [r4, #16]
 8006102:	2300      	movs	r3, #0
 8006104:	f884 3043 	strb.w	r3, [r4, #67]	; 0x43
 8006108:	e7aa      	b.n	8006060 <_printf_i+0x14c>
 800610a:	6923      	ldr	r3, [r4, #16]
 800610c:	462a      	mov	r2, r5
 800610e:	4649      	mov	r1, r9
 8006110:	4640      	mov	r0, r8
 8006112:	47d0      	blx	sl
 8006114:	3001      	adds	r0, #1
 8006116:	d0ad      	beq.n	8006074 <_printf_i+0x160>
 8006118:	6823      	ldr	r3, [r4, #0]
 800611a:	079b      	lsls	r3, r3, #30
 800611c:	d413      	bmi.n	8006146 <_printf_i+0x232>
 800611e:	68e0      	ldr	r0, [r4, #12]
 8006120:	9b03      	ldr	r3, [sp, #12]
 8006122:	4298      	cmp	r0, r3
 8006124:	bfb8      	it	lt
 8006126:	4618      	movlt	r0, r3
 8006128:	e7a6      	b.n	8006078 <_printf_i+0x164>
 800612a:	2301      	movs	r3, #1
 800612c:	4632      	mov	r2, r6
 800612e:	4649      	mov	r1, r9
 8006130:	4640      	mov	r0, r8
 8006132:	47d0      	blx	sl
 8006134:	3001      	adds	r0, #1
 8006136:	d09d      	beq.n	8006074 <_printf_i+0x160>
 8006138:	3501      	adds	r5, #1
 800613a:	68e3      	ldr	r3, [r4, #12]
 800613c:	9903      	ldr	r1, [sp, #12]
 800613e:	1a5b      	subs	r3, r3, r1
 8006140:	42ab      	cmp	r3, r5
 8006142:	dcf2      	bgt.n	800612a <_printf_i+0x216>
 8006144:	e7eb      	b.n	800611e <_printf_i+0x20a>
 8006146:	2500      	movs	r5, #0
 8006148:	f104 0619 	add.w	r6, r4, #25
 800614c:	e7f5      	b.n	800613a <_printf_i+0x226>
 800614e:	bf00      	nop
 8006150:	0800681f 	.word	0x0800681f
 8006154:	08006830 	.word	0x08006830

08006158 <__sflush_r>:
 8006158:	898a      	ldrh	r2, [r1, #12]
 800615a:	e92d 41f0 	stmdb	sp!, {r4, r5, r6, r7, r8, lr}
 800615e:	4605      	mov	r5, r0
 8006160:	0710      	lsls	r0, r2, #28
 8006162:	460c      	mov	r4, r1
 8006164:	d458      	bmi.n	8006218 <__sflush_r+0xc0>
 8006166:	684b      	ldr	r3, [r1, #4]
 8006168:	2b00      	cmp	r3, #0
 800616a:	dc05      	bgt.n	8006178 <__sflush_r+0x20>
 800616c:	6c0b      	ldr	r3, [r1, #64]	; 0x40
 800616e:	2b00      	cmp	r3, #0
 8006170:	dc02      	bgt.n	8006178 <__sflush_r+0x20>
 8006172:	2000      	movs	r0, #0
 8006174:	e8bd 81f0 	ldmia.w	sp!, {r4, r5, r6, r7, r8, pc}
 8006178:	6ae6      	ldr	r6, [r4, #44]	; 0x2c
 800617a:	2e00      	cmp	r6, #0
 800617c:	d0f9      	beq.n	8006172 <__sflush_r+0x1a>
 800617e:	2300      	movs	r3, #0
 8006180:	f412 5280 	ands.w	r2, r2, #4096	; 0x1000
 8006184:	682f      	ldr	r7, [r5, #0]
 8006186:	6a21      	ldr	r1, [r4, #32]
 8006188:	602b      	str	r3, [r5, #0]
 800618a:	d032      	beq.n	80061f2 <__sflush_r+0x9a>
 800618c:	6d60      	ldr	r0, [r4, #84]	; 0x54
 800618e:	89a3      	ldrh	r3, [r4, #12]
 8006190:	075a      	lsls	r2, r3, #29
 8006192:	d505      	bpl.n	80061a0 <__sflush_r+0x48>
 8006194:	6863      	ldr	r3, [r4, #4]
 8006196:	1ac0      	subs	r0, r0, r3
 8006198:	6b63      	ldr	r3, [r4, #52]	; 0x34
 800619a:	b10b      	cbz	r3, 80061a0 <__sflush_r+0x48>
 800619c:	6c23      	ldr	r3, [r4, #64]	; 0x40
 800619e:	1ac0      	subs	r0, r0, r3
 80061a0:	2300      	movs	r3, #0
 80061a2:	4602      	mov	r2, r0
 80061a4:	6ae6      	ldr	r6, [r4, #44]	; 0x2c
 80061a6:	6a21      	ldr	r1, [r4, #32]
 80061a8:	4628      	mov	r0, r5
 80061aa:	47b0      	blx	r6
 80061ac:	1c43      	adds	r3, r0, #1
 80061ae:	89a3      	ldrh	r3, [r4, #12]
 80061b0:	d106      	bne.n	80061c0 <__sflush_r+0x68>
 80061b2:	6829      	ldr	r1, [r5, #0]
 80061b4:	291d      	cmp	r1, #29
 80061b6:	d82b      	bhi.n	8006210 <__sflush_r+0xb8>
 80061b8:	4a29      	ldr	r2, [pc, #164]	; (8006260 <__sflush_r+0x108>)
 80061ba:	410a      	asrs	r2, r1
 80061bc:	07d6      	lsls	r6, r2, #31
 80061be:	d427      	bmi.n	8006210 <__sflush_r+0xb8>
 80061c0:	2200      	movs	r2, #0
 80061c2:	6062      	str	r2, [r4, #4]
 80061c4:	04d9      	lsls	r1, r3, #19
 80061c6:	6922      	ldr	r2, [r4, #16]
 80061c8:	6022      	str	r2, [r4, #0]
 80061ca:	d504      	bpl.n	80061d6 <__sflush_r+0x7e>
 80061cc:	1c42      	adds	r2, r0, #1
 80061ce:	d101      	bne.n	80061d4 <__sflush_r+0x7c>
 80061d0:	682b      	ldr	r3, [r5, #0]
 80061d2:	b903      	cbnz	r3, 80061d6 <__sflush_r+0x7e>
 80061d4:	6560      	str	r0, [r4, #84]	; 0x54
 80061d6:	6b61      	ldr	r1, [r4, #52]	; 0x34
 80061d8:	602f      	str	r7, [r5, #0]
 80061da:	2900      	cmp	r1, #0
 80061dc:	d0c9      	beq.n	8006172 <__sflush_r+0x1a>
 80061de:	f104 0344 	add.w	r3, r4, #68	; 0x44
 80061e2:	4299      	cmp	r1, r3
 80061e4:	d002      	beq.n	80061ec <__sflush_r+0x94>
 80061e6:	4628      	mov	r0, r5
 80061e8:	f7ff fa92 	bl	8005710 <_free_r>
 80061ec:	2000      	movs	r0, #0
 80061ee:	6360      	str	r0, [r4, #52]	; 0x34
 80061f0:	e7c0      	b.n	8006174 <__sflush_r+0x1c>
 80061f2:	2301      	movs	r3, #1
 80061f4:	4628      	mov	r0, r5
 80061f6:	47b0      	blx	r6
 80061f8:	1c41      	adds	r1, r0, #1
 80061fa:	d1c8      	bne.n	800618e <__sflush_r+0x36>
 80061fc:	682b      	ldr	r3, [r5, #0]
 80061fe:	2b00      	cmp	r3, #0
 8006200:	d0c5      	beq.n	800618e <__sflush_r+0x36>
 8006202:	2b1d      	cmp	r3, #29
 8006204:	d001      	beq.n	800620a <__sflush_r+0xb2>
 8006206:	2b16      	cmp	r3, #22
 8006208:	d101      	bne.n	800620e <__sflush_r+0xb6>
 800620a:	602f      	str	r7, [r5, #0]
 800620c:	e7b1      	b.n	8006172 <__sflush_r+0x1a>
 800620e:	89a3      	ldrh	r3, [r4, #12]
 8006210:	f043 0340 	orr.w	r3, r3, #64	; 0x40
 8006214:	81a3      	strh	r3, [r4, #12]
 8006216:	e7ad      	b.n	8006174 <__sflush_r+0x1c>
 8006218:	690f      	ldr	r7, [r1, #16]
 800621a:	2f00      	cmp	r7, #0
 800621c:	d0a9      	beq.n	8006172 <__sflush_r+0x1a>
 800621e:	0793      	lsls	r3, r2, #30
 8006220:	680e      	ldr	r6, [r1, #0]
 8006222:	bf08      	it	eq
 8006224:	694b      	ldreq	r3, [r1, #20]
 8006226:	600f      	str	r7, [r1, #0]
 8006228:	bf18      	it	ne
 800622a:	2300      	movne	r3, #0
 800622c:	eba6 0807 	sub.w	r8, r6, r7
 8006230:	608b      	str	r3, [r1, #8]
 8006232:	f1b8 0f00 	cmp.w	r8, #0
 8006236:	dd9c      	ble.n	8006172 <__sflush_r+0x1a>
 8006238:	6a21      	ldr	r1, [r4, #32]
 800623a:	6aa6      	ldr	r6, [r4, #40]	; 0x28
 800623c:	4643      	mov	r3, r8
 800623e:	463a      	mov	r2, r7
 8006240:	4628      	mov	r0, r5
 8006242:	47b0      	blx	r6
 8006244:	2800      	cmp	r0, #0
 8006246:	dc06      	bgt.n	8006256 <__sflush_r+0xfe>
 8006248:	89a3      	ldrh	r3, [r4, #12]
 800624a:	f043 0340 	orr.w	r3, r3, #64	; 0x40
 800624e:	81a3      	strh	r3, [r4, #12]
 8006250:	f04f 30ff 	mov.w	r0, #4294967295
 8006254:	e78e      	b.n	8006174 <__sflush_r+0x1c>
 8006256:	4407      	add	r7, r0
 8006258:	eba8 0800 	sub.w	r8, r8, r0
 800625c:	e7e9      	b.n	8006232 <__sflush_r+0xda>
 800625e:	bf00      	nop
 8006260:	dfbffffe 	.word	0xdfbffffe

08006264 <_fflush_r>:
 8006264:	b538      	push	{r3, r4, r5, lr}
 8006266:	690b      	ldr	r3, [r1, #16]
 8006268:	4605      	mov	r5, r0
 800626a:	460c      	mov	r4, r1
 800626c:	b913      	cbnz	r3, 8006274 <_fflush_r+0x10>
 800626e:	2500      	movs	r5, #0
 8006270:	4628      	mov	r0, r5
 8006272:	bd38      	pop	{r3, r4, r5, pc}
 8006274:	b118      	cbz	r0, 800627e <_fflush_r+0x1a>
 8006276:	6a03      	ldr	r3, [r0, #32]
 8006278:	b90b      	cbnz	r3, 800627e <_fflush_r+0x1a>
 800627a:	f7ff f807 	bl	800528c <__sinit>
 800627e:	f9b4 300c 	ldrsh.w	r3, [r4, #12]
 8006282:	2b00      	cmp	r3, #0
 8006284:	d0f3      	beq.n	800626e <_fflush_r+0xa>
 8006286:	6e62      	ldr	r2, [r4, #100]	; 0x64
 8006288:	07d0      	lsls	r0, r2, #31
 800628a:	d404      	bmi.n	8006296 <_fflush_r+0x32>
 800628c:	0599      	lsls	r1, r3, #22
 800628e:	d402      	bmi.n	8006296 <_fflush_r+0x32>
 8006290:	6da0      	ldr	r0, [r4, #88]	; 0x58
 8006292:	f7ff fa2c 	bl	80056ee <__retarget_lock_acquire_recursive>
 8006296:	4628      	mov	r0, r5
 8006298:	4621      	mov	r1, r4
 800629a:	f7ff ff5d 	bl	8006158 <__sflush_r>
 800629e:	6e63      	ldr	r3, [r4, #100]	; 0x64
 80062a0:	07da      	lsls	r2, r3, #31
 80062a2:	4605      	mov	r5, r0
 80062a4:	d4e4      	bmi.n	8006270 <_fflush_r+0xc>
 80062a6:	89a3      	ldrh	r3, [r4, #12]
 80062a8:	059b      	lsls	r3, r3, #22
 80062aa:	d4e1      	bmi.n	8006270 <_fflush_r+0xc>
 80062ac:	6da0      	ldr	r0, [r4, #88]	; 0x58
 80062ae:	f7ff fa1f 	bl	80056f0 <__retarget_lock_release_recursive>
 80062b2:	e7dd      	b.n	8006270 <_fflush_r+0xc>

080062b4 <__swhatbuf_r>:
 80062b4:	b570      	push	{r4, r5, r6, lr}
 80062b6:	460c      	mov	r4, r1
 80062b8:	f9b1 100e 	ldrsh.w	r1, [r1, #14]
 80062bc:	2900      	cmp	r1, #0
 80062be:	b096      	sub	sp, #88	; 0x58
 80062c0:	4615      	mov	r5, r2
 80062c2:	461e      	mov	r6, r3
 80062c4:	da0d      	bge.n	80062e2 <__swhatbuf_r+0x2e>
 80062c6:	89a3      	ldrh	r3, [r4, #12]
 80062c8:	f013 0f80 	tst.w	r3, #128	; 0x80
 80062cc:	f04f 0100 	mov.w	r1, #0
 80062d0:	bf0c      	ite	eq
 80062d2:	f44f 6380 	moveq.w	r3, #1024	; 0x400
 80062d6:	2340      	movne	r3, #64	; 0x40
 80062d8:	2000      	movs	r0, #0
 80062da:	6031      	str	r1, [r6, #0]
 80062dc:	602b      	str	r3, [r5, #0]
 80062de:	b016      	add	sp, #88	; 0x58
 80062e0:	bd70      	pop	{r4, r5, r6, pc}
 80062e2:	466a      	mov	r2, sp
 80062e4:	f000 f896 	bl	8006414 <_fstat_r>
 80062e8:	2800      	cmp	r0, #0
 80062ea:	dbec      	blt.n	80062c6 <__swhatbuf_r+0x12>
 80062ec:	9901      	ldr	r1, [sp, #4]
 80062ee:	f401 4170 	and.w	r1, r1, #61440	; 0xf000
 80062f2:	f5a1 5300 	sub.w	r3, r1, #8192	; 0x2000
 80062f6:	4259      	negs	r1, r3
 80062f8:	4159      	adcs	r1, r3
 80062fa:	f44f 6380 	mov.w	r3, #1024	; 0x400
 80062fe:	e7eb      	b.n	80062d8 <__swhatbuf_r+0x24>

08006300 <__smakebuf_r>:
 8006300:	898b      	ldrh	r3, [r1, #12]
 8006302:	b573      	push	{r0, r1, r4, r5, r6, lr}
 8006304:	079d      	lsls	r5, r3, #30
 8006306:	4606      	mov	r6, r0
 8006308:	460c      	mov	r4, r1
 800630a:	d507      	bpl.n	800631c <__smakebuf_r+0x1c>
 800630c:	f104 0347 	add.w	r3, r4, #71	; 0x47
 8006310:	6023      	str	r3, [r4, #0]
 8006312:	6123      	str	r3, [r4, #16]
 8006314:	2301      	movs	r3, #1
 8006316:	6163      	str	r3, [r4, #20]
 8006318:	b002      	add	sp, #8
 800631a:	bd70      	pop	{r4, r5, r6, pc}
 800631c:	ab01      	add	r3, sp, #4
 800631e:	466a      	mov	r2, sp
 8006320:	f7ff ffc8 	bl	80062b4 <__swhatbuf_r>
 8006324:	9900      	ldr	r1, [sp, #0]
 8006326:	4605      	mov	r5, r0
 8006328:	4630      	mov	r0, r6
 800632a:	f7ff fa5d 	bl	80057e8 <_malloc_r>
 800632e:	b948      	cbnz	r0, 8006344 <__smakebuf_r+0x44>
 8006330:	f9b4 300c 	ldrsh.w	r3, [r4, #12]
 8006334:	059a      	lsls	r2, r3, #22
 8006336:	d4ef      	bmi.n	8006318 <__smakebuf_r+0x18>
 8006338:	f023 0303 	bic.w	r3, r3, #3
 800633c:	f043 0302 	orr.w	r3, r3, #2
 8006340:	81a3      	strh	r3, [r4, #12]
 8006342:	e7e3      	b.n	800630c <__smakebuf_r+0xc>
 8006344:	89a3      	ldrh	r3, [r4, #12]
 8006346:	6020      	str	r0, [r4, #0]
 8006348:	f043 0380 	orr.w	r3, r3, #128	; 0x80
 800634c:	81a3      	strh	r3, [r4, #12]
 800634e:	9b00      	ldr	r3, [sp, #0]
 8006350:	6163      	str	r3, [r4, #20]
 8006352:	9b01      	ldr	r3, [sp, #4]
 8006354:	6120      	str	r0, [r4, #16]
 8006356:	b15b      	cbz	r3, 8006370 <__smakebuf_r+0x70>
 8006358:	f9b4 100e 	ldrsh.w	r1, [r4, #14]
 800635c:	4630      	mov	r0, r6
 800635e:	f000 f86b 	bl	8006438 <_isatty_r>
 8006362:	b128      	cbz	r0, 8006370 <__smakebuf_r+0x70>
 8006364:	89a3      	ldrh	r3, [r4, #12]
 8006366:	f023 0303 	bic.w	r3, r3, #3
 800636a:	f043 0301 	orr.w	r3, r3, #1
 800636e:	81a3      	strh	r3, [r4, #12]
 8006370:	89a3      	ldrh	r3, [r4, #12]
 8006372:	431d      	orrs	r5, r3
 8006374:	81a5      	strh	r5, [r4, #12]
 8006376:	e7cf      	b.n	8006318 <__smakebuf_r+0x18>

08006378 <_putc_r>:
 8006378:	b570      	push	{r4, r5, r6, lr}
 800637a:	460d      	mov	r5, r1
 800637c:	4614      	mov	r4, r2
 800637e:	4606      	mov	r6, r0
 8006380:	b118      	cbz	r0, 800638a <_putc_r+0x12>
 8006382:	6a03      	ldr	r3, [r0, #32]
 8006384:	b90b      	cbnz	r3, 800638a <_putc_r+0x12>
 8006386:	f7fe ff81 	bl	800528c <__sinit>
 800638a:	6e63      	ldr	r3, [r4, #100]	; 0x64
 800638c:	07d8      	lsls	r0, r3, #31
 800638e:	d405      	bmi.n	800639c <_putc_r+0x24>
 8006390:	89a3      	ldrh	r3, [r4, #12]
 8006392:	0599      	lsls	r1, r3, #22
 8006394:	d402      	bmi.n	800639c <_putc_r+0x24>
 8006396:	6da0      	ldr	r0, [r4, #88]	; 0x58
 8006398:	f7ff f9a9 	bl	80056ee <__retarget_lock_acquire_recursive>
 800639c:	68a3      	ldr	r3, [r4, #8]
 800639e:	3b01      	subs	r3, #1
 80063a0:	2b00      	cmp	r3, #0
 80063a2:	60a3      	str	r3, [r4, #8]
 80063a4:	da05      	bge.n	80063b2 <_putc_r+0x3a>
 80063a6:	69a2      	ldr	r2, [r4, #24]
 80063a8:	4293      	cmp	r3, r2
 80063aa:	db12      	blt.n	80063d2 <_putc_r+0x5a>
 80063ac:	b2eb      	uxtb	r3, r5
 80063ae:	2b0a      	cmp	r3, #10
 80063b0:	d00f      	beq.n	80063d2 <_putc_r+0x5a>
 80063b2:	6823      	ldr	r3, [r4, #0]
 80063b4:	1c5a      	adds	r2, r3, #1
 80063b6:	6022      	str	r2, [r4, #0]
 80063b8:	701d      	strb	r5, [r3, #0]
 80063ba:	b2ed      	uxtb	r5, r5
 80063bc:	6e63      	ldr	r3, [r4, #100]	; 0x64
 80063be:	07da      	lsls	r2, r3, #31
 80063c0:	d405      	bmi.n	80063ce <_putc_r+0x56>
 80063c2:	89a3      	ldrh	r3, [r4, #12]
 80063c4:	059b      	lsls	r3, r3, #22
 80063c6:	d402      	bmi.n	80063ce <_putc_r+0x56>
 80063c8:	6da0      	ldr	r0, [r4, #88]	; 0x58
 80063ca:	f7ff f991 	bl	80056f0 <__retarget_lock_release_recursive>
 80063ce:	4628      	mov	r0, r5
 80063d0:	bd70      	pop	{r4, r5, r6, pc}
 80063d2:	4629      	mov	r1, r5
 80063d4:	4622      	mov	r2, r4
 80063d6:	4630      	mov	r0, r6
 80063d8:	f7ff f87b 	bl	80054d2 <__swbuf_r>
 80063dc:	4605      	mov	r5, r0
 80063de:	e7ed      	b.n	80063bc <_putc_r+0x44>

080063e0 <memmove>:
 80063e0:	4288      	cmp	r0, r1
 80063e2:	b510      	push	{r4, lr}
 80063e4:	eb01 0402 	add.w	r4, r1, r2
 80063e8:	d902      	bls.n	80063f0 <memmove+0x10>
 80063ea:	4284      	cmp	r4, r0
 80063ec:	4623      	mov	r3, r4
 80063ee:	d807      	bhi.n	8006400 <memmove+0x20>
 80063f0:	1e43      	subs	r3, r0, #1
 80063f2:	42a1      	cmp	r1, r4
 80063f4:	d008      	beq.n	8006408 <memmove+0x28>
 80063f6:	f811 2b01 	ldrb.w	r2, [r1], #1
 80063fa:	f803 2f01 	strb.w	r2, [r3, #1]!
 80063fe:	e7f8      	b.n	80063f2 <memmove+0x12>
 8006400:	4402      	add	r2, r0
 8006402:	4601      	mov	r1, r0
 8006404:	428a      	cmp	r2, r1
 8006406:	d100      	bne.n	800640a <memmove+0x2a>
 8006408:	bd10      	pop	{r4, pc}
 800640a:	f813 4d01 	ldrb.w	r4, [r3, #-1]!
 800640e:	f802 4d01 	strb.w	r4, [r2, #-1]!
 8006412:	e7f7      	b.n	8006404 <memmove+0x24>

08006414 <_fstat_r>:
 8006414:	b538      	push	{r3, r4, r5, lr}
 8006416:	4d07      	ldr	r5, [pc, #28]	; (8006434 <_fstat_r+0x20>)
 8006418:	2300      	movs	r3, #0
 800641a:	4604      	mov	r4, r0
 800641c:	4608      	mov	r0, r1
 800641e:	4611      	mov	r1, r2
 8006420:	602b      	str	r3, [r5, #0]
 8006422:	f7fa fa4d 	bl	80008c0 <_fstat>
 8006426:	1c43      	adds	r3, r0, #1
 8006428:	d102      	bne.n	8006430 <_fstat_r+0x1c>
 800642a:	682b      	ldr	r3, [r5, #0]
 800642c:	b103      	cbz	r3, 8006430 <_fstat_r+0x1c>
 800642e:	6023      	str	r3, [r4, #0]
 8006430:	bd38      	pop	{r3, r4, r5, pc}
 8006432:	bf00      	nop
 8006434:	20004cbc 	.word	0x20004cbc

08006438 <_isatty_r>:
 8006438:	b538      	push	{r3, r4, r5, lr}
 800643a:	4d06      	ldr	r5, [pc, #24]	; (8006454 <_isatty_r+0x1c>)
 800643c:	2300      	movs	r3, #0
 800643e:	4604      	mov	r4, r0
 8006440:	4608      	mov	r0, r1
 8006442:	602b      	str	r3, [r5, #0]
 8006444:	f7fa fa41 	bl	80008ca <_isatty>
 8006448:	1c43      	adds	r3, r0, #1
 800644a:	d102      	bne.n	8006452 <_isatty_r+0x1a>
 800644c:	682b      	ldr	r3, [r5, #0]
 800644e:	b103      	cbz	r3, 8006452 <_isatty_r+0x1a>
 8006450:	6023      	str	r3, [r4, #0]
 8006452:	bd38      	pop	{r3, r4, r5, pc}
 8006454:	20004cbc 	.word	0x20004cbc

08006458 <_sbrk_r>:
 8006458:	b538      	push	{r3, r4, r5, lr}
 800645a:	4d06      	ldr	r5, [pc, #24]	; (8006474 <_sbrk_r+0x1c>)
 800645c:	2300      	movs	r3, #0
 800645e:	4604      	mov	r4, r0
 8006460:	4608      	mov	r0, r1
 8006462:	602b      	str	r3, [r5, #0]
 8006464:	f7fa fa36 	bl	80008d4 <_sbrk>
 8006468:	1c43      	adds	r3, r0, #1
 800646a:	d102      	bne.n	8006472 <_sbrk_r+0x1a>
 800646c:	682b      	ldr	r3, [r5, #0]
 800646e:	b103      	cbz	r3, 8006472 <_sbrk_r+0x1a>
 8006470:	6023      	str	r3, [r4, #0]
 8006472:	bd38      	pop	{r3, r4, r5, pc}
 8006474:	20004cbc 	.word	0x20004cbc

08006478 <_realloc_r>:
 8006478:	e92d 41f0 	stmdb	sp!, {r4, r5, r6, r7, r8, lr}
 800647c:	4680      	mov	r8, r0
 800647e:	4614      	mov	r4, r2
 8006480:	460e      	mov	r6, r1
 8006482:	b921      	cbnz	r1, 800648e <_realloc_r+0x16>
 8006484:	e8bd 41f0 	ldmia.w	sp!, {r4, r5, r6, r7, r8, lr}
 8006488:	4611      	mov	r1, r2
 800648a:	f7ff b9ad 	b.w	80057e8 <_malloc_r>
 800648e:	b92a      	cbnz	r2, 800649c <_realloc_r+0x24>
 8006490:	f7ff f93e 	bl	8005710 <_free_r>
 8006494:	4625      	mov	r5, r4
 8006496:	4628      	mov	r0, r5
 8006498:	e8bd 81f0 	ldmia.w	sp!, {r4, r5, r6, r7, r8, pc}
 800649c:	f000 f81b 	bl	80064d6 <_malloc_usable_size_r>
 80064a0:	4284      	cmp	r4, r0
 80064a2:	4607      	mov	r7, r0
 80064a4:	d802      	bhi.n	80064ac <_realloc_r+0x34>
 80064a6:	ebb4 0f50 	cmp.w	r4, r0, lsr #1
 80064aa:	d812      	bhi.n	80064d2 <_realloc_r+0x5a>
 80064ac:	4621      	mov	r1, r4
 80064ae:	4640      	mov	r0, r8
 80064b0:	f7ff f99a 	bl	80057e8 <_malloc_r>
 80064b4:	4605      	mov	r5, r0
 80064b6:	2800      	cmp	r0, #0
 80064b8:	d0ed      	beq.n	8006496 <_realloc_r+0x1e>
 80064ba:	42bc      	cmp	r4, r7
 80064bc:	4622      	mov	r2, r4
 80064be:	4631      	mov	r1, r6
 80064c0:	bf28      	it	cs
 80064c2:	463a      	movcs	r2, r7
 80064c4:	f7ff f915 	bl	80056f2 <memcpy>
 80064c8:	4631      	mov	r1, r6
 80064ca:	4640      	mov	r0, r8
 80064cc:	f7ff f920 	bl	8005710 <_free_r>
 80064d0:	e7e1      	b.n	8006496 <_realloc_r+0x1e>
 80064d2:	4635      	mov	r5, r6
 80064d4:	e7df      	b.n	8006496 <_realloc_r+0x1e>

080064d6 <_malloc_usable_size_r>:
 80064d6:	f851 3c04 	ldr.w	r3, [r1, #-4]
 80064da:	1f18      	subs	r0, r3, #4
 80064dc:	2b00      	cmp	r3, #0
 80064de:	bfbc      	itt	lt
 80064e0:	580b      	ldrlt	r3, [r1, r0]
 80064e2:	18c0      	addlt	r0, r0, r3
 80064e4:	4770      	bx	lr
	...

080064e8 <_init>:
 80064e8:	b5f8      	push	{r3, r4, r5, r6, r7, lr}
 80064ea:	bf00      	nop
 80064ec:	bcf8      	pop	{r3, r4, r5, r6, r7}
 80064ee:	bc08      	pop	{r3}
 80064f0:	469e      	mov	lr, r3
 80064f2:	4770      	bx	lr

080064f4 <_fini>:
 80064f4:	b5f8      	push	{r3, r4, r5, r6, r7, lr}
 80064f6:	bf00      	nop
 80064f8:	bcf8      	pop	{r3, r4, r5, r6, r7}
 80064fa:	bc08      	pop	{r3}
 80064fc:	469e      	mov	lr, r3
 80064fe:	4770      	bx	lr
